ARM GAS  C:\Users\57298\AppData\Local\Temp\ccOWz9MQ.s 			page 1


   1              		.cpu cortex-m0
   2              		.arch armv6s-m
   3              		.fpu softvfp
   4              		.eabi_attribute 20, 1
   5              		.eabi_attribute 21, 1
   6              		.eabi_attribute 23, 3
   7              		.eabi_attribute 24, 1
   8              		.eabi_attribute 25, 1
   9              		.eabi_attribute 26, 1
  10              		.eabi_attribute 30, 1
  11              		.eabi_attribute 34, 0
  12              		.eabi_attribute 18, 4
  13              		.file	"param.c"
  14              		.text
  15              	.Ltext0:
  16              		.cfi_sections	.debug_frame
  17              		.section	.text.LoadPara,"ax",%progbits
  18              		.align	1
  19              		.global	LoadPara
  20              		.syntax unified
  21              		.code	16
  22              		.thumb_func
  24              	LoadPara:
  25              	.LFB43:
  26              		.file 1 "Core/Src/param.c"
   1:Core/Src/param.c **** #include "24C02.h"
   2:Core/Src/param.c **** #include "string.h"
   3:Core/Src/param.c **** #include "stdio.h"
   4:Core/Src/param.c **** #include "param.h"
   5:Core/Src/param.c **** 
   6:Core/Src/param.c **** // 读取参数
   7:Core/Src/param.c **** void LoadPara(void)
   8:Core/Src/param.c **** {
  27              		.loc 1 8 1 view -0
  28              		.cfi_startproc
  29              		@ args = 0, pretend = 0, frame = 0
  30              		@ frame_needed = 0, uses_anonymous_args = 0
  31 0000 10B5     		push	{r4, lr}
  32              	.LCFI0:
  33              		.cfi_def_cfa_offset 8
  34              		.cfi_offset 4, -8
  35              		.cfi_offset 14, -4
   9:Core/Src/param.c ****     readAT24C16(addrFenH, (unsigned char *)&FenH, 4);
  36              		.loc 1 9 5 view .LVU1
  37 0002 A14C     		ldr	r4, .L22
  38 0004 0422     		movs	r2, #4
  39 0006 2100     		movs	r1, r4
  40 0008 0020     		movs	r0, #0
  41 000a FFF7FEFF 		bl	readAT24C16
  42              	.LVL0:
  10:Core/Src/param.c ****     if (FenH > 24)
  43              		.loc 1 10 5 view .LVU2
  44              		.loc 1 10 14 is_stmt 0 view .LVU3
  45 000e 2368     		ldr	r3, [r4]
  46              		.loc 1 10 8 view .LVU4
  47 0010 182B     		cmp	r3, #24
  48 0012 02D9     		bls	.L2
ARM GAS  C:\Users\57298\AppData\Local\Temp\ccOWz9MQ.s 			page 2


  11:Core/Src/param.c ****         FenH = 0;
  49              		.loc 1 11 9 is_stmt 1 view .LVU5
  50              		.loc 1 11 14 is_stmt 0 view .LVU6
  51 0014 9C4B     		ldr	r3, .L22
  52 0016 0022     		movs	r2, #0
  53 0018 1A60     		str	r2, [r3]
  54              	.L2:
  12:Core/Src/param.c ****     readAT24C16(addrFenM, (unsigned char *)&FenM, 4);
  55              		.loc 1 12 5 is_stmt 1 view .LVU7
  56 001a 9C4C     		ldr	r4, .L22+4
  57 001c 0422     		movs	r2, #4
  58 001e 2100     		movs	r1, r4
  59 0020 3820     		movs	r0, #56
  60 0022 FFF7FEFF 		bl	readAT24C16
  61              	.LVL1:
  13:Core/Src/param.c ****     if (FenM > 60)
  62              		.loc 1 13 5 view .LVU8
  63              		.loc 1 13 14 is_stmt 0 view .LVU9
  64 0026 2368     		ldr	r3, [r4]
  65              		.loc 1 13 8 view .LVU10
  66 0028 3C2B     		cmp	r3, #60
  67 002a 02D9     		bls	.L3
  14:Core/Src/param.c ****         FenM = 0;
  68              		.loc 1 14 9 is_stmt 1 view .LVU11
  69              		.loc 1 14 14 is_stmt 0 view .LVU12
  70 002c 974B     		ldr	r3, .L22+4
  71 002e 0022     		movs	r2, #0
  72 0030 1A60     		str	r2, [r3]
  73              	.L3:
  15:Core/Src/param.c ****     readAT24C16(addrTcala1, (unsigned char *)&Tcala1, 4);
  74              		.loc 1 15 5 is_stmt 1 view .LVU13
  75 0032 974C     		ldr	r4, .L22+8
  76 0034 0422     		movs	r2, #4
  77 0036 2100     		movs	r1, r4
  78 0038 0420     		movs	r0, #4
  79 003a FFF7FEFF 		bl	readAT24C16
  80              	.LVL2:
  16:Core/Src/param.c ****     if (Tcala1 < -1000 || Tcala1 > 1000)
  81              		.loc 1 16 5 view .LVU14
  82              		.loc 1 16 24 is_stmt 0 view .LVU15
  83 003e 2368     		ldr	r3, [r4]
  84 0040 FA22     		movs	r2, #250
  85 0042 9200     		lsls	r2, r2, #2
  86 0044 9446     		mov	ip, r2
  87 0046 6344     		add	r3, r3, ip
  88              		.loc 1 16 8 view .LVU16
  89 0048 FA22     		movs	r2, #250
  90 004a D200     		lsls	r2, r2, #3
  91 004c 9342     		cmp	r3, r2
  92 004e 02D9     		bls	.L4
  17:Core/Src/param.c ****         Tcala1 = 0;
  93              		.loc 1 17 9 is_stmt 1 view .LVU17
  94              		.loc 1 17 16 is_stmt 0 view .LVU18
  95 0050 8F4B     		ldr	r3, .L22+8
  96 0052 0022     		movs	r2, #0
  97 0054 1A60     		str	r2, [r3]
  98              	.L4:
ARM GAS  C:\Users\57298\AppData\Local\Temp\ccOWz9MQ.s 			page 3


  18:Core/Src/param.c ****     readAT24C16(addrTcala2, (unsigned char *)&Tcala2, 4);
  99              		.loc 1 18 5 is_stmt 1 view .LVU19
 100 0056 8F4C     		ldr	r4, .L22+12
 101 0058 0422     		movs	r2, #4
 102 005a 2100     		movs	r1, r4
 103 005c 0820     		movs	r0, #8
 104 005e FFF7FEFF 		bl	readAT24C16
 105              	.LVL3:
  19:Core/Src/param.c ****     if (Tcala2 < -1000 || Tcala2 > 1000)
 106              		.loc 1 19 5 view .LVU20
 107              		.loc 1 19 24 is_stmt 0 view .LVU21
 108 0062 2368     		ldr	r3, [r4]
 109 0064 FA22     		movs	r2, #250
 110 0066 9200     		lsls	r2, r2, #2
 111 0068 9446     		mov	ip, r2
 112 006a 6344     		add	r3, r3, ip
 113              		.loc 1 19 8 view .LVU22
 114 006c FA22     		movs	r2, #250
 115 006e D200     		lsls	r2, r2, #3
 116 0070 9342     		cmp	r3, r2
 117 0072 02D9     		bls	.L5
  20:Core/Src/param.c ****         Tcala2 = 0;
 118              		.loc 1 20 9 is_stmt 1 view .LVU23
 119              		.loc 1 20 16 is_stmt 0 view .LVU24
 120 0074 874B     		ldr	r3, .L22+12
 121 0076 0022     		movs	r2, #0
 122 0078 1A60     		str	r2, [r3]
 123              	.L5:
  21:Core/Src/param.c ****     readAT24C16(addrTcala3, (unsigned char *)&Tcala3, 4);
 124              		.loc 1 21 5 is_stmt 1 view .LVU25
 125 007a 874C     		ldr	r4, .L22+16
 126 007c 0422     		movs	r2, #4
 127 007e 2100     		movs	r1, r4
 128 0080 0C20     		movs	r0, #12
 129 0082 FFF7FEFF 		bl	readAT24C16
 130              	.LVL4:
  22:Core/Src/param.c ****     if (Tcala3 < -1000 || Tcala3 > 1000)
 131              		.loc 1 22 5 view .LVU26
 132              		.loc 1 22 24 is_stmt 0 view .LVU27
 133 0086 2368     		ldr	r3, [r4]
 134 0088 FA22     		movs	r2, #250
 135 008a 9200     		lsls	r2, r2, #2
 136 008c 9446     		mov	ip, r2
 137 008e 6344     		add	r3, r3, ip
 138              		.loc 1 22 8 view .LVU28
 139 0090 FA22     		movs	r2, #250
 140 0092 D200     		lsls	r2, r2, #3
 141 0094 9342     		cmp	r3, r2
 142 0096 02D9     		bls	.L6
  23:Core/Src/param.c ****         Tcala3 = 0;
 143              		.loc 1 23 9 is_stmt 1 view .LVU29
 144              		.loc 1 23 16 is_stmt 0 view .LVU30
 145 0098 7F4B     		ldr	r3, .L22+16
 146 009a 0022     		movs	r2, #0
 147 009c 1A60     		str	r2, [r3]
 148              	.L6:
  24:Core/Src/param.c ****     readAT24C16(addrTcala4, (unsigned char *)&Tcala4, 4);
ARM GAS  C:\Users\57298\AppData\Local\Temp\ccOWz9MQ.s 			page 4


 149              		.loc 1 24 5 is_stmt 1 view .LVU31
 150 009e 7F4C     		ldr	r4, .L22+20
 151 00a0 0422     		movs	r2, #4
 152 00a2 2100     		movs	r1, r4
 153 00a4 5A20     		movs	r0, #90
 154 00a6 FFF7FEFF 		bl	readAT24C16
 155              	.LVL5:
  25:Core/Src/param.c ****     if (Tcala4 < -1000 || Tcala4 > 1000)
 156              		.loc 1 25 5 view .LVU32
 157              		.loc 1 25 24 is_stmt 0 view .LVU33
 158 00aa 2368     		ldr	r3, [r4]
 159 00ac FA22     		movs	r2, #250
 160 00ae 9200     		lsls	r2, r2, #2
 161 00b0 9446     		mov	ip, r2
 162 00b2 6344     		add	r3, r3, ip
 163              		.loc 1 25 8 view .LVU34
 164 00b4 FA22     		movs	r2, #250
 165 00b6 D200     		lsls	r2, r2, #3
 166 00b8 9342     		cmp	r3, r2
 167 00ba 02D9     		bls	.L7
  26:Core/Src/param.c ****         Tcala4 = 0;
 168              		.loc 1 26 9 is_stmt 1 view .LVU35
 169              		.loc 1 26 16 is_stmt 0 view .LVU36
 170 00bc 774B     		ldr	r3, .L22+20
 171 00be 0022     		movs	r2, #0
 172 00c0 1A60     		str	r2, [r3]
 173              	.L7:
  27:Core/Src/param.c ****     readAT24C16(addrTcala5, (unsigned char *)&Tcala5, 4);
 174              		.loc 1 27 5 is_stmt 1 view .LVU37
 175 00c2 774C     		ldr	r4, .L22+24
 176 00c4 0422     		movs	r2, #4
 177 00c6 2100     		movs	r1, r4
 178 00c8 5E20     		movs	r0, #94
 179 00ca FFF7FEFF 		bl	readAT24C16
 180              	.LVL6:
  28:Core/Src/param.c ****     if (Tcala5 < -1000 || Tcala5 > 1000)
 181              		.loc 1 28 5 view .LVU38
 182              		.loc 1 28 24 is_stmt 0 view .LVU39
 183 00ce 2368     		ldr	r3, [r4]
 184 00d0 FA22     		movs	r2, #250
 185 00d2 9200     		lsls	r2, r2, #2
 186 00d4 9446     		mov	ip, r2
 187 00d6 6344     		add	r3, r3, ip
 188              		.loc 1 28 8 view .LVU40
 189 00d8 FA22     		movs	r2, #250
 190 00da D200     		lsls	r2, r2, #3
 191 00dc 9342     		cmp	r3, r2
 192 00de 02D9     		bls	.L8
  29:Core/Src/param.c ****         Tcala5 = 0;
 193              		.loc 1 29 9 is_stmt 1 view .LVU41
 194              		.loc 1 29 16 is_stmt 0 view .LVU42
 195 00e0 6F4B     		ldr	r3, .L22+24
 196 00e2 0022     		movs	r2, #0
 197 00e4 1A60     		str	r2, [r3]
 198              	.L8:
  30:Core/Src/param.c **** 
  31:Core/Src/param.c ****     readAT24C16(addrk1, (unsigned char *)&k1, 4);
ARM GAS  C:\Users\57298\AppData\Local\Temp\ccOWz9MQ.s 			page 5


 199              		.loc 1 31 5 is_stmt 1 view .LVU43
 200 00e6 0422     		movs	r2, #4
 201 00e8 6E49     		ldr	r1, .L22+28
 202 00ea 3C20     		movs	r0, #60
 203 00ec FFF7FEFF 		bl	readAT24C16
 204              	.LVL7:
  32:Core/Src/param.c ****     readAT24C16(addrb1, (unsigned char *)&b1, 4);
 205              		.loc 1 32 5 view .LVU44
 206 00f0 0422     		movs	r2, #4
 207 00f2 6D49     		ldr	r1, .L22+32
 208 00f4 4820     		movs	r0, #72
 209 00f6 FFF7FEFF 		bl	readAT24C16
 210              	.LVL8:
  33:Core/Src/param.c ****     readAT24C16(addrk2, (unsigned char *)&k2, 4);
 211              		.loc 1 33 5 view .LVU45
 212 00fa 0422     		movs	r2, #4
 213 00fc 6B49     		ldr	r1, .L22+36
 214 00fe 4020     		movs	r0, #64
 215 0100 FFF7FEFF 		bl	readAT24C16
 216              	.LVL9:
  34:Core/Src/param.c ****     readAT24C16(addrb2, (unsigned char *)&b2, 4);
 217              		.loc 1 34 5 view .LVU46
 218 0104 0422     		movs	r2, #4
 219 0106 6A49     		ldr	r1, .L22+40
 220 0108 4C20     		movs	r0, #76
 221 010a FFF7FEFF 		bl	readAT24C16
 222              	.LVL10:
  35:Core/Src/param.c ****     readAT24C16(addrk3, (unsigned char *)&k3, 4);
 223              		.loc 1 35 5 view .LVU47
 224 010e 0422     		movs	r2, #4
 225 0110 6849     		ldr	r1, .L22+44
 226 0112 4420     		movs	r0, #68
 227 0114 FFF7FEFF 		bl	readAT24C16
 228              	.LVL11:
  36:Core/Src/param.c ****     readAT24C16(addrb3, (unsigned char *)&b3, 4);
 229              		.loc 1 36 5 view .LVU48
 230 0118 0422     		movs	r2, #4
 231 011a 6749     		ldr	r1, .L22+48
 232 011c 5020     		movs	r0, #80
 233 011e FFF7FEFF 		bl	readAT24C16
 234              	.LVL12:
  37:Core/Src/param.c **** 
  38:Core/Src/param.c ****     readAT24C16(addrTset1, (unsigned char *)&Tset1, 4);
 235              		.loc 1 38 5 view .LVU49
 236 0122 664C     		ldr	r4, .L22+52
 237 0124 0422     		movs	r2, #4
 238 0126 2100     		movs	r1, r4
 239 0128 1020     		movs	r0, #16
 240 012a FFF7FEFF 		bl	readAT24C16
 241              	.LVL13:
  39:Core/Src/param.c ****     if (Tset1 < TsetValLow || Tset1 > TsetValHig)
 242              		.loc 1 39 5 view .LVU50
 243              		.loc 1 39 28 is_stmt 0 view .LVU51
 244 012e 2268     		ldr	r2, [r4]
 245              		.loc 1 39 8 view .LVU52
 246 0130 FA23     		movs	r3, #250
 247 0132 DB00     		lsls	r3, r3, #3
ARM GAS  C:\Users\57298\AppData\Local\Temp\ccOWz9MQ.s 			page 6


 248 0134 9A42     		cmp	r2, r3
 249 0136 03D9     		bls	.L9
  40:Core/Src/param.c ****         Tset1 = 1000;
 250              		.loc 1 40 9 is_stmt 1 view .LVU53
 251              		.loc 1 40 15 is_stmt 0 view .LVU54
 252 0138 604B     		ldr	r3, .L22+52
 253 013a FA22     		movs	r2, #250
 254 013c 9200     		lsls	r2, r2, #2
 255 013e 1A60     		str	r2, [r3]
 256              	.L9:
  41:Core/Src/param.c ****     readAT24C16(addrTset2, (unsigned char *)&Tset2, 4);
 257              		.loc 1 41 5 is_stmt 1 view .LVU55
 258 0140 5F4C     		ldr	r4, .L22+56
 259 0142 0422     		movs	r2, #4
 260 0144 2100     		movs	r1, r4
 261 0146 1420     		movs	r0, #20
 262 0148 FFF7FEFF 		bl	readAT24C16
 263              	.LVL14:
  42:Core/Src/param.c ****     if (Tset2 < TsetValLow || Tset2 > TsetValHig)
 264              		.loc 1 42 5 view .LVU56
 265              		.loc 1 42 28 is_stmt 0 view .LVU57
 266 014c 2268     		ldr	r2, [r4]
 267              		.loc 1 42 8 view .LVU58
 268 014e FA23     		movs	r3, #250
 269 0150 DB00     		lsls	r3, r3, #3
 270 0152 9A42     		cmp	r2, r3
 271 0154 03D9     		bls	.L10
  43:Core/Src/param.c ****         Tset2 = 800;
 272              		.loc 1 43 9 is_stmt 1 view .LVU59
 273              		.loc 1 43 15 is_stmt 0 view .LVU60
 274 0156 5A4B     		ldr	r3, .L22+56
 275 0158 C822     		movs	r2, #200
 276 015a 9200     		lsls	r2, r2, #2
 277 015c 1A60     		str	r2, [r3]
 278              	.L10:
  44:Core/Src/param.c ****     readAT24C16(addrTset3, (unsigned char *)&Tset3, 4);
 279              		.loc 1 44 5 is_stmt 1 view .LVU61
 280 015e 594C     		ldr	r4, .L22+60
 281 0160 0422     		movs	r2, #4
 282 0162 2100     		movs	r1, r4
 283 0164 1820     		movs	r0, #24
 284 0166 FFF7FEFF 		bl	readAT24C16
 285              	.LVL15:
  45:Core/Src/param.c ****     if (Tset3 < TsetValLow || Tset3 > TsetValHig)
 286              		.loc 1 45 5 view .LVU62
 287              		.loc 1 45 28 is_stmt 0 view .LVU63
 288 016a 2268     		ldr	r2, [r4]
 289              		.loc 1 45 8 view .LVU64
 290 016c FA23     		movs	r3, #250
 291 016e DB00     		lsls	r3, r3, #3
 292 0170 9A42     		cmp	r2, r3
 293 0172 02D9     		bls	.L11
  46:Core/Src/param.c ****         Tset3 = 1300;
 294              		.loc 1 46 9 is_stmt 1 view .LVU65
 295              		.loc 1 46 15 is_stmt 0 view .LVU66
 296 0174 534B     		ldr	r3, .L22+60
 297 0176 544A     		ldr	r2, .L22+64
ARM GAS  C:\Users\57298\AppData\Local\Temp\ccOWz9MQ.s 			page 7


 298 0178 1A60     		str	r2, [r3]
 299              	.L11:
  47:Core/Src/param.c ****     readAT24C16(addrTset4, (unsigned char *)&Tset4, 4);
 300              		.loc 1 47 5 is_stmt 1 view .LVU67
 301 017a 544C     		ldr	r4, .L22+68
 302 017c 0422     		movs	r2, #4
 303 017e 2100     		movs	r1, r4
 304 0180 1C20     		movs	r0, #28
 305 0182 FFF7FEFF 		bl	readAT24C16
 306              	.LVL16:
  48:Core/Src/param.c ****     if (Tset4 < TsetValLow || Tset4 > TsetValHig)
 307              		.loc 1 48 5 view .LVU68
 308              		.loc 1 48 28 is_stmt 0 view .LVU69
 309 0186 2268     		ldr	r2, [r4]
 310              		.loc 1 48 8 view .LVU70
 311 0188 FA23     		movs	r3, #250
 312 018a DB00     		lsls	r3, r3, #3
 313 018c 9A42     		cmp	r2, r3
 314 018e 02D9     		bls	.L12
  49:Core/Src/param.c ****         Tset4 = 1500;
 315              		.loc 1 49 9 is_stmt 1 view .LVU71
 316              		.loc 1 49 15 is_stmt 0 view .LVU72
 317 0190 4E4B     		ldr	r3, .L22+68
 318 0192 4F4A     		ldr	r2, .L22+72
 319 0194 1A60     		str	r2, [r3]
 320              	.L12:
  50:Core/Src/param.c ****     readAT24C16(addrTset5, (unsigned char *)&Tset5, 4);
 321              		.loc 1 50 5 is_stmt 1 view .LVU73
 322 0196 4F4C     		ldr	r4, .L22+76
 323 0198 0422     		movs	r2, #4
 324 019a 2100     		movs	r1, r4
 325 019c 6220     		movs	r0, #98
 326 019e FFF7FEFF 		bl	readAT24C16
 327              	.LVL17:
  51:Core/Src/param.c ****     if (Tset5 < TsetValLow || Tset5 > TsetValHig)
 328              		.loc 1 51 5 view .LVU74
 329              		.loc 1 51 28 is_stmt 0 view .LVU75
 330 01a2 2268     		ldr	r2, [r4]
 331              		.loc 1 51 8 view .LVU76
 332 01a4 FA23     		movs	r3, #250
 333 01a6 DB00     		lsls	r3, r3, #3
 334 01a8 9A42     		cmp	r2, r3
 335 01aa 03D9     		bls	.L13
  52:Core/Src/param.c ****         Tset5 = 600;
 336              		.loc 1 52 9 is_stmt 1 view .LVU77
 337              		.loc 1 52 15 is_stmt 0 view .LVU78
 338 01ac 494B     		ldr	r3, .L22+76
 339 01ae 9622     		movs	r2, #150
 340 01b0 9200     		lsls	r2, r2, #2
 341 01b2 1A60     		str	r2, [r3]
 342              	.L13:
  53:Core/Src/param.c ****     readAT24C16(addrTset6, (unsigned char *)&Tset6, 4);
 343              		.loc 1 53 5 is_stmt 1 view .LVU79
 344 01b4 484C     		ldr	r4, .L22+80
 345 01b6 0422     		movs	r2, #4
 346 01b8 2100     		movs	r1, r4
 347 01ba 6620     		movs	r0, #102
ARM GAS  C:\Users\57298\AppData\Local\Temp\ccOWz9MQ.s 			page 8


 348 01bc FFF7FEFF 		bl	readAT24C16
 349              	.LVL18:
  54:Core/Src/param.c ****     if (Tset6 < TsetValLow || Tset6 > TsetValHig)
 350              		.loc 1 54 5 view .LVU80
 351              		.loc 1 54 28 is_stmt 0 view .LVU81
 352 01c0 2268     		ldr	r2, [r4]
 353              		.loc 1 54 8 view .LVU82
 354 01c2 FA23     		movs	r3, #250
 355 01c4 DB00     		lsls	r3, r3, #3
 356 01c6 9A42     		cmp	r2, r3
 357 01c8 03D9     		bls	.L14
  55:Core/Src/param.c ****         Tset6 = 600;
 358              		.loc 1 55 9 is_stmt 1 view .LVU83
 359              		.loc 1 55 15 is_stmt 0 view .LVU84
 360 01ca 434B     		ldr	r3, .L22+80
 361 01cc 9622     		movs	r2, #150
 362 01ce 9200     		lsls	r2, r2, #2
 363 01d0 1A60     		str	r2, [r3]
 364              	.L14:
  56:Core/Src/param.c ****     readAT24C16(addrTset7, (unsigned char *)&Tset7, 4);
 365              		.loc 1 56 5 is_stmt 1 view .LVU85
 366 01d2 424C     		ldr	r4, .L22+84
 367 01d4 0422     		movs	r2, #4
 368 01d6 2100     		movs	r1, r4
 369 01d8 6A20     		movs	r0, #106
 370 01da FFF7FEFF 		bl	readAT24C16
 371              	.LVL19:
  57:Core/Src/param.c ****     if (Tset7 < TsetValLow || Tset7 > TsetValHig)
 372              		.loc 1 57 5 view .LVU86
 373              		.loc 1 57 28 is_stmt 0 view .LVU87
 374 01de 2268     		ldr	r2, [r4]
 375              		.loc 1 57 8 view .LVU88
 376 01e0 FA23     		movs	r3, #250
 377 01e2 DB00     		lsls	r3, r3, #3
 378 01e4 9A42     		cmp	r2, r3
 379 01e6 03D9     		bls	.L15
  58:Core/Src/param.c ****         Tset7 = 600;
 380              		.loc 1 58 9 is_stmt 1 view .LVU89
 381              		.loc 1 58 15 is_stmt 0 view .LVU90
 382 01e8 3C4B     		ldr	r3, .L22+84
 383 01ea 9622     		movs	r2, #150
 384 01ec 9200     		lsls	r2, r2, #2
 385 01ee 1A60     		str	r2, [r3]
 386              	.L15:
  59:Core/Src/param.c **** 
  60:Core/Src/param.c ****     readAT24C16(addrcshuiCha, (unsigned char *)&cshuiCha, 4);
 387              		.loc 1 60 5 is_stmt 1 view .LVU91
 388 01f0 3B4C     		ldr	r4, .L22+88
 389 01f2 0422     		movs	r2, #4
 390 01f4 2100     		movs	r1, r4
 391 01f6 2020     		movs	r0, #32
 392 01f8 FFF7FEFF 		bl	readAT24C16
 393              	.LVL20:
  61:Core/Src/param.c ****     if (cshuiCha < HCLow || cshuiCha > HCHig)
 394              		.loc 1 61 5 view .LVU92
 395              		.loc 1 61 26 is_stmt 0 view .LVU93
 396 01fc 2368     		ldr	r3, [r4]
ARM GAS  C:\Users\57298\AppData\Local\Temp\ccOWz9MQ.s 			page 9


 397 01fe 053B     		subs	r3, r3, #5
 398              		.loc 1 61 8 view .LVU94
 399 0200 5F2B     		cmp	r3, #95
 400 0202 02D9     		bls	.L16
  62:Core/Src/param.c ****         cshuiCha = 4;
 401              		.loc 1 62 9 is_stmt 1 view .LVU95
 402              		.loc 1 62 18 is_stmt 0 view .LVU96
 403 0204 364B     		ldr	r3, .L22+88
 404 0206 0422     		movs	r2, #4
 405 0208 1A60     		str	r2, [r3]
 406              	.L16:
  63:Core/Src/param.c ****     readAT24C16(addrcwhuiCha, (unsigned char *)&cwhuiCha, 4);
 407              		.loc 1 63 5 is_stmt 1 view .LVU97
 408 020a 364C     		ldr	r4, .L22+92
 409 020c 0422     		movs	r2, #4
 410 020e 2100     		movs	r1, r4
 411 0210 2420     		movs	r0, #36
 412 0212 FFF7FEFF 		bl	readAT24C16
 413              	.LVL21:
  64:Core/Src/param.c ****     if (cwhuiCha < HCLow || cwhuiCha > HCHig)
 414              		.loc 1 64 5 view .LVU98
 415              		.loc 1 64 26 is_stmt 0 view .LVU99
 416 0216 2368     		ldr	r3, [r4]
 417 0218 053B     		subs	r3, r3, #5
 418              		.loc 1 64 8 view .LVU100
 419 021a 5F2B     		cmp	r3, #95
 420 021c 02D9     		bls	.L17
  65:Core/Src/param.c ****         cwhuiCha = 4;
 421              		.loc 1 65 9 is_stmt 1 view .LVU101
 422              		.loc 1 65 18 is_stmt 0 view .LVU102
 423 021e 314B     		ldr	r3, .L22+92
 424 0220 0422     		movs	r2, #4
 425 0222 1A60     		str	r2, [r3]
 426              	.L17:
  66:Core/Src/param.c ****     readAT24C16(addrtzhuiCha, (unsigned char *)&tzhuiCha, 4);
 427              		.loc 1 66 5 is_stmt 1 view .LVU103
 428 0224 304C     		ldr	r4, .L22+96
 429 0226 0422     		movs	r2, #4
 430 0228 2100     		movs	r1, r4
 431 022a 2820     		movs	r0, #40
 432 022c FFF7FEFF 		bl	readAT24C16
 433              	.LVL22:
  67:Core/Src/param.c ****     if (tzhuiCha < HCLow || tzhuiCha > HCHig)
 434              		.loc 1 67 5 view .LVU104
 435              		.loc 1 67 26 is_stmt 0 view .LVU105
 436 0230 2368     		ldr	r3, [r4]
 437 0232 053B     		subs	r3, r3, #5
 438              		.loc 1 67 8 view .LVU106
 439 0234 5F2B     		cmp	r3, #95
 440 0236 02D9     		bls	.L18
  68:Core/Src/param.c ****         tzhuiCha = 4;
 441              		.loc 1 68 9 is_stmt 1 view .LVU107
 442              		.loc 1 68 18 is_stmt 0 view .LVU108
 443 0238 2B4B     		ldr	r3, .L22+96
 444 023a 0422     		movs	r2, #4
 445 023c 1A60     		str	r2, [r3]
 446              	.L18:
ARM GAS  C:\Users\57298\AppData\Local\Temp\ccOWz9MQ.s 			page 10


  69:Core/Src/param.c **** 
  70:Core/Src/param.c ****     readAT24C16(addraddr, (unsigned char *)&addr, 4);
 447              		.loc 1 70 5 is_stmt 1 view .LVU109
 448 023e 2B4C     		ldr	r4, .L22+100
 449 0240 0422     		movs	r2, #4
 450 0242 2100     		movs	r1, r4
 451 0244 2C20     		movs	r0, #44
 452 0246 FFF7FEFF 		bl	readAT24C16
 453              	.LVL23:
  71:Core/Src/param.c ****     if (addr > 254)
 454              		.loc 1 71 5 view .LVU110
 455              		.loc 1 71 14 is_stmt 0 view .LVU111
 456 024a 2368     		ldr	r3, [r4]
 457              		.loc 1 71 8 view .LVU112
 458 024c FE2B     		cmp	r3, #254
 459 024e 02D9     		bls	.L19
  72:Core/Src/param.c ****         addr = 1;
 460              		.loc 1 72 9 is_stmt 1 view .LVU113
 461              		.loc 1 72 14 is_stmt 0 view .LVU114
 462 0250 264B     		ldr	r3, .L22+100
 463 0252 0122     		movs	r2, #1
 464 0254 1A60     		str	r2, [r3]
 465              	.L19:
  73:Core/Src/param.c ****     readAT24C16(addrjojy, (unsigned char *)&jojy, 4);
 466              		.loc 1 73 5 is_stmt 1 view .LVU115
 467 0256 264C     		ldr	r4, .L22+104
 468 0258 0422     		movs	r2, #4
 469 025a 2100     		movs	r1, r4
 470 025c 3020     		movs	r0, #48
 471 025e FFF7FEFF 		bl	readAT24C16
 472              	.LVL24:
  74:Core/Src/param.c ****     if (jojy > 2)
 473              		.loc 1 74 5 view .LVU116
 474              		.loc 1 74 14 is_stmt 0 view .LVU117
 475 0262 2368     		ldr	r3, [r4]
 476              		.loc 1 74 8 view .LVU118
 477 0264 022B     		cmp	r3, #2
 478 0266 02D9     		bls	.L20
  75:Core/Src/param.c ****         jojy = 0;
 479              		.loc 1 75 9 is_stmt 1 view .LVU119
 480              		.loc 1 75 14 is_stmt 0 view .LVU120
 481 0268 214B     		ldr	r3, .L22+104
 482 026a 0022     		movs	r2, #0
 483 026c 1A60     		str	r2, [r3]
 484              	.L20:
  76:Core/Src/param.c ****     readAT24C16(addrbtlv, (unsigned char *)&btlv, 4);
 485              		.loc 1 76 5 is_stmt 1 view .LVU121
 486 026e 214C     		ldr	r4, .L22+108
 487 0270 0422     		movs	r2, #4
 488 0272 2100     		movs	r1, r4
 489 0274 3420     		movs	r0, #52
 490 0276 FFF7FEFF 		bl	readAT24C16
 491              	.LVL25:
  77:Core/Src/param.c ****     if (btlv > 4)
 492              		.loc 1 77 5 view .LVU122
 493              		.loc 1 77 14 is_stmt 0 view .LVU123
 494 027a 2368     		ldr	r3, [r4]
ARM GAS  C:\Users\57298\AppData\Local\Temp\ccOWz9MQ.s 			page 11


 495              		.loc 1 77 8 view .LVU124
 496 027c 042B     		cmp	r3, #4
 497 027e 02D9     		bls	.L1
  78:Core/Src/param.c ****         btlv = 3;
 498              		.loc 1 78 9 is_stmt 1 view .LVU125
 499              		.loc 1 78 14 is_stmt 0 view .LVU126
 500 0280 1C4B     		ldr	r3, .L22+108
 501 0282 0322     		movs	r2, #3
 502 0284 1A60     		str	r2, [r3]
 503              	.L1:
  79:Core/Src/param.c **** }
 504              		.loc 1 79 1 view .LVU127
 505              		@ sp needed
 506 0286 10BD     		pop	{r4, pc}
 507              	.L23:
 508              		.align	2
 509              	.L22:
 510 0288 00000000 		.word	FenH
 511 028c 00000000 		.word	FenM
 512 0290 00000000 		.word	Tcala1
 513 0294 00000000 		.word	Tcala2
 514 0298 00000000 		.word	Tcala3
 515 029c 00000000 		.word	Tcala4
 516 02a0 00000000 		.word	Tcala5
 517 02a4 00000000 		.word	k1
 518 02a8 00000000 		.word	b1
 519 02ac 00000000 		.word	k2
 520 02b0 00000000 		.word	b2
 521 02b4 00000000 		.word	k3
 522 02b8 00000000 		.word	b3
 523 02bc 00000000 		.word	Tset1
 524 02c0 00000000 		.word	Tset2
 525 02c4 00000000 		.word	Tset3
 526 02c8 14050000 		.word	1300
 527 02cc 00000000 		.word	Tset4
 528 02d0 DC050000 		.word	1500
 529 02d4 00000000 		.word	Tset5
 530 02d8 00000000 		.word	Tset6
 531 02dc 00000000 		.word	Tset7
 532 02e0 00000000 		.word	cshuiCha
 533 02e4 00000000 		.word	cwhuiCha
 534 02e8 00000000 		.word	tzhuiCha
 535 02ec 00000000 		.word	addr
 536 02f0 00000000 		.word	jojy
 537 02f4 00000000 		.word	btlv
 538              		.cfi_endproc
 539              	.LFE43:
 541              		.text
 542              	.Letext0:
 543              		.file 2 "Core/Inc/param.h"
 544              		.file 3 "Core/Inc/24C02.h"
ARM GAS  C:\Users\57298\AppData\Local\Temp\ccOWz9MQ.s 			page 12


DEFINED SYMBOLS
                            *ABS*:00000000 param.c
C:\Users\57298\AppData\Local\Temp\ccOWz9MQ.s:18     .text.LoadPara:00000000 $t
C:\Users\57298\AppData\Local\Temp\ccOWz9MQ.s:24     .text.LoadPara:00000000 LoadPara
C:\Users\57298\AppData\Local\Temp\ccOWz9MQ.s:510    .text.LoadPara:00000288 $d

UNDEFINED SYMBOLS
readAT24C16
FenH
FenM
Tcala1
Tcala2
Tcala3
Tcala4
Tcala5
k1
b1
k2
b2
k3
b3
Tset1
Tset2
Tset3
Tset4
Tset5
Tset6
Tset7
cshuiCha
cwhuiCha
tzhuiCha
addr
jojy
btlv
