ARM GAS  C:\Users\mason\AppData\Local\Temp\ccxPU8bU.s 			page 1


   1              		.cpu cortex-m0
   2              		.arch armv6s-m
   3              		.fpu softvfp
   4              		.eabi_attribute 20, 1
   5              		.eabi_attribute 21, 1
   6              		.eabi_attribute 23, 3
   7              		.eabi_attribute 24, 1
   8              		.eabi_attribute 25, 1
   9              		.eabi_attribute 26, 1
  10              		.eabi_attribute 30, 6
  11              		.eabi_attribute 34, 0
  12              		.eabi_attribute 18, 4
  13              		.file	"stm32f0xx_hal_msp.c"
  14              		.text
  15              	.Ltext0:
  16              		.cfi_sections	.debug_frame
  17              		.section	.text.HAL_MspInit,"ax",%progbits
  18              		.align	1
  19              		.global	HAL_MspInit
  20              		.syntax unified
  21              		.code	16
  22              		.thumb_func
  24              	HAL_MspInit:
  25              	.LFB40:
  26              		.file 1 "Core/Src/stm32f0xx_hal_msp.c"
   1:Core/Src/stm32f0xx_hal_msp.c **** /* USER CODE BEGIN Header */
   2:Core/Src/stm32f0xx_hal_msp.c **** /**
   3:Core/Src/stm32f0xx_hal_msp.c ****   ******************************************************************************
   4:Core/Src/stm32f0xx_hal_msp.c ****   * @file         stm32f0xx_hal_msp.c
   5:Core/Src/stm32f0xx_hal_msp.c ****   * @brief        This file provides code for the MSP Initialization
   6:Core/Src/stm32f0xx_hal_msp.c ****   *               and de-Initialization codes.
   7:Core/Src/stm32f0xx_hal_msp.c ****   ******************************************************************************
   8:Core/Src/stm32f0xx_hal_msp.c ****   * @attention
   9:Core/Src/stm32f0xx_hal_msp.c ****   *
  10:Core/Src/stm32f0xx_hal_msp.c ****   * Copyright (c) 2024 STMicroelectronics.
  11:Core/Src/stm32f0xx_hal_msp.c ****   * All rights reserved.
  12:Core/Src/stm32f0xx_hal_msp.c ****   *
  13:Core/Src/stm32f0xx_hal_msp.c ****   * This software is licensed under terms that can be found in the LICENSE file
  14:Core/Src/stm32f0xx_hal_msp.c ****   * in the root directory of this software component.
  15:Core/Src/stm32f0xx_hal_msp.c ****   * If no LICENSE file comes with this software, it is provided AS-IS.
  16:Core/Src/stm32f0xx_hal_msp.c ****   *
  17:Core/Src/stm32f0xx_hal_msp.c ****   ******************************************************************************
  18:Core/Src/stm32f0xx_hal_msp.c ****   */
  19:Core/Src/stm32f0xx_hal_msp.c **** /* USER CODE END Header */
  20:Core/Src/stm32f0xx_hal_msp.c **** 
  21:Core/Src/stm32f0xx_hal_msp.c **** /* Includes ------------------------------------------------------------------*/
  22:Core/Src/stm32f0xx_hal_msp.c **** #include "main.h"
  23:Core/Src/stm32f0xx_hal_msp.c **** /* USER CODE BEGIN Includes */
  24:Core/Src/stm32f0xx_hal_msp.c **** 
  25:Core/Src/stm32f0xx_hal_msp.c **** /* USER CODE END Includes */
  26:Core/Src/stm32f0xx_hal_msp.c **** extern DMA_HandleTypeDef hdma_adc;
  27:Core/Src/stm32f0xx_hal_msp.c **** 
  28:Core/Src/stm32f0xx_hal_msp.c **** extern DMA_HandleTypeDef hdma_usart1_rx;
  29:Core/Src/stm32f0xx_hal_msp.c **** 
  30:Core/Src/stm32f0xx_hal_msp.c **** extern DMA_HandleTypeDef hdma_usart1_tx;
  31:Core/Src/stm32f0xx_hal_msp.c **** 
  32:Core/Src/stm32f0xx_hal_msp.c **** /* Private typedef -----------------------------------------------------------*/
ARM GAS  C:\Users\mason\AppData\Local\Temp\ccxPU8bU.s 			page 2


  33:Core/Src/stm32f0xx_hal_msp.c **** /* USER CODE BEGIN TD */
  34:Core/Src/stm32f0xx_hal_msp.c **** 
  35:Core/Src/stm32f0xx_hal_msp.c **** /* USER CODE END TD */
  36:Core/Src/stm32f0xx_hal_msp.c **** 
  37:Core/Src/stm32f0xx_hal_msp.c **** /* Private define ------------------------------------------------------------*/
  38:Core/Src/stm32f0xx_hal_msp.c **** /* USER CODE BEGIN Define */
  39:Core/Src/stm32f0xx_hal_msp.c **** 
  40:Core/Src/stm32f0xx_hal_msp.c **** /* USER CODE END Define */
  41:Core/Src/stm32f0xx_hal_msp.c **** 
  42:Core/Src/stm32f0xx_hal_msp.c **** /* Private macro -------------------------------------------------------------*/
  43:Core/Src/stm32f0xx_hal_msp.c **** /* USER CODE BEGIN Macro */
  44:Core/Src/stm32f0xx_hal_msp.c **** 
  45:Core/Src/stm32f0xx_hal_msp.c **** /* USER CODE END Macro */
  46:Core/Src/stm32f0xx_hal_msp.c **** 
  47:Core/Src/stm32f0xx_hal_msp.c **** /* Private variables ---------------------------------------------------------*/
  48:Core/Src/stm32f0xx_hal_msp.c **** /* USER CODE BEGIN PV */
  49:Core/Src/stm32f0xx_hal_msp.c **** 
  50:Core/Src/stm32f0xx_hal_msp.c **** /* USER CODE END PV */
  51:Core/Src/stm32f0xx_hal_msp.c **** 
  52:Core/Src/stm32f0xx_hal_msp.c **** /* Private function prototypes -----------------------------------------------*/
  53:Core/Src/stm32f0xx_hal_msp.c **** /* USER CODE BEGIN PFP */
  54:Core/Src/stm32f0xx_hal_msp.c **** 
  55:Core/Src/stm32f0xx_hal_msp.c **** /* USER CODE END PFP */
  56:Core/Src/stm32f0xx_hal_msp.c **** 
  57:Core/Src/stm32f0xx_hal_msp.c **** /* External functions --------------------------------------------------------*/
  58:Core/Src/stm32f0xx_hal_msp.c **** /* USER CODE BEGIN ExternalFunctions */
  59:Core/Src/stm32f0xx_hal_msp.c **** 
  60:Core/Src/stm32f0xx_hal_msp.c **** /* USER CODE END ExternalFunctions */
  61:Core/Src/stm32f0xx_hal_msp.c **** 
  62:Core/Src/stm32f0xx_hal_msp.c **** /* USER CODE BEGIN 0 */
  63:Core/Src/stm32f0xx_hal_msp.c **** 
  64:Core/Src/stm32f0xx_hal_msp.c **** /* USER CODE END 0 */
  65:Core/Src/stm32f0xx_hal_msp.c **** /**
  66:Core/Src/stm32f0xx_hal_msp.c ****   * Initializes the Global MSP.
  67:Core/Src/stm32f0xx_hal_msp.c ****   */
  68:Core/Src/stm32f0xx_hal_msp.c **** void HAL_MspInit(void)
  69:Core/Src/stm32f0xx_hal_msp.c **** {
  27              		.loc 1 69 1
  28              		.cfi_startproc
  29              		@ args = 0, pretend = 0, frame = 8
  30              		@ frame_needed = 1, uses_anonymous_args = 0
  31 0000 80B5     		push	{r7, lr}
  32              	.LCFI0:
  33              		.cfi_def_cfa_offset 8
  34              		.cfi_offset 7, -8
  35              		.cfi_offset 14, -4
  36 0002 82B0     		sub	sp, sp, #8
  37              	.LCFI1:
  38              		.cfi_def_cfa_offset 16
  39 0004 00AF     		add	r7, sp, #0
  40              	.LCFI2:
  41              		.cfi_def_cfa_register 7
  42              	.LBB2:
  70:Core/Src/stm32f0xx_hal_msp.c ****   /* USER CODE BEGIN MspInit 0 */
  71:Core/Src/stm32f0xx_hal_msp.c **** 
  72:Core/Src/stm32f0xx_hal_msp.c ****   /* USER CODE END MspInit 0 */
  73:Core/Src/stm32f0xx_hal_msp.c **** 
ARM GAS  C:\Users\mason\AppData\Local\Temp\ccxPU8bU.s 			page 3


  74:Core/Src/stm32f0xx_hal_msp.c ****   __HAL_RCC_SYSCFG_CLK_ENABLE();
  43              		.loc 1 74 3
  44 0006 0F4B     		ldr	r3, .L2
  45 0008 9A69     		ldr	r2, [r3, #24]
  46 000a 0E4B     		ldr	r3, .L2
  47 000c 0121     		movs	r1, #1
  48 000e 0A43     		orrs	r2, r1
  49 0010 9A61     		str	r2, [r3, #24]
  50 0012 0C4B     		ldr	r3, .L2
  51 0014 9B69     		ldr	r3, [r3, #24]
  52 0016 0122     		movs	r2, #1
  53 0018 1340     		ands	r3, r2
  54 001a 7B60     		str	r3, [r7, #4]
  55 001c 7B68     		ldr	r3, [r7, #4]
  56              	.LBE2:
  57              	.LBB3:
  75:Core/Src/stm32f0xx_hal_msp.c ****   __HAL_RCC_PWR_CLK_ENABLE();
  58              		.loc 1 75 3
  59 001e 094B     		ldr	r3, .L2
  60 0020 DA69     		ldr	r2, [r3, #28]
  61 0022 084B     		ldr	r3, .L2
  62 0024 8021     		movs	r1, #128
  63 0026 4905     		lsls	r1, r1, #21
  64 0028 0A43     		orrs	r2, r1
  65 002a DA61     		str	r2, [r3, #28]
  66 002c 054B     		ldr	r3, .L2
  67 002e DA69     		ldr	r2, [r3, #28]
  68 0030 8023     		movs	r3, #128
  69 0032 5B05     		lsls	r3, r3, #21
  70 0034 1340     		ands	r3, r2
  71 0036 3B60     		str	r3, [r7]
  72 0038 3B68     		ldr	r3, [r7]
  73              	.LBE3:
  76:Core/Src/stm32f0xx_hal_msp.c **** 
  77:Core/Src/stm32f0xx_hal_msp.c ****   /* System interrupt init*/
  78:Core/Src/stm32f0xx_hal_msp.c **** 
  79:Core/Src/stm32f0xx_hal_msp.c ****   /* USER CODE BEGIN MspInit 1 */
  80:Core/Src/stm32f0xx_hal_msp.c **** 
  81:Core/Src/stm32f0xx_hal_msp.c ****   /* USER CODE END MspInit 1 */
  82:Core/Src/stm32f0xx_hal_msp.c **** }
  74              		.loc 1 82 1
  75 003a C046     		nop
  76 003c BD46     		mov	sp, r7
  77 003e 02B0     		add	sp, sp, #8
  78              		@ sp needed
  79 0040 80BD     		pop	{r7, pc}
  80              	.L3:
  81 0042 C046     		.align	2
  82              	.L2:
  83 0044 00100240 		.word	1073876992
  84              		.cfi_endproc
  85              	.LFE40:
  87              		.section	.text.HAL_ADC_MspInit,"ax",%progbits
  88              		.align	1
  89              		.global	HAL_ADC_MspInit
  90              		.syntax unified
  91              		.code	16
ARM GAS  C:\Users\mason\AppData\Local\Temp\ccxPU8bU.s 			page 4


  92              		.thumb_func
  94              	HAL_ADC_MspInit:
  95              	.LFB41:
  83:Core/Src/stm32f0xx_hal_msp.c **** 
  84:Core/Src/stm32f0xx_hal_msp.c **** /**
  85:Core/Src/stm32f0xx_hal_msp.c **** * @brief ADC MSP Initialization
  86:Core/Src/stm32f0xx_hal_msp.c **** * This function configures the hardware resources used in this example
  87:Core/Src/stm32f0xx_hal_msp.c **** * @param hadc: ADC handle pointer
  88:Core/Src/stm32f0xx_hal_msp.c **** * @retval None
  89:Core/Src/stm32f0xx_hal_msp.c **** */
  90:Core/Src/stm32f0xx_hal_msp.c **** void HAL_ADC_MspInit(ADC_HandleTypeDef* hadc)
  91:Core/Src/stm32f0xx_hal_msp.c **** {
  96              		.loc 1 91 1
  97              		.cfi_startproc
  98              		@ args = 0, pretend = 0, frame = 40
  99              		@ frame_needed = 1, uses_anonymous_args = 0
 100 0000 90B5     		push	{r4, r7, lr}
 101              	.LCFI3:
 102              		.cfi_def_cfa_offset 12
 103              		.cfi_offset 4, -12
 104              		.cfi_offset 7, -8
 105              		.cfi_offset 14, -4
 106 0002 8BB0     		sub	sp, sp, #44
 107              	.LCFI4:
 108              		.cfi_def_cfa_offset 56
 109 0004 00AF     		add	r7, sp, #0
 110              	.LCFI5:
 111              		.cfi_def_cfa_register 7
 112 0006 7860     		str	r0, [r7, #4]
  92:Core/Src/stm32f0xx_hal_msp.c ****   GPIO_InitTypeDef GPIO_InitStruct = {0};
 113              		.loc 1 92 20
 114 0008 1424     		movs	r4, #20
 115 000a 3B19     		adds	r3, r7, r4
 116 000c 1800     		movs	r0, r3
 117 000e 1423     		movs	r3, #20
 118 0010 1A00     		movs	r2, r3
 119 0012 0021     		movs	r1, #0
 120 0014 FFF7FEFF 		bl	memset
  93:Core/Src/stm32f0xx_hal_msp.c ****   if(hadc->Instance==ADC1)
 121              		.loc 1 93 10
 122 0018 7B68     		ldr	r3, [r7, #4]
 123 001a 1B68     		ldr	r3, [r3]
 124              		.loc 1 93 5
 125 001c 2D4A     		ldr	r2, .L8
 126 001e 9342     		cmp	r3, r2
 127 0020 53D1     		bne	.L7
 128              	.LBB4:
  94:Core/Src/stm32f0xx_hal_msp.c ****   {
  95:Core/Src/stm32f0xx_hal_msp.c ****   /* USER CODE BEGIN ADC1_MspInit 0 */
  96:Core/Src/stm32f0xx_hal_msp.c **** 
  97:Core/Src/stm32f0xx_hal_msp.c ****   /* USER CODE END ADC1_MspInit 0 */
  98:Core/Src/stm32f0xx_hal_msp.c ****     /* Peripheral clock enable */
  99:Core/Src/stm32f0xx_hal_msp.c ****     __HAL_RCC_ADC1_CLK_ENABLE();
 129              		.loc 1 99 5
 130 0022 2D4B     		ldr	r3, .L8+4
 131 0024 9A69     		ldr	r2, [r3, #24]
 132 0026 2C4B     		ldr	r3, .L8+4
ARM GAS  C:\Users\mason\AppData\Local\Temp\ccxPU8bU.s 			page 5


 133 0028 8021     		movs	r1, #128
 134 002a 8900     		lsls	r1, r1, #2
 135 002c 0A43     		orrs	r2, r1
 136 002e 9A61     		str	r2, [r3, #24]
 137 0030 294B     		ldr	r3, .L8+4
 138 0032 9A69     		ldr	r2, [r3, #24]
 139 0034 8023     		movs	r3, #128
 140 0036 9B00     		lsls	r3, r3, #2
 141 0038 1340     		ands	r3, r2
 142 003a 3B61     		str	r3, [r7, #16]
 143 003c 3B69     		ldr	r3, [r7, #16]
 144              	.LBE4:
 145              	.LBB5:
 100:Core/Src/stm32f0xx_hal_msp.c **** 
 101:Core/Src/stm32f0xx_hal_msp.c ****     __HAL_RCC_GPIOA_CLK_ENABLE();
 146              		.loc 1 101 5
 147 003e 264B     		ldr	r3, .L8+4
 148 0040 5A69     		ldr	r2, [r3, #20]
 149 0042 254B     		ldr	r3, .L8+4
 150 0044 8021     		movs	r1, #128
 151 0046 8902     		lsls	r1, r1, #10
 152 0048 0A43     		orrs	r2, r1
 153 004a 5A61     		str	r2, [r3, #20]
 154 004c 224B     		ldr	r3, .L8+4
 155 004e 5A69     		ldr	r2, [r3, #20]
 156 0050 8023     		movs	r3, #128
 157 0052 9B02     		lsls	r3, r3, #10
 158 0054 1340     		ands	r3, r2
 159 0056 FB60     		str	r3, [r7, #12]
 160 0058 FB68     		ldr	r3, [r7, #12]
 161              	.LBE5:
 102:Core/Src/stm32f0xx_hal_msp.c ****     /**ADC GPIO Configuration
 103:Core/Src/stm32f0xx_hal_msp.c ****     PA3     ------> ADC_IN3
 104:Core/Src/stm32f0xx_hal_msp.c ****     PA4     ------> ADC_IN4
 105:Core/Src/stm32f0xx_hal_msp.c ****     PA5     ------> ADC_IN5
 106:Core/Src/stm32f0xx_hal_msp.c ****     PA6     ------> ADC_IN6
 107:Core/Src/stm32f0xx_hal_msp.c ****     */
 108:Core/Src/stm32f0xx_hal_msp.c ****     GPIO_InitStruct.Pin = GPIO_PIN_3|GPIO_PIN_4|GPIO_PIN_5|GPIO_PIN_6;
 162              		.loc 1 108 25
 163 005a 3B19     		adds	r3, r7, r4
 164 005c 7822     		movs	r2, #120
 165 005e 1A60     		str	r2, [r3]
 109:Core/Src/stm32f0xx_hal_msp.c ****     GPIO_InitStruct.Mode = GPIO_MODE_ANALOG;
 166              		.loc 1 109 26
 167 0060 3B19     		adds	r3, r7, r4
 168 0062 0322     		movs	r2, #3
 169 0064 5A60     		str	r2, [r3, #4]
 110:Core/Src/stm32f0xx_hal_msp.c ****     GPIO_InitStruct.Pull = GPIO_NOPULL;
 170              		.loc 1 110 26
 171 0066 3B19     		adds	r3, r7, r4
 172 0068 0022     		movs	r2, #0
 173 006a 9A60     		str	r2, [r3, #8]
 111:Core/Src/stm32f0xx_hal_msp.c ****     HAL_GPIO_Init(GPIOA, &GPIO_InitStruct);
 174              		.loc 1 111 5
 175 006c 3A19     		adds	r2, r7, r4
 176 006e 9023     		movs	r3, #144
 177 0070 DB05     		lsls	r3, r3, #23
ARM GAS  C:\Users\mason\AppData\Local\Temp\ccxPU8bU.s 			page 6


 178 0072 1100     		movs	r1, r2
 179 0074 1800     		movs	r0, r3
 180 0076 FFF7FEFF 		bl	HAL_GPIO_Init
 112:Core/Src/stm32f0xx_hal_msp.c **** 
 113:Core/Src/stm32f0xx_hal_msp.c ****     /* ADC1 DMA Init */
 114:Core/Src/stm32f0xx_hal_msp.c ****     /* ADC Init */
 115:Core/Src/stm32f0xx_hal_msp.c ****     hdma_adc.Instance = DMA1_Channel1;
 181              		.loc 1 115 23
 182 007a 184B     		ldr	r3, .L8+8
 183 007c 184A     		ldr	r2, .L8+12
 184 007e 1A60     		str	r2, [r3]
 116:Core/Src/stm32f0xx_hal_msp.c ****     hdma_adc.Init.Direction = DMA_PERIPH_TO_MEMORY;
 185              		.loc 1 116 29
 186 0080 164B     		ldr	r3, .L8+8
 187 0082 0022     		movs	r2, #0
 188 0084 5A60     		str	r2, [r3, #4]
 117:Core/Src/stm32f0xx_hal_msp.c ****     hdma_adc.Init.PeriphInc = DMA_PINC_DISABLE;
 189              		.loc 1 117 29
 190 0086 154B     		ldr	r3, .L8+8
 191 0088 0022     		movs	r2, #0
 192 008a 9A60     		str	r2, [r3, #8]
 118:Core/Src/stm32f0xx_hal_msp.c ****     hdma_adc.Init.MemInc = DMA_MINC_ENABLE;
 193              		.loc 1 118 26
 194 008c 134B     		ldr	r3, .L8+8
 195 008e 8022     		movs	r2, #128
 196 0090 DA60     		str	r2, [r3, #12]
 119:Core/Src/stm32f0xx_hal_msp.c ****     hdma_adc.Init.PeriphDataAlignment = DMA_PDATAALIGN_HALFWORD;
 197              		.loc 1 119 39
 198 0092 124B     		ldr	r3, .L8+8
 199 0094 8022     		movs	r2, #128
 200 0096 5200     		lsls	r2, r2, #1
 201 0098 1A61     		str	r2, [r3, #16]
 120:Core/Src/stm32f0xx_hal_msp.c ****     hdma_adc.Init.MemDataAlignment = DMA_MDATAALIGN_HALFWORD;
 202              		.loc 1 120 36
 203 009a 104B     		ldr	r3, .L8+8
 204 009c 8022     		movs	r2, #128
 205 009e D200     		lsls	r2, r2, #3
 206 00a0 5A61     		str	r2, [r3, #20]
 121:Core/Src/stm32f0xx_hal_msp.c ****     hdma_adc.Init.Mode = DMA_CIRCULAR;
 207              		.loc 1 121 24
 208 00a2 0E4B     		ldr	r3, .L8+8
 209 00a4 2022     		movs	r2, #32
 210 00a6 9A61     		str	r2, [r3, #24]
 122:Core/Src/stm32f0xx_hal_msp.c ****     hdma_adc.Init.Priority = DMA_PRIORITY_LOW;
 211              		.loc 1 122 28
 212 00a8 0C4B     		ldr	r3, .L8+8
 213 00aa 0022     		movs	r2, #0
 214 00ac DA61     		str	r2, [r3, #28]
 123:Core/Src/stm32f0xx_hal_msp.c ****     if (HAL_DMA_Init(&hdma_adc) != HAL_OK)
 215              		.loc 1 123 9
 216 00ae 0B4B     		ldr	r3, .L8+8
 217 00b0 1800     		movs	r0, r3
 218 00b2 FFF7FEFF 		bl	HAL_DMA_Init
 219 00b6 031E     		subs	r3, r0, #0
 220              		.loc 1 123 8
 221 00b8 01D0     		beq	.L6
 124:Core/Src/stm32f0xx_hal_msp.c ****     {
ARM GAS  C:\Users\mason\AppData\Local\Temp\ccxPU8bU.s 			page 7


 125:Core/Src/stm32f0xx_hal_msp.c ****       Error_Handler();
 222              		.loc 1 125 7
 223 00ba FFF7FEFF 		bl	Error_Handler
 224              	.L6:
 126:Core/Src/stm32f0xx_hal_msp.c ****     }
 127:Core/Src/stm32f0xx_hal_msp.c **** 
 128:Core/Src/stm32f0xx_hal_msp.c ****     __HAL_LINKDMA(hadc,DMA_Handle,hdma_adc);
 225              		.loc 1 128 5
 226 00be 7B68     		ldr	r3, [r7, #4]
 227 00c0 064A     		ldr	r2, .L8+8
 228 00c2 1A63     		str	r2, [r3, #48]
 229 00c4 054B     		ldr	r3, .L8+8
 230 00c6 7A68     		ldr	r2, [r7, #4]
 231 00c8 5A62     		str	r2, [r3, #36]
 232              	.L7:
 129:Core/Src/stm32f0xx_hal_msp.c **** 
 130:Core/Src/stm32f0xx_hal_msp.c ****   /* USER CODE BEGIN ADC1_MspInit 1 */
 131:Core/Src/stm32f0xx_hal_msp.c **** 
 132:Core/Src/stm32f0xx_hal_msp.c ****   /* USER CODE END ADC1_MspInit 1 */
 133:Core/Src/stm32f0xx_hal_msp.c ****   }
 134:Core/Src/stm32f0xx_hal_msp.c **** 
 135:Core/Src/stm32f0xx_hal_msp.c **** }
 233              		.loc 1 135 1
 234 00ca C046     		nop
 235 00cc BD46     		mov	sp, r7
 236 00ce 0BB0     		add	sp, sp, #44
 237              		@ sp needed
 238 00d0 90BD     		pop	{r4, r7, pc}
 239              	.L9:
 240 00d2 C046     		.align	2
 241              	.L8:
 242 00d4 00240140 		.word	1073816576
 243 00d8 00100240 		.word	1073876992
 244 00dc 00000000 		.word	hdma_adc
 245 00e0 08000240 		.word	1073872904
 246              		.cfi_endproc
 247              	.LFE41:
 249              		.section	.text.HAL_ADC_MspDeInit,"ax",%progbits
 250              		.align	1
 251              		.global	HAL_ADC_MspDeInit
 252              		.syntax unified
 253              		.code	16
 254              		.thumb_func
 256              	HAL_ADC_MspDeInit:
 257              	.LFB42:
 136:Core/Src/stm32f0xx_hal_msp.c **** 
 137:Core/Src/stm32f0xx_hal_msp.c **** /**
 138:Core/Src/stm32f0xx_hal_msp.c **** * @brief ADC MSP De-Initialization
 139:Core/Src/stm32f0xx_hal_msp.c **** * This function freeze the hardware resources used in this example
 140:Core/Src/stm32f0xx_hal_msp.c **** * @param hadc: ADC handle pointer
 141:Core/Src/stm32f0xx_hal_msp.c **** * @retval None
 142:Core/Src/stm32f0xx_hal_msp.c **** */
 143:Core/Src/stm32f0xx_hal_msp.c **** void HAL_ADC_MspDeInit(ADC_HandleTypeDef* hadc)
 144:Core/Src/stm32f0xx_hal_msp.c **** {
 258              		.loc 1 144 1
 259              		.cfi_startproc
 260              		@ args = 0, pretend = 0, frame = 8
ARM GAS  C:\Users\mason\AppData\Local\Temp\ccxPU8bU.s 			page 8


 261              		@ frame_needed = 1, uses_anonymous_args = 0
 262 0000 80B5     		push	{r7, lr}
 263              	.LCFI6:
 264              		.cfi_def_cfa_offset 8
 265              		.cfi_offset 7, -8
 266              		.cfi_offset 14, -4
 267 0002 82B0     		sub	sp, sp, #8
 268              	.LCFI7:
 269              		.cfi_def_cfa_offset 16
 270 0004 00AF     		add	r7, sp, #0
 271              	.LCFI8:
 272              		.cfi_def_cfa_register 7
 273 0006 7860     		str	r0, [r7, #4]
 145:Core/Src/stm32f0xx_hal_msp.c ****   if(hadc->Instance==ADC1)
 274              		.loc 1 145 10
 275 0008 7B68     		ldr	r3, [r7, #4]
 276 000a 1B68     		ldr	r3, [r3]
 277              		.loc 1 145 5
 278 000c 0B4A     		ldr	r2, .L13
 279 000e 9342     		cmp	r3, r2
 280 0010 10D1     		bne	.L12
 146:Core/Src/stm32f0xx_hal_msp.c ****   {
 147:Core/Src/stm32f0xx_hal_msp.c ****   /* USER CODE BEGIN ADC1_MspDeInit 0 */
 148:Core/Src/stm32f0xx_hal_msp.c **** 
 149:Core/Src/stm32f0xx_hal_msp.c ****   /* USER CODE END ADC1_MspDeInit 0 */
 150:Core/Src/stm32f0xx_hal_msp.c ****     /* Peripheral clock disable */
 151:Core/Src/stm32f0xx_hal_msp.c ****     __HAL_RCC_ADC1_CLK_DISABLE();
 281              		.loc 1 151 5
 282 0012 0B4B     		ldr	r3, .L13+4
 283 0014 9A69     		ldr	r2, [r3, #24]
 284 0016 0A4B     		ldr	r3, .L13+4
 285 0018 0A49     		ldr	r1, .L13+8
 286 001a 0A40     		ands	r2, r1
 287 001c 9A61     		str	r2, [r3, #24]
 152:Core/Src/stm32f0xx_hal_msp.c **** 
 153:Core/Src/stm32f0xx_hal_msp.c ****     /**ADC GPIO Configuration
 154:Core/Src/stm32f0xx_hal_msp.c ****     PA3     ------> ADC_IN3
 155:Core/Src/stm32f0xx_hal_msp.c ****     PA4     ------> ADC_IN4
 156:Core/Src/stm32f0xx_hal_msp.c ****     PA5     ------> ADC_IN5
 157:Core/Src/stm32f0xx_hal_msp.c ****     PA6     ------> ADC_IN6
 158:Core/Src/stm32f0xx_hal_msp.c ****     */
 159:Core/Src/stm32f0xx_hal_msp.c ****     HAL_GPIO_DeInit(GPIOA, GPIO_PIN_3|GPIO_PIN_4|GPIO_PIN_5|GPIO_PIN_6);
 288              		.loc 1 159 5
 289 001e 9023     		movs	r3, #144
 290 0020 DB05     		lsls	r3, r3, #23
 291 0022 7821     		movs	r1, #120
 292 0024 1800     		movs	r0, r3
 293 0026 FFF7FEFF 		bl	HAL_GPIO_DeInit
 160:Core/Src/stm32f0xx_hal_msp.c **** 
 161:Core/Src/stm32f0xx_hal_msp.c ****     /* ADC1 DMA DeInit */
 162:Core/Src/stm32f0xx_hal_msp.c ****     HAL_DMA_DeInit(hadc->DMA_Handle);
 294              		.loc 1 162 5
 295 002a 7B68     		ldr	r3, [r7, #4]
 296 002c 1B6B     		ldr	r3, [r3, #48]
 297 002e 1800     		movs	r0, r3
 298 0030 FFF7FEFF 		bl	HAL_DMA_DeInit
 299              	.L12:
ARM GAS  C:\Users\mason\AppData\Local\Temp\ccxPU8bU.s 			page 9


 163:Core/Src/stm32f0xx_hal_msp.c ****   /* USER CODE BEGIN ADC1_MspDeInit 1 */
 164:Core/Src/stm32f0xx_hal_msp.c **** 
 165:Core/Src/stm32f0xx_hal_msp.c ****   /* USER CODE END ADC1_MspDeInit 1 */
 166:Core/Src/stm32f0xx_hal_msp.c ****   }
 167:Core/Src/stm32f0xx_hal_msp.c **** 
 168:Core/Src/stm32f0xx_hal_msp.c **** }
 300              		.loc 1 168 1
 301 0034 C046     		nop
 302 0036 BD46     		mov	sp, r7
 303 0038 02B0     		add	sp, sp, #8
 304              		@ sp needed
 305 003a 80BD     		pop	{r7, pc}
 306              	.L14:
 307              		.align	2
 308              	.L13:
 309 003c 00240140 		.word	1073816576
 310 0040 00100240 		.word	1073876992
 311 0044 FFFDFFFF 		.word	-513
 312              		.cfi_endproc
 313              	.LFE42:
 315              		.section	.text.HAL_UART_MspInit,"ax",%progbits
 316              		.align	1
 317              		.global	HAL_UART_MspInit
 318              		.syntax unified
 319              		.code	16
 320              		.thumb_func
 322              	HAL_UART_MspInit:
 323              	.LFB43:
 169:Core/Src/stm32f0xx_hal_msp.c **** 
 170:Core/Src/stm32f0xx_hal_msp.c **** /**
 171:Core/Src/stm32f0xx_hal_msp.c **** * @brief UART MSP Initialization
 172:Core/Src/stm32f0xx_hal_msp.c **** * This function configures the hardware resources used in this example
 173:Core/Src/stm32f0xx_hal_msp.c **** * @param huart: UART handle pointer
 174:Core/Src/stm32f0xx_hal_msp.c **** * @retval None
 175:Core/Src/stm32f0xx_hal_msp.c **** */
 176:Core/Src/stm32f0xx_hal_msp.c **** void HAL_UART_MspInit(UART_HandleTypeDef* huart)
 177:Core/Src/stm32f0xx_hal_msp.c **** {
 324              		.loc 1 177 1
 325              		.cfi_startproc
 326              		@ args = 0, pretend = 0, frame = 40
 327              		@ frame_needed = 1, uses_anonymous_args = 0
 328 0000 90B5     		push	{r4, r7, lr}
 329              	.LCFI9:
 330              		.cfi_def_cfa_offset 12
 331              		.cfi_offset 4, -12
 332              		.cfi_offset 7, -8
 333              		.cfi_offset 14, -4
 334 0002 8BB0     		sub	sp, sp, #44
 335              	.LCFI10:
 336              		.cfi_def_cfa_offset 56
 337 0004 00AF     		add	r7, sp, #0
 338              	.LCFI11:
 339              		.cfi_def_cfa_register 7
 340 0006 7860     		str	r0, [r7, #4]
 178:Core/Src/stm32f0xx_hal_msp.c ****   GPIO_InitTypeDef GPIO_InitStruct = {0};
 341              		.loc 1 178 20
 342 0008 1424     		movs	r4, #20
ARM GAS  C:\Users\mason\AppData\Local\Temp\ccxPU8bU.s 			page 10


 343 000a 3B19     		adds	r3, r7, r4
 344 000c 1800     		movs	r0, r3
 345 000e 1423     		movs	r3, #20
 346 0010 1A00     		movs	r2, r3
 347 0012 0021     		movs	r1, #0
 348 0014 FFF7FEFF 		bl	memset
 179:Core/Src/stm32f0xx_hal_msp.c ****   if(huart->Instance==USART1)
 349              		.loc 1 179 11
 350 0018 7B68     		ldr	r3, [r7, #4]
 351 001a 1B68     		ldr	r3, [r3]
 352              		.loc 1 179 5
 353 001c 434A     		ldr	r2, .L20
 354 001e 9342     		cmp	r3, r2
 355 0020 00D0     		beq	.LCB289
 356 0022 7FE0     		b	.L19	@long jump
 357              	.LCB289:
 358              	.LBB6:
 180:Core/Src/stm32f0xx_hal_msp.c ****   {
 181:Core/Src/stm32f0xx_hal_msp.c ****   /* USER CODE BEGIN USART1_MspInit 0 */
 182:Core/Src/stm32f0xx_hal_msp.c **** 
 183:Core/Src/stm32f0xx_hal_msp.c ****   /* USER CODE END USART1_MspInit 0 */
 184:Core/Src/stm32f0xx_hal_msp.c ****     /* Peripheral clock enable */
 185:Core/Src/stm32f0xx_hal_msp.c ****     __HAL_RCC_USART1_CLK_ENABLE();
 359              		.loc 1 185 5
 360 0024 424B     		ldr	r3, .L20+4
 361 0026 9A69     		ldr	r2, [r3, #24]
 362 0028 414B     		ldr	r3, .L20+4
 363 002a 8021     		movs	r1, #128
 364 002c C901     		lsls	r1, r1, #7
 365 002e 0A43     		orrs	r2, r1
 366 0030 9A61     		str	r2, [r3, #24]
 367 0032 3F4B     		ldr	r3, .L20+4
 368 0034 9A69     		ldr	r2, [r3, #24]
 369 0036 8023     		movs	r3, #128
 370 0038 DB01     		lsls	r3, r3, #7
 371 003a 1340     		ands	r3, r2
 372 003c 3B61     		str	r3, [r7, #16]
 373 003e 3B69     		ldr	r3, [r7, #16]
 374              	.LBE6:
 375              	.LBB7:
 186:Core/Src/stm32f0xx_hal_msp.c **** 
 187:Core/Src/stm32f0xx_hal_msp.c ****     __HAL_RCC_GPIOA_CLK_ENABLE();
 376              		.loc 1 187 5
 377 0040 3B4B     		ldr	r3, .L20+4
 378 0042 5A69     		ldr	r2, [r3, #20]
 379 0044 3A4B     		ldr	r3, .L20+4
 380 0046 8021     		movs	r1, #128
 381 0048 8902     		lsls	r1, r1, #10
 382 004a 0A43     		orrs	r2, r1
 383 004c 5A61     		str	r2, [r3, #20]
 384 004e 384B     		ldr	r3, .L20+4
 385 0050 5A69     		ldr	r2, [r3, #20]
 386 0052 8023     		movs	r3, #128
 387 0054 9B02     		lsls	r3, r3, #10
 388 0056 1340     		ands	r3, r2
 389 0058 FB60     		str	r3, [r7, #12]
 390 005a FB68     		ldr	r3, [r7, #12]
ARM GAS  C:\Users\mason\AppData\Local\Temp\ccxPU8bU.s 			page 11


 391              	.LBE7:
 188:Core/Src/stm32f0xx_hal_msp.c ****     /**USART1 GPIO Configuration
 189:Core/Src/stm32f0xx_hal_msp.c ****     PA9     ------> USART1_TX
 190:Core/Src/stm32f0xx_hal_msp.c ****     PA10     ------> USART1_RX
 191:Core/Src/stm32f0xx_hal_msp.c ****     */
 192:Core/Src/stm32f0xx_hal_msp.c ****     GPIO_InitStruct.Pin = GPIO_PIN_9|GPIO_PIN_10;
 392              		.loc 1 192 25
 393 005c 3B19     		adds	r3, r7, r4
 394 005e C022     		movs	r2, #192
 395 0060 D200     		lsls	r2, r2, #3
 396 0062 1A60     		str	r2, [r3]
 193:Core/Src/stm32f0xx_hal_msp.c ****     GPIO_InitStruct.Mode = GPIO_MODE_AF_PP;
 397              		.loc 1 193 26
 398 0064 2100     		movs	r1, r4
 399 0066 7B18     		adds	r3, r7, r1
 400 0068 0222     		movs	r2, #2
 401 006a 5A60     		str	r2, [r3, #4]
 194:Core/Src/stm32f0xx_hal_msp.c ****     GPIO_InitStruct.Pull = GPIO_NOPULL;
 402              		.loc 1 194 26
 403 006c 7B18     		adds	r3, r7, r1
 404 006e 0022     		movs	r2, #0
 405 0070 9A60     		str	r2, [r3, #8]
 195:Core/Src/stm32f0xx_hal_msp.c ****     GPIO_InitStruct.Speed = GPIO_SPEED_FREQ_HIGH;
 406              		.loc 1 195 27
 407 0072 7B18     		adds	r3, r7, r1
 408 0074 0322     		movs	r2, #3
 409 0076 DA60     		str	r2, [r3, #12]
 196:Core/Src/stm32f0xx_hal_msp.c ****     GPIO_InitStruct.Alternate = GPIO_AF1_USART1;
 410              		.loc 1 196 31
 411 0078 7B18     		adds	r3, r7, r1
 412 007a 0122     		movs	r2, #1
 413 007c 1A61     		str	r2, [r3, #16]
 197:Core/Src/stm32f0xx_hal_msp.c ****     HAL_GPIO_Init(GPIOA, &GPIO_InitStruct);
 414              		.loc 1 197 5
 415 007e 7A18     		adds	r2, r7, r1
 416 0080 9023     		movs	r3, #144
 417 0082 DB05     		lsls	r3, r3, #23
 418 0084 1100     		movs	r1, r2
 419 0086 1800     		movs	r0, r3
 420 0088 FFF7FEFF 		bl	HAL_GPIO_Init
 198:Core/Src/stm32f0xx_hal_msp.c **** 
 199:Core/Src/stm32f0xx_hal_msp.c ****     /* USART1 DMA Init */
 200:Core/Src/stm32f0xx_hal_msp.c ****     /* USART1_RX Init */
 201:Core/Src/stm32f0xx_hal_msp.c ****     hdma_usart1_rx.Instance = DMA1_Channel3;
 421              		.loc 1 201 29
 422 008c 294B     		ldr	r3, .L20+8
 423 008e 2A4A     		ldr	r2, .L20+12
 424 0090 1A60     		str	r2, [r3]
 202:Core/Src/stm32f0xx_hal_msp.c ****     hdma_usart1_rx.Init.Direction = DMA_PERIPH_TO_MEMORY;
 425              		.loc 1 202 35
 426 0092 284B     		ldr	r3, .L20+8
 427 0094 0022     		movs	r2, #0
 428 0096 5A60     		str	r2, [r3, #4]
 203:Core/Src/stm32f0xx_hal_msp.c ****     hdma_usart1_rx.Init.PeriphInc = DMA_PINC_DISABLE;
 429              		.loc 1 203 35
 430 0098 264B     		ldr	r3, .L20+8
 431 009a 0022     		movs	r2, #0
ARM GAS  C:\Users\mason\AppData\Local\Temp\ccxPU8bU.s 			page 12


 432 009c 9A60     		str	r2, [r3, #8]
 204:Core/Src/stm32f0xx_hal_msp.c ****     hdma_usart1_rx.Init.MemInc = DMA_MINC_ENABLE;
 433              		.loc 1 204 32
 434 009e 254B     		ldr	r3, .L20+8
 435 00a0 8022     		movs	r2, #128
 436 00a2 DA60     		str	r2, [r3, #12]
 205:Core/Src/stm32f0xx_hal_msp.c ****     hdma_usart1_rx.Init.PeriphDataAlignment = DMA_PDATAALIGN_BYTE;
 437              		.loc 1 205 45
 438 00a4 234B     		ldr	r3, .L20+8
 439 00a6 0022     		movs	r2, #0
 440 00a8 1A61     		str	r2, [r3, #16]
 206:Core/Src/stm32f0xx_hal_msp.c ****     hdma_usart1_rx.Init.MemDataAlignment = DMA_MDATAALIGN_BYTE;
 441              		.loc 1 206 42
 442 00aa 224B     		ldr	r3, .L20+8
 443 00ac 0022     		movs	r2, #0
 444 00ae 5A61     		str	r2, [r3, #20]
 207:Core/Src/stm32f0xx_hal_msp.c ****     hdma_usart1_rx.Init.Mode = DMA_NORMAL;
 445              		.loc 1 207 30
 446 00b0 204B     		ldr	r3, .L20+8
 447 00b2 0022     		movs	r2, #0
 448 00b4 9A61     		str	r2, [r3, #24]
 208:Core/Src/stm32f0xx_hal_msp.c ****     hdma_usart1_rx.Init.Priority = DMA_PRIORITY_LOW;
 449              		.loc 1 208 34
 450 00b6 1F4B     		ldr	r3, .L20+8
 451 00b8 0022     		movs	r2, #0
 452 00ba DA61     		str	r2, [r3, #28]
 209:Core/Src/stm32f0xx_hal_msp.c ****     if (HAL_DMA_Init(&hdma_usart1_rx) != HAL_OK)
 453              		.loc 1 209 9
 454 00bc 1D4B     		ldr	r3, .L20+8
 455 00be 1800     		movs	r0, r3
 456 00c0 FFF7FEFF 		bl	HAL_DMA_Init
 457 00c4 031E     		subs	r3, r0, #0
 458              		.loc 1 209 8
 459 00c6 01D0     		beq	.L17
 210:Core/Src/stm32f0xx_hal_msp.c ****     {
 211:Core/Src/stm32f0xx_hal_msp.c ****       Error_Handler();
 460              		.loc 1 211 7
 461 00c8 FFF7FEFF 		bl	Error_Handler
 462              	.L17:
 212:Core/Src/stm32f0xx_hal_msp.c ****     }
 213:Core/Src/stm32f0xx_hal_msp.c **** 
 214:Core/Src/stm32f0xx_hal_msp.c ****     __HAL_LINKDMA(huart,hdmarx,hdma_usart1_rx);
 463              		.loc 1 214 5
 464 00cc 7B68     		ldr	r3, [r7, #4]
 465 00ce 194A     		ldr	r2, .L20+8
 466 00d0 5A67     		str	r2, [r3, #116]
 467 00d2 184B     		ldr	r3, .L20+8
 468 00d4 7A68     		ldr	r2, [r7, #4]
 469 00d6 5A62     		str	r2, [r3, #36]
 215:Core/Src/stm32f0xx_hal_msp.c **** 
 216:Core/Src/stm32f0xx_hal_msp.c ****     /* USART1_TX Init */
 217:Core/Src/stm32f0xx_hal_msp.c ****     hdma_usart1_tx.Instance = DMA1_Channel2;
 470              		.loc 1 217 29
 471 00d8 184B     		ldr	r3, .L20+16
 472 00da 194A     		ldr	r2, .L20+20
 473 00dc 1A60     		str	r2, [r3]
 218:Core/Src/stm32f0xx_hal_msp.c ****     hdma_usart1_tx.Init.Direction = DMA_MEMORY_TO_PERIPH;
ARM GAS  C:\Users\mason\AppData\Local\Temp\ccxPU8bU.s 			page 13


 474              		.loc 1 218 35
 475 00de 174B     		ldr	r3, .L20+16
 476 00e0 1022     		movs	r2, #16
 477 00e2 5A60     		str	r2, [r3, #4]
 219:Core/Src/stm32f0xx_hal_msp.c ****     hdma_usart1_tx.Init.PeriphInc = DMA_PINC_DISABLE;
 478              		.loc 1 219 35
 479 00e4 154B     		ldr	r3, .L20+16
 480 00e6 0022     		movs	r2, #0
 481 00e8 9A60     		str	r2, [r3, #8]
 220:Core/Src/stm32f0xx_hal_msp.c ****     hdma_usart1_tx.Init.MemInc = DMA_MINC_ENABLE;
 482              		.loc 1 220 32
 483 00ea 144B     		ldr	r3, .L20+16
 484 00ec 8022     		movs	r2, #128
 485 00ee DA60     		str	r2, [r3, #12]
 221:Core/Src/stm32f0xx_hal_msp.c ****     hdma_usart1_tx.Init.PeriphDataAlignment = DMA_PDATAALIGN_BYTE;
 486              		.loc 1 221 45
 487 00f0 124B     		ldr	r3, .L20+16
 488 00f2 0022     		movs	r2, #0
 489 00f4 1A61     		str	r2, [r3, #16]
 222:Core/Src/stm32f0xx_hal_msp.c ****     hdma_usart1_tx.Init.MemDataAlignment = DMA_MDATAALIGN_BYTE;
 490              		.loc 1 222 42
 491 00f6 114B     		ldr	r3, .L20+16
 492 00f8 0022     		movs	r2, #0
 493 00fa 5A61     		str	r2, [r3, #20]
 223:Core/Src/stm32f0xx_hal_msp.c ****     hdma_usart1_tx.Init.Mode = DMA_NORMAL;
 494              		.loc 1 223 30
 495 00fc 0F4B     		ldr	r3, .L20+16
 496 00fe 0022     		movs	r2, #0
 497 0100 9A61     		str	r2, [r3, #24]
 224:Core/Src/stm32f0xx_hal_msp.c ****     hdma_usart1_tx.Init.Priority = DMA_PRIORITY_LOW;
 498              		.loc 1 224 34
 499 0102 0E4B     		ldr	r3, .L20+16
 500 0104 0022     		movs	r2, #0
 501 0106 DA61     		str	r2, [r3, #28]
 225:Core/Src/stm32f0xx_hal_msp.c ****     if (HAL_DMA_Init(&hdma_usart1_tx) != HAL_OK)
 502              		.loc 1 225 9
 503 0108 0C4B     		ldr	r3, .L20+16
 504 010a 1800     		movs	r0, r3
 505 010c FFF7FEFF 		bl	HAL_DMA_Init
 506 0110 031E     		subs	r3, r0, #0
 507              		.loc 1 225 8
 508 0112 01D0     		beq	.L18
 226:Core/Src/stm32f0xx_hal_msp.c ****     {
 227:Core/Src/stm32f0xx_hal_msp.c ****       Error_Handler();
 509              		.loc 1 227 7
 510 0114 FFF7FEFF 		bl	Error_Handler
 511              	.L18:
 228:Core/Src/stm32f0xx_hal_msp.c ****     }
 229:Core/Src/stm32f0xx_hal_msp.c **** 
 230:Core/Src/stm32f0xx_hal_msp.c ****     __HAL_LINKDMA(huart,hdmatx,hdma_usart1_tx);
 512              		.loc 1 230 5
 513 0118 7B68     		ldr	r3, [r7, #4]
 514 011a 084A     		ldr	r2, .L20+16
 515 011c 1A67     		str	r2, [r3, #112]
 516 011e 074B     		ldr	r3, .L20+16
 517 0120 7A68     		ldr	r2, [r7, #4]
 518 0122 5A62     		str	r2, [r3, #36]
ARM GAS  C:\Users\mason\AppData\Local\Temp\ccxPU8bU.s 			page 14


 519              	.L19:
 231:Core/Src/stm32f0xx_hal_msp.c **** 
 232:Core/Src/stm32f0xx_hal_msp.c ****   /* USER CODE BEGIN USART1_MspInit 1 */
 233:Core/Src/stm32f0xx_hal_msp.c **** 
 234:Core/Src/stm32f0xx_hal_msp.c ****   /* USER CODE END USART1_MspInit 1 */
 235:Core/Src/stm32f0xx_hal_msp.c ****   }
 236:Core/Src/stm32f0xx_hal_msp.c **** 
 237:Core/Src/stm32f0xx_hal_msp.c **** }
 520              		.loc 1 237 1
 521 0124 C046     		nop
 522 0126 BD46     		mov	sp, r7
 523 0128 0BB0     		add	sp, sp, #44
 524              		@ sp needed
 525 012a 90BD     		pop	{r4, r7, pc}
 526              	.L21:
 527              		.align	2
 528              	.L20:
 529 012c 00380140 		.word	1073821696
 530 0130 00100240 		.word	1073876992
 531 0134 00000000 		.word	hdma_usart1_rx
 532 0138 30000240 		.word	1073872944
 533 013c 00000000 		.word	hdma_usart1_tx
 534 0140 1C000240 		.word	1073872924
 535              		.cfi_endproc
 536              	.LFE43:
 538              		.section	.text.HAL_UART_MspDeInit,"ax",%progbits
 539              		.align	1
 540              		.global	HAL_UART_MspDeInit
 541              		.syntax unified
 542              		.code	16
 543              		.thumb_func
 545              	HAL_UART_MspDeInit:
 546              	.LFB44:
 238:Core/Src/stm32f0xx_hal_msp.c **** 
 239:Core/Src/stm32f0xx_hal_msp.c **** /**
 240:Core/Src/stm32f0xx_hal_msp.c **** * @brief UART MSP De-Initialization
 241:Core/Src/stm32f0xx_hal_msp.c **** * This function freeze the hardware resources used in this example
 242:Core/Src/stm32f0xx_hal_msp.c **** * @param huart: UART handle pointer
 243:Core/Src/stm32f0xx_hal_msp.c **** * @retval None
 244:Core/Src/stm32f0xx_hal_msp.c **** */
 245:Core/Src/stm32f0xx_hal_msp.c **** void HAL_UART_MspDeInit(UART_HandleTypeDef* huart)
 246:Core/Src/stm32f0xx_hal_msp.c **** {
 547              		.loc 1 246 1
 548              		.cfi_startproc
 549              		@ args = 0, pretend = 0, frame = 8
 550              		@ frame_needed = 1, uses_anonymous_args = 0
 551 0000 80B5     		push	{r7, lr}
 552              	.LCFI12:
 553              		.cfi_def_cfa_offset 8
 554              		.cfi_offset 7, -8
 555              		.cfi_offset 14, -4
 556 0002 82B0     		sub	sp, sp, #8
 557              	.LCFI13:
 558              		.cfi_def_cfa_offset 16
 559 0004 00AF     		add	r7, sp, #0
 560              	.LCFI14:
 561              		.cfi_def_cfa_register 7
ARM GAS  C:\Users\mason\AppData\Local\Temp\ccxPU8bU.s 			page 15


 562 0006 7860     		str	r0, [r7, #4]
 247:Core/Src/stm32f0xx_hal_msp.c ****   if(huart->Instance==USART1)
 563              		.loc 1 247 11
 564 0008 7B68     		ldr	r3, [r7, #4]
 565 000a 1B68     		ldr	r3, [r3]
 566              		.loc 1 247 5
 567 000c 0F4A     		ldr	r2, .L25
 568 000e 9342     		cmp	r3, r2
 569 0010 17D1     		bne	.L24
 248:Core/Src/stm32f0xx_hal_msp.c ****   {
 249:Core/Src/stm32f0xx_hal_msp.c ****   /* USER CODE BEGIN USART1_MspDeInit 0 */
 250:Core/Src/stm32f0xx_hal_msp.c **** 
 251:Core/Src/stm32f0xx_hal_msp.c ****   /* USER CODE END USART1_MspDeInit 0 */
 252:Core/Src/stm32f0xx_hal_msp.c ****     /* Peripheral clock disable */
 253:Core/Src/stm32f0xx_hal_msp.c ****     __HAL_RCC_USART1_CLK_DISABLE();
 570              		.loc 1 253 5
 571 0012 0F4B     		ldr	r3, .L25+4
 572 0014 9A69     		ldr	r2, [r3, #24]
 573 0016 0E4B     		ldr	r3, .L25+4
 574 0018 0E49     		ldr	r1, .L25+8
 575 001a 0A40     		ands	r2, r1
 576 001c 9A61     		str	r2, [r3, #24]
 254:Core/Src/stm32f0xx_hal_msp.c **** 
 255:Core/Src/stm32f0xx_hal_msp.c ****     /**USART1 GPIO Configuration
 256:Core/Src/stm32f0xx_hal_msp.c ****     PA9     ------> USART1_TX
 257:Core/Src/stm32f0xx_hal_msp.c ****     PA10     ------> USART1_RX
 258:Core/Src/stm32f0xx_hal_msp.c ****     */
 259:Core/Src/stm32f0xx_hal_msp.c ****     HAL_GPIO_DeInit(GPIOA, GPIO_PIN_9|GPIO_PIN_10);
 577              		.loc 1 259 5
 578 001e C023     		movs	r3, #192
 579 0020 DA00     		lsls	r2, r3, #3
 580 0022 9023     		movs	r3, #144
 581 0024 DB05     		lsls	r3, r3, #23
 582 0026 1100     		movs	r1, r2
 583 0028 1800     		movs	r0, r3
 584 002a FFF7FEFF 		bl	HAL_GPIO_DeInit
 260:Core/Src/stm32f0xx_hal_msp.c **** 
 261:Core/Src/stm32f0xx_hal_msp.c ****     /* USART1 DMA DeInit */
 262:Core/Src/stm32f0xx_hal_msp.c ****     HAL_DMA_DeInit(huart->hdmarx);
 585              		.loc 1 262 5
 586 002e 7B68     		ldr	r3, [r7, #4]
 587 0030 5B6F     		ldr	r3, [r3, #116]
 588 0032 1800     		movs	r0, r3
 589 0034 FFF7FEFF 		bl	HAL_DMA_DeInit
 263:Core/Src/stm32f0xx_hal_msp.c ****     HAL_DMA_DeInit(huart->hdmatx);
 590              		.loc 1 263 5
 591 0038 7B68     		ldr	r3, [r7, #4]
 592 003a 1B6F     		ldr	r3, [r3, #112]
 593 003c 1800     		movs	r0, r3
 594 003e FFF7FEFF 		bl	HAL_DMA_DeInit
 595              	.L24:
 264:Core/Src/stm32f0xx_hal_msp.c ****   /* USER CODE BEGIN USART1_MspDeInit 1 */
 265:Core/Src/stm32f0xx_hal_msp.c **** 
 266:Core/Src/stm32f0xx_hal_msp.c ****   /* USER CODE END USART1_MspDeInit 1 */
 267:Core/Src/stm32f0xx_hal_msp.c ****   }
 268:Core/Src/stm32f0xx_hal_msp.c **** 
 269:Core/Src/stm32f0xx_hal_msp.c **** }
ARM GAS  C:\Users\mason\AppData\Local\Temp\ccxPU8bU.s 			page 16


 596              		.loc 1 269 1
 597 0042 C046     		nop
 598 0044 BD46     		mov	sp, r7
 599 0046 02B0     		add	sp, sp, #8
 600              		@ sp needed
 601 0048 80BD     		pop	{r7, pc}
 602              	.L26:
 603 004a C046     		.align	2
 604              	.L25:
 605 004c 00380140 		.word	1073821696
 606 0050 00100240 		.word	1073876992
 607 0054 FFBFFFFF 		.word	-16385
 608              		.cfi_endproc
 609              	.LFE44:
 611              		.text
 612              	.Letext0:
 613              		.file 2 "c:\\program files (x86)\\openocdarmgccbuildtools\\gcc-arm-none-eabi-10.3-2021.10-win32\\a
 614              		.file 3 "c:\\program files (x86)\\openocdarmgccbuildtools\\gcc-arm-none-eabi-10.3-2021.10-win32\\a
 615              		.file 4 "Drivers/CMSIS/Device/ST/STM32F0xx/Include/stm32f031x6.h"
 616              		.file 5 "Drivers/CMSIS/Device/ST/STM32F0xx/Include/stm32f0xx.h"
 617              		.file 6 "Drivers/STM32F0xx_HAL_Driver/Inc/stm32f0xx_hal_def.h"
 618              		.file 7 "Drivers/STM32F0xx_HAL_Driver/Inc/stm32f0xx_hal_gpio.h"
 619              		.file 8 "Drivers/STM32F0xx_HAL_Driver/Inc/stm32f0xx_hal_dma.h"
 620              		.file 9 "Drivers/STM32F0xx_HAL_Driver/Inc/stm32f0xx_hal_adc.h"
 621              		.file 10 "Drivers/STM32F0xx_HAL_Driver/Inc/stm32f0xx_hal_uart.h"
ARM GAS  C:\Users\mason\AppData\Local\Temp\ccxPU8bU.s 			page 17

