ARM GAS  C:\Users\mason\AppData\Local\Temp\cc7kQsjS.s 			page 1


   1              		.cpu cortex-m0
   2              		.arch armv6s-m
   3              		.fpu softvfp
   4              		.eabi_attribute 20, 1
   5              		.eabi_attribute 21, 1
   6              		.eabi_attribute 23, 3
   7              		.eabi_attribute 24, 1
   8              		.eabi_attribute 25, 1
   9              		.eabi_attribute 26, 1
  10              		.eabi_attribute 30, 6
  11              		.eabi_attribute 34, 0
  12              		.eabi_attribute 18, 4
  13              		.file	"stm32f0xx_hal_exti.c"
  14              		.text
  15              	.Ltext0:
  16              		.cfi_sections	.debug_frame
  17              		.section	.text.HAL_EXTI_SetConfigLine,"ax",%progbits
  18              		.align	1
  19              		.global	HAL_EXTI_SetConfigLine
  20              		.syntax unified
  21              		.code	16
  22              		.thumb_func
  24              	HAL_EXTI_SetConfigLine:
  25              	.LFB40:
  26              		.file 1 "Drivers/STM32F0xx_HAL_Driver/Src/stm32f0xx_hal_exti.c"
   1:Drivers/STM32F0xx_HAL_Driver/Src/stm32f0xx_hal_exti.c **** /**
   2:Drivers/STM32F0xx_HAL_Driver/Src/stm32f0xx_hal_exti.c ****   ******************************************************************************
   3:Drivers/STM32F0xx_HAL_Driver/Src/stm32f0xx_hal_exti.c ****   * @file    stm32f0xx_hal_exti.c
   4:Drivers/STM32F0xx_HAL_Driver/Src/stm32f0xx_hal_exti.c ****   * @author  MCD Application Team
   5:Drivers/STM32F0xx_HAL_Driver/Src/stm32f0xx_hal_exti.c ****   * @brief   EXTI HAL module driver.
   6:Drivers/STM32F0xx_HAL_Driver/Src/stm32f0xx_hal_exti.c ****   *          This file provides firmware functions to manage the following
   7:Drivers/STM32F0xx_HAL_Driver/Src/stm32f0xx_hal_exti.c ****   *          functionalities of the Extended Interrupts and events controller (EXTI) peripheral:
   8:Drivers/STM32F0xx_HAL_Driver/Src/stm32f0xx_hal_exti.c ****   *           + Initialization and de-initialization functions
   9:Drivers/STM32F0xx_HAL_Driver/Src/stm32f0xx_hal_exti.c ****   *           + IO operation functions
  10:Drivers/STM32F0xx_HAL_Driver/Src/stm32f0xx_hal_exti.c ****   *
  11:Drivers/STM32F0xx_HAL_Driver/Src/stm32f0xx_hal_exti.c ****   ******************************************************************************
  12:Drivers/STM32F0xx_HAL_Driver/Src/stm32f0xx_hal_exti.c ****   * @attention
  13:Drivers/STM32F0xx_HAL_Driver/Src/stm32f0xx_hal_exti.c ****   *
  14:Drivers/STM32F0xx_HAL_Driver/Src/stm32f0xx_hal_exti.c ****   * Copyright (c) 2019 STMicroelectronics.
  15:Drivers/STM32F0xx_HAL_Driver/Src/stm32f0xx_hal_exti.c ****   * All rights reserved.
  16:Drivers/STM32F0xx_HAL_Driver/Src/stm32f0xx_hal_exti.c ****   *
  17:Drivers/STM32F0xx_HAL_Driver/Src/stm32f0xx_hal_exti.c ****   * This software is licensed under terms that can be found in the LICENSE file
  18:Drivers/STM32F0xx_HAL_Driver/Src/stm32f0xx_hal_exti.c ****   * in the root directory of this software component.
  19:Drivers/STM32F0xx_HAL_Driver/Src/stm32f0xx_hal_exti.c ****   * If no LICENSE file comes with this software, it is provided AS-IS.
  20:Drivers/STM32F0xx_HAL_Driver/Src/stm32f0xx_hal_exti.c ****   *
  21:Drivers/STM32F0xx_HAL_Driver/Src/stm32f0xx_hal_exti.c ****   ******************************************************************************
  22:Drivers/STM32F0xx_HAL_Driver/Src/stm32f0xx_hal_exti.c ****   @verbatim
  23:Drivers/STM32F0xx_HAL_Driver/Src/stm32f0xx_hal_exti.c ****   ==============================================================================
  24:Drivers/STM32F0xx_HAL_Driver/Src/stm32f0xx_hal_exti.c ****                     ##### EXTI Peripheral features #####
  25:Drivers/STM32F0xx_HAL_Driver/Src/stm32f0xx_hal_exti.c ****   ==============================================================================
  26:Drivers/STM32F0xx_HAL_Driver/Src/stm32f0xx_hal_exti.c ****   [..]
  27:Drivers/STM32F0xx_HAL_Driver/Src/stm32f0xx_hal_exti.c ****     (+) Each Exti line can be configured within this driver.
  28:Drivers/STM32F0xx_HAL_Driver/Src/stm32f0xx_hal_exti.c **** 
  29:Drivers/STM32F0xx_HAL_Driver/Src/stm32f0xx_hal_exti.c ****     (+) Exti line can be configured in 3 different modes
  30:Drivers/STM32F0xx_HAL_Driver/Src/stm32f0xx_hal_exti.c ****         (++) Interrupt
  31:Drivers/STM32F0xx_HAL_Driver/Src/stm32f0xx_hal_exti.c ****         (++) Event
  32:Drivers/STM32F0xx_HAL_Driver/Src/stm32f0xx_hal_exti.c ****         (++) Both of them
ARM GAS  C:\Users\mason\AppData\Local\Temp\cc7kQsjS.s 			page 2


  33:Drivers/STM32F0xx_HAL_Driver/Src/stm32f0xx_hal_exti.c **** 
  34:Drivers/STM32F0xx_HAL_Driver/Src/stm32f0xx_hal_exti.c ****     (+) Configurable Exti lines can be configured with 3 different triggers
  35:Drivers/STM32F0xx_HAL_Driver/Src/stm32f0xx_hal_exti.c ****         (++) Rising
  36:Drivers/STM32F0xx_HAL_Driver/Src/stm32f0xx_hal_exti.c ****         (++) Falling
  37:Drivers/STM32F0xx_HAL_Driver/Src/stm32f0xx_hal_exti.c ****         (++) Both of them
  38:Drivers/STM32F0xx_HAL_Driver/Src/stm32f0xx_hal_exti.c **** 
  39:Drivers/STM32F0xx_HAL_Driver/Src/stm32f0xx_hal_exti.c ****     (+) When set in interrupt mode, configurable Exti lines have two different
  40:Drivers/STM32F0xx_HAL_Driver/Src/stm32f0xx_hal_exti.c ****         interrupts pending registers which allow to distinguish which transition
  41:Drivers/STM32F0xx_HAL_Driver/Src/stm32f0xx_hal_exti.c ****         occurs:
  42:Drivers/STM32F0xx_HAL_Driver/Src/stm32f0xx_hal_exti.c ****         (++) Rising edge pending interrupt
  43:Drivers/STM32F0xx_HAL_Driver/Src/stm32f0xx_hal_exti.c ****         (++) Falling
  44:Drivers/STM32F0xx_HAL_Driver/Src/stm32f0xx_hal_exti.c **** 
  45:Drivers/STM32F0xx_HAL_Driver/Src/stm32f0xx_hal_exti.c ****     (+) Exti lines 0 to 15 are linked to gpio pin number 0 to 15. Gpio port can
  46:Drivers/STM32F0xx_HAL_Driver/Src/stm32f0xx_hal_exti.c ****         be selected through multiplexer.
  47:Drivers/STM32F0xx_HAL_Driver/Src/stm32f0xx_hal_exti.c **** 
  48:Drivers/STM32F0xx_HAL_Driver/Src/stm32f0xx_hal_exti.c ****                      ##### How to use this driver #####
  49:Drivers/STM32F0xx_HAL_Driver/Src/stm32f0xx_hal_exti.c ****   ==============================================================================
  50:Drivers/STM32F0xx_HAL_Driver/Src/stm32f0xx_hal_exti.c ****   [..]
  51:Drivers/STM32F0xx_HAL_Driver/Src/stm32f0xx_hal_exti.c **** 
  52:Drivers/STM32F0xx_HAL_Driver/Src/stm32f0xx_hal_exti.c ****     (#) Configure the EXTI line using HAL_EXTI_SetConfigLine().
  53:Drivers/STM32F0xx_HAL_Driver/Src/stm32f0xx_hal_exti.c ****         (++) Choose the interrupt line number by setting "Line" member from
  54:Drivers/STM32F0xx_HAL_Driver/Src/stm32f0xx_hal_exti.c ****              EXTI_ConfigTypeDef structure.
  55:Drivers/STM32F0xx_HAL_Driver/Src/stm32f0xx_hal_exti.c ****         (++) Configure the interrupt and/or event mode using "Mode" member from
  56:Drivers/STM32F0xx_HAL_Driver/Src/stm32f0xx_hal_exti.c ****              EXTI_ConfigTypeDef structure.
  57:Drivers/STM32F0xx_HAL_Driver/Src/stm32f0xx_hal_exti.c ****         (++) For configurable lines, configure rising and/or falling trigger
  58:Drivers/STM32F0xx_HAL_Driver/Src/stm32f0xx_hal_exti.c ****              "Trigger" member from EXTI_ConfigTypeDef structure.
  59:Drivers/STM32F0xx_HAL_Driver/Src/stm32f0xx_hal_exti.c ****         (++) For Exti lines linked to gpio, choose gpio port using "GPIOSel"
  60:Drivers/STM32F0xx_HAL_Driver/Src/stm32f0xx_hal_exti.c ****              member from GPIO_InitTypeDef structure.
  61:Drivers/STM32F0xx_HAL_Driver/Src/stm32f0xx_hal_exti.c **** 
  62:Drivers/STM32F0xx_HAL_Driver/Src/stm32f0xx_hal_exti.c ****     (#) Get current Exti configuration of a dedicated line using
  63:Drivers/STM32F0xx_HAL_Driver/Src/stm32f0xx_hal_exti.c ****         HAL_EXTI_GetConfigLine().
  64:Drivers/STM32F0xx_HAL_Driver/Src/stm32f0xx_hal_exti.c ****         (++) Provide exiting handle as parameter.
  65:Drivers/STM32F0xx_HAL_Driver/Src/stm32f0xx_hal_exti.c ****         (++) Provide pointer on EXTI_ConfigTypeDef structure as second parameter.
  66:Drivers/STM32F0xx_HAL_Driver/Src/stm32f0xx_hal_exti.c **** 
  67:Drivers/STM32F0xx_HAL_Driver/Src/stm32f0xx_hal_exti.c ****     (#) Clear Exti configuration of a dedicated line using HAL_EXTI_GetConfigLine().
  68:Drivers/STM32F0xx_HAL_Driver/Src/stm32f0xx_hal_exti.c ****         (++) Provide exiting handle as parameter.
  69:Drivers/STM32F0xx_HAL_Driver/Src/stm32f0xx_hal_exti.c **** 
  70:Drivers/STM32F0xx_HAL_Driver/Src/stm32f0xx_hal_exti.c ****     (#) Register callback to treat Exti interrupts using HAL_EXTI_RegisterCallback().
  71:Drivers/STM32F0xx_HAL_Driver/Src/stm32f0xx_hal_exti.c ****         (++) Provide exiting handle as first parameter.
  72:Drivers/STM32F0xx_HAL_Driver/Src/stm32f0xx_hal_exti.c ****         (++) Provide which callback will be registered using one value from
  73:Drivers/STM32F0xx_HAL_Driver/Src/stm32f0xx_hal_exti.c ****              EXTI_CallbackIDTypeDef.
  74:Drivers/STM32F0xx_HAL_Driver/Src/stm32f0xx_hal_exti.c ****         (++) Provide callback function pointer.
  75:Drivers/STM32F0xx_HAL_Driver/Src/stm32f0xx_hal_exti.c **** 
  76:Drivers/STM32F0xx_HAL_Driver/Src/stm32f0xx_hal_exti.c ****     (#) Get interrupt pending bit using HAL_EXTI_GetPending().
  77:Drivers/STM32F0xx_HAL_Driver/Src/stm32f0xx_hal_exti.c **** 
  78:Drivers/STM32F0xx_HAL_Driver/Src/stm32f0xx_hal_exti.c ****     (#) Clear interrupt pending bit using HAL_EXTI_GetPending().
  79:Drivers/STM32F0xx_HAL_Driver/Src/stm32f0xx_hal_exti.c **** 
  80:Drivers/STM32F0xx_HAL_Driver/Src/stm32f0xx_hal_exti.c ****     (#) Generate software interrupt using HAL_EXTI_GenerateSWI().
  81:Drivers/STM32F0xx_HAL_Driver/Src/stm32f0xx_hal_exti.c **** 
  82:Drivers/STM32F0xx_HAL_Driver/Src/stm32f0xx_hal_exti.c ****   @endverbatim
  83:Drivers/STM32F0xx_HAL_Driver/Src/stm32f0xx_hal_exti.c ****   */
  84:Drivers/STM32F0xx_HAL_Driver/Src/stm32f0xx_hal_exti.c **** 
  85:Drivers/STM32F0xx_HAL_Driver/Src/stm32f0xx_hal_exti.c **** /* Includes ------------------------------------------------------------------*/
  86:Drivers/STM32F0xx_HAL_Driver/Src/stm32f0xx_hal_exti.c **** #include "stm32f0xx_hal.h"
  87:Drivers/STM32F0xx_HAL_Driver/Src/stm32f0xx_hal_exti.c **** 
  88:Drivers/STM32F0xx_HAL_Driver/Src/stm32f0xx_hal_exti.c **** /** @addtogroup STM32F0xx_HAL_Driver
  89:Drivers/STM32F0xx_HAL_Driver/Src/stm32f0xx_hal_exti.c ****   * @{
ARM GAS  C:\Users\mason\AppData\Local\Temp\cc7kQsjS.s 			page 3


  90:Drivers/STM32F0xx_HAL_Driver/Src/stm32f0xx_hal_exti.c ****   */
  91:Drivers/STM32F0xx_HAL_Driver/Src/stm32f0xx_hal_exti.c **** 
  92:Drivers/STM32F0xx_HAL_Driver/Src/stm32f0xx_hal_exti.c **** /** @addtogroup EXTI
  93:Drivers/STM32F0xx_HAL_Driver/Src/stm32f0xx_hal_exti.c ****   * @{
  94:Drivers/STM32F0xx_HAL_Driver/Src/stm32f0xx_hal_exti.c ****   */
  95:Drivers/STM32F0xx_HAL_Driver/Src/stm32f0xx_hal_exti.c **** /** MISRA C:2012 deviation rule has been granted for following rule:
  96:Drivers/STM32F0xx_HAL_Driver/Src/stm32f0xx_hal_exti.c ****   * Rule-18.1_b - Medium: Array `EXTICR' 1st subscript interval [0,7] may be out
  97:Drivers/STM32F0xx_HAL_Driver/Src/stm32f0xx_hal_exti.c ****   * of bounds [0,3] in following API :
  98:Drivers/STM32F0xx_HAL_Driver/Src/stm32f0xx_hal_exti.c ****   * HAL_EXTI_SetConfigLine
  99:Drivers/STM32F0xx_HAL_Driver/Src/stm32f0xx_hal_exti.c ****   * HAL_EXTI_GetConfigLine
 100:Drivers/STM32F0xx_HAL_Driver/Src/stm32f0xx_hal_exti.c ****   * HAL_EXTI_ClearConfigLine
 101:Drivers/STM32F0xx_HAL_Driver/Src/stm32f0xx_hal_exti.c ****   */
 102:Drivers/STM32F0xx_HAL_Driver/Src/stm32f0xx_hal_exti.c **** 
 103:Drivers/STM32F0xx_HAL_Driver/Src/stm32f0xx_hal_exti.c **** #ifdef HAL_EXTI_MODULE_ENABLED
 104:Drivers/STM32F0xx_HAL_Driver/Src/stm32f0xx_hal_exti.c **** 
 105:Drivers/STM32F0xx_HAL_Driver/Src/stm32f0xx_hal_exti.c **** /* Private typedef -----------------------------------------------------------*/
 106:Drivers/STM32F0xx_HAL_Driver/Src/stm32f0xx_hal_exti.c **** /* Private defines -----------------------------------------------------------*/
 107:Drivers/STM32F0xx_HAL_Driver/Src/stm32f0xx_hal_exti.c **** /** @defgroup EXTI_Private_Constants EXTI Private Constants
 108:Drivers/STM32F0xx_HAL_Driver/Src/stm32f0xx_hal_exti.c ****   * @{
 109:Drivers/STM32F0xx_HAL_Driver/Src/stm32f0xx_hal_exti.c ****   */
 110:Drivers/STM32F0xx_HAL_Driver/Src/stm32f0xx_hal_exti.c **** 
 111:Drivers/STM32F0xx_HAL_Driver/Src/stm32f0xx_hal_exti.c **** /**
 112:Drivers/STM32F0xx_HAL_Driver/Src/stm32f0xx_hal_exti.c ****   * @}
 113:Drivers/STM32F0xx_HAL_Driver/Src/stm32f0xx_hal_exti.c ****   */
 114:Drivers/STM32F0xx_HAL_Driver/Src/stm32f0xx_hal_exti.c **** 
 115:Drivers/STM32F0xx_HAL_Driver/Src/stm32f0xx_hal_exti.c **** /* Private macros ------------------------------------------------------------*/
 116:Drivers/STM32F0xx_HAL_Driver/Src/stm32f0xx_hal_exti.c **** /* Private variables ---------------------------------------------------------*/
 117:Drivers/STM32F0xx_HAL_Driver/Src/stm32f0xx_hal_exti.c **** /* Private function prototypes -----------------------------------------------*/
 118:Drivers/STM32F0xx_HAL_Driver/Src/stm32f0xx_hal_exti.c **** /* Exported functions --------------------------------------------------------*/
 119:Drivers/STM32F0xx_HAL_Driver/Src/stm32f0xx_hal_exti.c **** 
 120:Drivers/STM32F0xx_HAL_Driver/Src/stm32f0xx_hal_exti.c **** /** @addtogroup EXTI_Exported_Functions
 121:Drivers/STM32F0xx_HAL_Driver/Src/stm32f0xx_hal_exti.c ****   * @{
 122:Drivers/STM32F0xx_HAL_Driver/Src/stm32f0xx_hal_exti.c ****   */
 123:Drivers/STM32F0xx_HAL_Driver/Src/stm32f0xx_hal_exti.c **** 
 124:Drivers/STM32F0xx_HAL_Driver/Src/stm32f0xx_hal_exti.c **** /** @addtogroup EXTI_Exported_Functions_Group1
 125:Drivers/STM32F0xx_HAL_Driver/Src/stm32f0xx_hal_exti.c ****   *  @brief    Configuration functions
 126:Drivers/STM32F0xx_HAL_Driver/Src/stm32f0xx_hal_exti.c ****   *
 127:Drivers/STM32F0xx_HAL_Driver/Src/stm32f0xx_hal_exti.c **** @verbatim
 128:Drivers/STM32F0xx_HAL_Driver/Src/stm32f0xx_hal_exti.c ****  ===============================================================================
 129:Drivers/STM32F0xx_HAL_Driver/Src/stm32f0xx_hal_exti.c ****               ##### Configuration functions #####
 130:Drivers/STM32F0xx_HAL_Driver/Src/stm32f0xx_hal_exti.c ****  ===============================================================================
 131:Drivers/STM32F0xx_HAL_Driver/Src/stm32f0xx_hal_exti.c **** 
 132:Drivers/STM32F0xx_HAL_Driver/Src/stm32f0xx_hal_exti.c **** @endverbatim
 133:Drivers/STM32F0xx_HAL_Driver/Src/stm32f0xx_hal_exti.c ****   * @{
 134:Drivers/STM32F0xx_HAL_Driver/Src/stm32f0xx_hal_exti.c ****   */
 135:Drivers/STM32F0xx_HAL_Driver/Src/stm32f0xx_hal_exti.c **** 
 136:Drivers/STM32F0xx_HAL_Driver/Src/stm32f0xx_hal_exti.c **** /**
 137:Drivers/STM32F0xx_HAL_Driver/Src/stm32f0xx_hal_exti.c ****   * @brief  Set configuration of a dedicated Exti line.
 138:Drivers/STM32F0xx_HAL_Driver/Src/stm32f0xx_hal_exti.c ****   * @param  hexti Exti handle.
 139:Drivers/STM32F0xx_HAL_Driver/Src/stm32f0xx_hal_exti.c ****   * @param  pExtiConfig Pointer on EXTI configuration to be set.
 140:Drivers/STM32F0xx_HAL_Driver/Src/stm32f0xx_hal_exti.c ****   * @retval HAL Status.
 141:Drivers/STM32F0xx_HAL_Driver/Src/stm32f0xx_hal_exti.c ****   */
 142:Drivers/STM32F0xx_HAL_Driver/Src/stm32f0xx_hal_exti.c **** HAL_StatusTypeDef HAL_EXTI_SetConfigLine(EXTI_HandleTypeDef *hexti, EXTI_ConfigTypeDef *pExtiConfig
 143:Drivers/STM32F0xx_HAL_Driver/Src/stm32f0xx_hal_exti.c **** {
  27              		.loc 1 143 1
  28              		.cfi_startproc
  29              		@ args = 0, pretend = 0, frame = 24
ARM GAS  C:\Users\mason\AppData\Local\Temp\cc7kQsjS.s 			page 4


  30              		@ frame_needed = 1, uses_anonymous_args = 0
  31 0000 80B5     		push	{r7, lr}
  32              	.LCFI0:
  33              		.cfi_def_cfa_offset 8
  34              		.cfi_offset 7, -8
  35              		.cfi_offset 14, -4
  36 0002 86B0     		sub	sp, sp, #24
  37              	.LCFI1:
  38              		.cfi_def_cfa_offset 32
  39 0004 00AF     		add	r7, sp, #0
  40              	.LCFI2:
  41              		.cfi_def_cfa_register 7
  42 0006 7860     		str	r0, [r7, #4]
  43 0008 3960     		str	r1, [r7]
 144:Drivers/STM32F0xx_HAL_Driver/Src/stm32f0xx_hal_exti.c ****   uint32_t regval;
 145:Drivers/STM32F0xx_HAL_Driver/Src/stm32f0xx_hal_exti.c ****   uint32_t linepos;
 146:Drivers/STM32F0xx_HAL_Driver/Src/stm32f0xx_hal_exti.c ****   uint32_t maskline;
 147:Drivers/STM32F0xx_HAL_Driver/Src/stm32f0xx_hal_exti.c **** 
 148:Drivers/STM32F0xx_HAL_Driver/Src/stm32f0xx_hal_exti.c ****   /* Check null pointer */
 149:Drivers/STM32F0xx_HAL_Driver/Src/stm32f0xx_hal_exti.c ****   if ((hexti == NULL) || (pExtiConfig == NULL))
  44              		.loc 1 149 6
  45 000a 7B68     		ldr	r3, [r7, #4]
  46 000c 002B     		cmp	r3, #0
  47 000e 02D0     		beq	.L2
  48              		.loc 1 149 23 discriminator 1
  49 0010 3B68     		ldr	r3, [r7]
  50 0012 002B     		cmp	r3, #0
  51 0014 01D1     		bne	.L3
  52              	.L2:
 150:Drivers/STM32F0xx_HAL_Driver/Src/stm32f0xx_hal_exti.c ****   {
 151:Drivers/STM32F0xx_HAL_Driver/Src/stm32f0xx_hal_exti.c ****     return HAL_ERROR;
  53              		.loc 1 151 12
  54 0016 0123     		movs	r3, #1
  55 0018 8DE0     		b	.L4
  56              	.L3:
 152:Drivers/STM32F0xx_HAL_Driver/Src/stm32f0xx_hal_exti.c ****   }
 153:Drivers/STM32F0xx_HAL_Driver/Src/stm32f0xx_hal_exti.c **** 
 154:Drivers/STM32F0xx_HAL_Driver/Src/stm32f0xx_hal_exti.c ****   /* Check parameters */
 155:Drivers/STM32F0xx_HAL_Driver/Src/stm32f0xx_hal_exti.c ****   assert_param(IS_EXTI_LINE(pExtiConfig->Line));
 156:Drivers/STM32F0xx_HAL_Driver/Src/stm32f0xx_hal_exti.c ****   assert_param(IS_EXTI_MODE(pExtiConfig->Mode));
 157:Drivers/STM32F0xx_HAL_Driver/Src/stm32f0xx_hal_exti.c **** 
 158:Drivers/STM32F0xx_HAL_Driver/Src/stm32f0xx_hal_exti.c ****   /* Assign line number to handle */
 159:Drivers/STM32F0xx_HAL_Driver/Src/stm32f0xx_hal_exti.c ****   hexti->Line = pExtiConfig->Line;
  57              		.loc 1 159 28
  58 001a 3B68     		ldr	r3, [r7]
  59 001c 1A68     		ldr	r2, [r3]
  60              		.loc 1 159 15
  61 001e 7B68     		ldr	r3, [r7, #4]
  62 0020 1A60     		str	r2, [r3]
 160:Drivers/STM32F0xx_HAL_Driver/Src/stm32f0xx_hal_exti.c **** 
 161:Drivers/STM32F0xx_HAL_Driver/Src/stm32f0xx_hal_exti.c ****   /* Compute line mask */
 162:Drivers/STM32F0xx_HAL_Driver/Src/stm32f0xx_hal_exti.c ****   linepos = (pExtiConfig->Line & EXTI_PIN_MASK);
  63              		.loc 1 162 25
  64 0022 3B68     		ldr	r3, [r7]
  65 0024 1B68     		ldr	r3, [r3]
  66              		.loc 1 162 11
  67 0026 1F22     		movs	r2, #31
ARM GAS  C:\Users\mason\AppData\Local\Temp\cc7kQsjS.s 			page 5


  68 0028 1340     		ands	r3, r2
  69 002a 7B61     		str	r3, [r7, #20]
 163:Drivers/STM32F0xx_HAL_Driver/Src/stm32f0xx_hal_exti.c ****   maskline = (1uL << linepos);
  70              		.loc 1 163 12
  71 002c 0122     		movs	r2, #1
  72 002e 7B69     		ldr	r3, [r7, #20]
  73 0030 9A40     		lsls	r2, r2, r3
  74 0032 1300     		movs	r3, r2
  75 0034 3B61     		str	r3, [r7, #16]
 164:Drivers/STM32F0xx_HAL_Driver/Src/stm32f0xx_hal_exti.c **** 
 165:Drivers/STM32F0xx_HAL_Driver/Src/stm32f0xx_hal_exti.c ****   /* Configure triggers for configurable lines */
 166:Drivers/STM32F0xx_HAL_Driver/Src/stm32f0xx_hal_exti.c ****   if ((pExtiConfig->Line & EXTI_CONFIG) != 0x00u)
  76              		.loc 1 166 19
  77 0036 3B68     		ldr	r3, [r7]
  78 0038 1A68     		ldr	r2, [r3]
  79              		.loc 1 166 26
  80 003a 8023     		movs	r3, #128
  81 003c 9B04     		lsls	r3, r3, #18
  82 003e 1340     		ands	r3, r2
  83              		.loc 1 166 6
  84 0040 52D0     		beq	.L5
 167:Drivers/STM32F0xx_HAL_Driver/Src/stm32f0xx_hal_exti.c ****   {
 168:Drivers/STM32F0xx_HAL_Driver/Src/stm32f0xx_hal_exti.c ****     assert_param(IS_EXTI_TRIGGER(pExtiConfig->Trigger));
 169:Drivers/STM32F0xx_HAL_Driver/Src/stm32f0xx_hal_exti.c **** 
 170:Drivers/STM32F0xx_HAL_Driver/Src/stm32f0xx_hal_exti.c ****     /* Configure rising trigger */
 171:Drivers/STM32F0xx_HAL_Driver/Src/stm32f0xx_hal_exti.c ****     /* Mask or set line */
 172:Drivers/STM32F0xx_HAL_Driver/Src/stm32f0xx_hal_exti.c ****     if ((pExtiConfig->Trigger & EXTI_TRIGGER_RISING) != 0x00u)
  85              		.loc 1 172 21
  86 0042 3B68     		ldr	r3, [r7]
  87 0044 9B68     		ldr	r3, [r3, #8]
  88              		.loc 1 172 31
  89 0046 0122     		movs	r2, #1
  90 0048 1340     		ands	r3, r2
  91              		.loc 1 172 8
  92 004a 06D0     		beq	.L6
 173:Drivers/STM32F0xx_HAL_Driver/Src/stm32f0xx_hal_exti.c ****     {
 174:Drivers/STM32F0xx_HAL_Driver/Src/stm32f0xx_hal_exti.c ****       EXTI->RTSR |= maskline;
  93              		.loc 1 174 18
  94 004c 3C4B     		ldr	r3, .L14
  95 004e 9968     		ldr	r1, [r3, #8]
  96 0050 3B4B     		ldr	r3, .L14
  97 0052 3A69     		ldr	r2, [r7, #16]
  98 0054 0A43     		orrs	r2, r1
  99 0056 9A60     		str	r2, [r3, #8]
 100 0058 06E0     		b	.L7
 101              	.L6:
 175:Drivers/STM32F0xx_HAL_Driver/Src/stm32f0xx_hal_exti.c ****     }
 176:Drivers/STM32F0xx_HAL_Driver/Src/stm32f0xx_hal_exti.c ****     else
 177:Drivers/STM32F0xx_HAL_Driver/Src/stm32f0xx_hal_exti.c ****     {
 178:Drivers/STM32F0xx_HAL_Driver/Src/stm32f0xx_hal_exti.c ****       EXTI->RTSR &= ~maskline;
 102              		.loc 1 178 18
 103 005a 394B     		ldr	r3, .L14
 104 005c 9A68     		ldr	r2, [r3, #8]
 105              		.loc 1 178 21
 106 005e 3B69     		ldr	r3, [r7, #16]
 107 0060 D943     		mvns	r1, r3
 108              		.loc 1 178 18
ARM GAS  C:\Users\mason\AppData\Local\Temp\cc7kQsjS.s 			page 6


 109 0062 374B     		ldr	r3, .L14
 110 0064 0A40     		ands	r2, r1
 111 0066 9A60     		str	r2, [r3, #8]
 112              	.L7:
 179:Drivers/STM32F0xx_HAL_Driver/Src/stm32f0xx_hal_exti.c ****     }
 180:Drivers/STM32F0xx_HAL_Driver/Src/stm32f0xx_hal_exti.c **** 
 181:Drivers/STM32F0xx_HAL_Driver/Src/stm32f0xx_hal_exti.c ****     /* Configure falling trigger */
 182:Drivers/STM32F0xx_HAL_Driver/Src/stm32f0xx_hal_exti.c ****     /* Mask or set line */
 183:Drivers/STM32F0xx_HAL_Driver/Src/stm32f0xx_hal_exti.c ****     if ((pExtiConfig->Trigger & EXTI_TRIGGER_FALLING) != 0x00u)
 113              		.loc 1 183 21
 114 0068 3B68     		ldr	r3, [r7]
 115 006a 9B68     		ldr	r3, [r3, #8]
 116              		.loc 1 183 31
 117 006c 0222     		movs	r2, #2
 118 006e 1340     		ands	r3, r2
 119              		.loc 1 183 8
 120 0070 06D0     		beq	.L8
 184:Drivers/STM32F0xx_HAL_Driver/Src/stm32f0xx_hal_exti.c ****     {
 185:Drivers/STM32F0xx_HAL_Driver/Src/stm32f0xx_hal_exti.c ****       EXTI->FTSR |= maskline;
 121              		.loc 1 185 18
 122 0072 334B     		ldr	r3, .L14
 123 0074 D968     		ldr	r1, [r3, #12]
 124 0076 324B     		ldr	r3, .L14
 125 0078 3A69     		ldr	r2, [r7, #16]
 126 007a 0A43     		orrs	r2, r1
 127 007c DA60     		str	r2, [r3, #12]
 128 007e 06E0     		b	.L9
 129              	.L8:
 186:Drivers/STM32F0xx_HAL_Driver/Src/stm32f0xx_hal_exti.c ****     }
 187:Drivers/STM32F0xx_HAL_Driver/Src/stm32f0xx_hal_exti.c ****     else
 188:Drivers/STM32F0xx_HAL_Driver/Src/stm32f0xx_hal_exti.c ****     {
 189:Drivers/STM32F0xx_HAL_Driver/Src/stm32f0xx_hal_exti.c ****       EXTI->FTSR &= ~maskline;
 130              		.loc 1 189 18
 131 0080 2F4B     		ldr	r3, .L14
 132 0082 DA68     		ldr	r2, [r3, #12]
 133              		.loc 1 189 21
 134 0084 3B69     		ldr	r3, [r7, #16]
 135 0086 D943     		mvns	r1, r3
 136              		.loc 1 189 18
 137 0088 2D4B     		ldr	r3, .L14
 138 008a 0A40     		ands	r2, r1
 139 008c DA60     		str	r2, [r3, #12]
 140              	.L9:
 190:Drivers/STM32F0xx_HAL_Driver/Src/stm32f0xx_hal_exti.c ****     }
 191:Drivers/STM32F0xx_HAL_Driver/Src/stm32f0xx_hal_exti.c **** 
 192:Drivers/STM32F0xx_HAL_Driver/Src/stm32f0xx_hal_exti.c **** 
 193:Drivers/STM32F0xx_HAL_Driver/Src/stm32f0xx_hal_exti.c ****     /* Configure gpio port selection in case of gpio exti line */
 194:Drivers/STM32F0xx_HAL_Driver/Src/stm32f0xx_hal_exti.c ****     if ((pExtiConfig->Line & EXTI_GPIO) == EXTI_GPIO)
 141              		.loc 1 194 21
 142 008e 3B68     		ldr	r3, [r7]
 143 0090 1A68     		ldr	r2, [r3]
 144              		.loc 1 194 28
 145 0092 C023     		movs	r3, #192
 146 0094 DB04     		lsls	r3, r3, #19
 147 0096 1A40     		ands	r2, r3
 148              		.loc 1 194 8
 149 0098 C023     		movs	r3, #192
ARM GAS  C:\Users\mason\AppData\Local\Temp\cc7kQsjS.s 			page 7


 150 009a DB04     		lsls	r3, r3, #19
 151 009c 9A42     		cmp	r2, r3
 152 009e 23D1     		bne	.L5
 195:Drivers/STM32F0xx_HAL_Driver/Src/stm32f0xx_hal_exti.c ****     {
 196:Drivers/STM32F0xx_HAL_Driver/Src/stm32f0xx_hal_exti.c ****       assert_param(IS_EXTI_GPIO_PORT(pExtiConfig->GPIOSel));
 197:Drivers/STM32F0xx_HAL_Driver/Src/stm32f0xx_hal_exti.c ****       assert_param(IS_EXTI_GPIO_PIN(linepos));
 198:Drivers/STM32F0xx_HAL_Driver/Src/stm32f0xx_hal_exti.c **** 
 199:Drivers/STM32F0xx_HAL_Driver/Src/stm32f0xx_hal_exti.c ****       regval = SYSCFG->EXTICR[linepos >> 2u];
 153              		.loc 1 199 22
 154 00a0 284A     		ldr	r2, .L14+4
 155              		.loc 1 199 39
 156 00a2 7B69     		ldr	r3, [r7, #20]
 157 00a4 9B08     		lsrs	r3, r3, #2
 158              		.loc 1 199 14
 159 00a6 0233     		adds	r3, r3, #2
 160 00a8 9B00     		lsls	r3, r3, #2
 161 00aa 9B58     		ldr	r3, [r3, r2]
 162 00ac FB60     		str	r3, [r7, #12]
 200:Drivers/STM32F0xx_HAL_Driver/Src/stm32f0xx_hal_exti.c ****       regval &= ~(SYSCFG_EXTICR1_EXTI0 << (SYSCFG_EXTICR1_EXTI1_Pos * (linepos & 0x03u)));
 163              		.loc 1 200 80
 164 00ae 7B69     		ldr	r3, [r7, #20]
 165 00b0 0322     		movs	r2, #3
 166 00b2 1340     		ands	r3, r2
 167              		.loc 1 200 69
 168 00b4 9B00     		lsls	r3, r3, #2
 169              		.loc 1 200 40
 170 00b6 0F22     		movs	r2, #15
 171 00b8 9A40     		lsls	r2, r2, r3
 172 00ba 1300     		movs	r3, r2
 173              		.loc 1 200 17
 174 00bc DA43     		mvns	r2, r3
 175              		.loc 1 200 14
 176 00be FB68     		ldr	r3, [r7, #12]
 177 00c0 1340     		ands	r3, r2
 178 00c2 FB60     		str	r3, [r7, #12]
 201:Drivers/STM32F0xx_HAL_Driver/Src/stm32f0xx_hal_exti.c ****       regval |= (pExtiConfig->GPIOSel << (SYSCFG_EXTICR1_EXTI1_Pos * (linepos & 0x03u)));
 179              		.loc 1 201 29
 180 00c4 3B68     		ldr	r3, [r7]
 181 00c6 DA68     		ldr	r2, [r3, #12]
 182              		.loc 1 201 79
 183 00c8 7B69     		ldr	r3, [r7, #20]
 184 00ca 0321     		movs	r1, #3
 185 00cc 0B40     		ands	r3, r1
 186              		.loc 1 201 68
 187 00ce 9B00     		lsls	r3, r3, #2
 188              		.loc 1 201 39
 189 00d0 9A40     		lsls	r2, r2, r3
 190 00d2 1300     		movs	r3, r2
 191              		.loc 1 201 14
 192 00d4 FA68     		ldr	r2, [r7, #12]
 193 00d6 1343     		orrs	r3, r2
 194 00d8 FB60     		str	r3, [r7, #12]
 202:Drivers/STM32F0xx_HAL_Driver/Src/stm32f0xx_hal_exti.c ****       SYSCFG->EXTICR[linepos >> 2u] = regval;
 195              		.loc 1 202 13
 196 00da 1A49     		ldr	r1, .L14+4
 197              		.loc 1 202 30
 198 00dc 7B69     		ldr	r3, [r7, #20]
ARM GAS  C:\Users\mason\AppData\Local\Temp\cc7kQsjS.s 			page 8


 199 00de 9B08     		lsrs	r3, r3, #2
 200              		.loc 1 202 37
 201 00e0 0233     		adds	r3, r3, #2
 202 00e2 9B00     		lsls	r3, r3, #2
 203 00e4 FA68     		ldr	r2, [r7, #12]
 204 00e6 5A50     		str	r2, [r3, r1]
 205              	.L5:
 203:Drivers/STM32F0xx_HAL_Driver/Src/stm32f0xx_hal_exti.c ****     }
 204:Drivers/STM32F0xx_HAL_Driver/Src/stm32f0xx_hal_exti.c ****   }
 205:Drivers/STM32F0xx_HAL_Driver/Src/stm32f0xx_hal_exti.c **** 
 206:Drivers/STM32F0xx_HAL_Driver/Src/stm32f0xx_hal_exti.c ****   /* Configure interrupt mode : read current mode */
 207:Drivers/STM32F0xx_HAL_Driver/Src/stm32f0xx_hal_exti.c ****   /* Mask or set line */
 208:Drivers/STM32F0xx_HAL_Driver/Src/stm32f0xx_hal_exti.c ****   if ((pExtiConfig->Mode & EXTI_MODE_INTERRUPT) != 0x00u)
 206              		.loc 1 208 19
 207 00e8 3B68     		ldr	r3, [r7]
 208 00ea 5B68     		ldr	r3, [r3, #4]
 209              		.loc 1 208 26
 210 00ec 0122     		movs	r2, #1
 211 00ee 1340     		ands	r3, r2
 212              		.loc 1 208 6
 213 00f0 06D0     		beq	.L10
 209:Drivers/STM32F0xx_HAL_Driver/Src/stm32f0xx_hal_exti.c ****   {
 210:Drivers/STM32F0xx_HAL_Driver/Src/stm32f0xx_hal_exti.c ****     EXTI->IMR |= maskline;
 214              		.loc 1 210 15
 215 00f2 134B     		ldr	r3, .L14
 216 00f4 1968     		ldr	r1, [r3]
 217 00f6 124B     		ldr	r3, .L14
 218 00f8 3A69     		ldr	r2, [r7, #16]
 219 00fa 0A43     		orrs	r2, r1
 220 00fc 1A60     		str	r2, [r3]
 221 00fe 06E0     		b	.L11
 222              	.L10:
 211:Drivers/STM32F0xx_HAL_Driver/Src/stm32f0xx_hal_exti.c ****   }
 212:Drivers/STM32F0xx_HAL_Driver/Src/stm32f0xx_hal_exti.c ****   else
 213:Drivers/STM32F0xx_HAL_Driver/Src/stm32f0xx_hal_exti.c ****   {
 214:Drivers/STM32F0xx_HAL_Driver/Src/stm32f0xx_hal_exti.c ****     EXTI->IMR &= ~maskline;
 223              		.loc 1 214 15
 224 0100 0F4B     		ldr	r3, .L14
 225 0102 1A68     		ldr	r2, [r3]
 226              		.loc 1 214 18
 227 0104 3B69     		ldr	r3, [r7, #16]
 228 0106 D943     		mvns	r1, r3
 229              		.loc 1 214 15
 230 0108 0D4B     		ldr	r3, .L14
 231 010a 0A40     		ands	r2, r1
 232 010c 1A60     		str	r2, [r3]
 233              	.L11:
 215:Drivers/STM32F0xx_HAL_Driver/Src/stm32f0xx_hal_exti.c ****   }
 216:Drivers/STM32F0xx_HAL_Driver/Src/stm32f0xx_hal_exti.c **** 
 217:Drivers/STM32F0xx_HAL_Driver/Src/stm32f0xx_hal_exti.c ****   /* Configure event mode : read current mode */
 218:Drivers/STM32F0xx_HAL_Driver/Src/stm32f0xx_hal_exti.c ****   /* Mask or set line */
 219:Drivers/STM32F0xx_HAL_Driver/Src/stm32f0xx_hal_exti.c ****   if ((pExtiConfig->Mode & EXTI_MODE_EVENT) != 0x00u)
 234              		.loc 1 219 19
 235 010e 3B68     		ldr	r3, [r7]
 236 0110 5B68     		ldr	r3, [r3, #4]
 237              		.loc 1 219 26
 238 0112 0222     		movs	r2, #2
ARM GAS  C:\Users\mason\AppData\Local\Temp\cc7kQsjS.s 			page 9


 239 0114 1340     		ands	r3, r2
 240              		.loc 1 219 6
 241 0116 06D0     		beq	.L12
 220:Drivers/STM32F0xx_HAL_Driver/Src/stm32f0xx_hal_exti.c ****   {
 221:Drivers/STM32F0xx_HAL_Driver/Src/stm32f0xx_hal_exti.c ****     EXTI->EMR |= maskline;
 242              		.loc 1 221 15
 243 0118 094B     		ldr	r3, .L14
 244 011a 5968     		ldr	r1, [r3, #4]
 245 011c 084B     		ldr	r3, .L14
 246 011e 3A69     		ldr	r2, [r7, #16]
 247 0120 0A43     		orrs	r2, r1
 248 0122 5A60     		str	r2, [r3, #4]
 249 0124 06E0     		b	.L13
 250              	.L12:
 222:Drivers/STM32F0xx_HAL_Driver/Src/stm32f0xx_hal_exti.c ****   }
 223:Drivers/STM32F0xx_HAL_Driver/Src/stm32f0xx_hal_exti.c ****   else
 224:Drivers/STM32F0xx_HAL_Driver/Src/stm32f0xx_hal_exti.c ****   {
 225:Drivers/STM32F0xx_HAL_Driver/Src/stm32f0xx_hal_exti.c ****     EXTI->EMR &= ~maskline;
 251              		.loc 1 225 15
 252 0126 064B     		ldr	r3, .L14
 253 0128 5A68     		ldr	r2, [r3, #4]
 254              		.loc 1 225 18
 255 012a 3B69     		ldr	r3, [r7, #16]
 256 012c D943     		mvns	r1, r3
 257              		.loc 1 225 15
 258 012e 044B     		ldr	r3, .L14
 259 0130 0A40     		ands	r2, r1
 260 0132 5A60     		str	r2, [r3, #4]
 261              	.L13:
 226:Drivers/STM32F0xx_HAL_Driver/Src/stm32f0xx_hal_exti.c ****   }
 227:Drivers/STM32F0xx_HAL_Driver/Src/stm32f0xx_hal_exti.c **** 
 228:Drivers/STM32F0xx_HAL_Driver/Src/stm32f0xx_hal_exti.c ****   return HAL_OK;
 262              		.loc 1 228 10
 263 0134 0023     		movs	r3, #0
 264              	.L4:
 229:Drivers/STM32F0xx_HAL_Driver/Src/stm32f0xx_hal_exti.c **** }
 265              		.loc 1 229 1
 266 0136 1800     		movs	r0, r3
 267 0138 BD46     		mov	sp, r7
 268 013a 06B0     		add	sp, sp, #24
 269              		@ sp needed
 270 013c 80BD     		pop	{r7, pc}
 271              	.L15:
 272 013e C046     		.align	2
 273              	.L14:
 274 0140 00040140 		.word	1073808384
 275 0144 00000140 		.word	1073807360
 276              		.cfi_endproc
 277              	.LFE40:
 279              		.section	.text.HAL_EXTI_GetConfigLine,"ax",%progbits
 280              		.align	1
 281              		.global	HAL_EXTI_GetConfigLine
 282              		.syntax unified
 283              		.code	16
 284              		.thumb_func
 286              	HAL_EXTI_GetConfigLine:
 287              	.LFB41:
ARM GAS  C:\Users\mason\AppData\Local\Temp\cc7kQsjS.s 			page 10


 230:Drivers/STM32F0xx_HAL_Driver/Src/stm32f0xx_hal_exti.c **** 
 231:Drivers/STM32F0xx_HAL_Driver/Src/stm32f0xx_hal_exti.c **** /**
 232:Drivers/STM32F0xx_HAL_Driver/Src/stm32f0xx_hal_exti.c ****   * @brief  Get configuration of a dedicated Exti line.
 233:Drivers/STM32F0xx_HAL_Driver/Src/stm32f0xx_hal_exti.c ****   * @param  hexti Exti handle.
 234:Drivers/STM32F0xx_HAL_Driver/Src/stm32f0xx_hal_exti.c ****   * @param  pExtiConfig Pointer on structure to store Exti configuration.
 235:Drivers/STM32F0xx_HAL_Driver/Src/stm32f0xx_hal_exti.c ****   * @retval HAL Status.
 236:Drivers/STM32F0xx_HAL_Driver/Src/stm32f0xx_hal_exti.c ****   */
 237:Drivers/STM32F0xx_HAL_Driver/Src/stm32f0xx_hal_exti.c **** HAL_StatusTypeDef HAL_EXTI_GetConfigLine(EXTI_HandleTypeDef *hexti, EXTI_ConfigTypeDef *pExtiConfig
 238:Drivers/STM32F0xx_HAL_Driver/Src/stm32f0xx_hal_exti.c **** {
 288              		.loc 1 238 1
 289              		.cfi_startproc
 290              		@ args = 0, pretend = 0, frame = 24
 291              		@ frame_needed = 1, uses_anonymous_args = 0
 292 0000 80B5     		push	{r7, lr}
 293              	.LCFI3:
 294              		.cfi_def_cfa_offset 8
 295              		.cfi_offset 7, -8
 296              		.cfi_offset 14, -4
 297 0002 86B0     		sub	sp, sp, #24
 298              	.LCFI4:
 299              		.cfi_def_cfa_offset 32
 300 0004 00AF     		add	r7, sp, #0
 301              	.LCFI5:
 302              		.cfi_def_cfa_register 7
 303 0006 7860     		str	r0, [r7, #4]
 304 0008 3960     		str	r1, [r7]
 239:Drivers/STM32F0xx_HAL_Driver/Src/stm32f0xx_hal_exti.c ****   uint32_t regval;
 240:Drivers/STM32F0xx_HAL_Driver/Src/stm32f0xx_hal_exti.c ****   uint32_t linepos;
 241:Drivers/STM32F0xx_HAL_Driver/Src/stm32f0xx_hal_exti.c ****   uint32_t maskline;
 242:Drivers/STM32F0xx_HAL_Driver/Src/stm32f0xx_hal_exti.c **** 
 243:Drivers/STM32F0xx_HAL_Driver/Src/stm32f0xx_hal_exti.c ****   /* Check null pointer */
 244:Drivers/STM32F0xx_HAL_Driver/Src/stm32f0xx_hal_exti.c ****   if ((hexti == NULL) || (pExtiConfig == NULL))
 305              		.loc 1 244 6
 306 000a 7B68     		ldr	r3, [r7, #4]
 307 000c 002B     		cmp	r3, #0
 308 000e 02D0     		beq	.L17
 309              		.loc 1 244 23 discriminator 1
 310 0010 3B68     		ldr	r3, [r7]
 311 0012 002B     		cmp	r3, #0
 312 0014 01D1     		bne	.L18
 313              	.L17:
 245:Drivers/STM32F0xx_HAL_Driver/Src/stm32f0xx_hal_exti.c ****   {
 246:Drivers/STM32F0xx_HAL_Driver/Src/stm32f0xx_hal_exti.c ****     return HAL_ERROR;
 314              		.loc 1 246 12
 315 0016 0123     		movs	r3, #1
 316 0018 5FE0     		b	.L19
 317              	.L18:
 247:Drivers/STM32F0xx_HAL_Driver/Src/stm32f0xx_hal_exti.c ****   }
 248:Drivers/STM32F0xx_HAL_Driver/Src/stm32f0xx_hal_exti.c **** 
 249:Drivers/STM32F0xx_HAL_Driver/Src/stm32f0xx_hal_exti.c ****   /* Check the parameter */
 250:Drivers/STM32F0xx_HAL_Driver/Src/stm32f0xx_hal_exti.c ****   assert_param(IS_EXTI_LINE(hexti->Line));
 251:Drivers/STM32F0xx_HAL_Driver/Src/stm32f0xx_hal_exti.c **** 
 252:Drivers/STM32F0xx_HAL_Driver/Src/stm32f0xx_hal_exti.c ****   /* Store handle line number to configuration structure */
 253:Drivers/STM32F0xx_HAL_Driver/Src/stm32f0xx_hal_exti.c ****   pExtiConfig->Line = hexti->Line;
 318              		.loc 1 253 28
 319 001a 7B68     		ldr	r3, [r7, #4]
 320 001c 1A68     		ldr	r2, [r3]
ARM GAS  C:\Users\mason\AppData\Local\Temp\cc7kQsjS.s 			page 11


 321              		.loc 1 253 21
 322 001e 3B68     		ldr	r3, [r7]
 323 0020 1A60     		str	r2, [r3]
 254:Drivers/STM32F0xx_HAL_Driver/Src/stm32f0xx_hal_exti.c **** 
 255:Drivers/STM32F0xx_HAL_Driver/Src/stm32f0xx_hal_exti.c ****   /* Compute line mask */
 256:Drivers/STM32F0xx_HAL_Driver/Src/stm32f0xx_hal_exti.c ****   linepos = (pExtiConfig->Line & EXTI_PIN_MASK);
 324              		.loc 1 256 25
 325 0022 3B68     		ldr	r3, [r7]
 326 0024 1B68     		ldr	r3, [r3]
 327              		.loc 1 256 11
 328 0026 1F22     		movs	r2, #31
 329 0028 1340     		ands	r3, r2
 330 002a 7B61     		str	r3, [r7, #20]
 257:Drivers/STM32F0xx_HAL_Driver/Src/stm32f0xx_hal_exti.c ****   maskline = (1uL << linepos);
 331              		.loc 1 257 12
 332 002c 0122     		movs	r2, #1
 333 002e 7B69     		ldr	r3, [r7, #20]
 334 0030 9A40     		lsls	r2, r2, r3
 335 0032 1300     		movs	r3, r2
 336 0034 3B61     		str	r3, [r7, #16]
 258:Drivers/STM32F0xx_HAL_Driver/Src/stm32f0xx_hal_exti.c **** 
 259:Drivers/STM32F0xx_HAL_Driver/Src/stm32f0xx_hal_exti.c ****   /* 1] Get core mode : interrupt */
 260:Drivers/STM32F0xx_HAL_Driver/Src/stm32f0xx_hal_exti.c **** 
 261:Drivers/STM32F0xx_HAL_Driver/Src/stm32f0xx_hal_exti.c ****   /* Check if selected line is enable */
 262:Drivers/STM32F0xx_HAL_Driver/Src/stm32f0xx_hal_exti.c ****   if ((EXTI->IMR & maskline) != 0x00u)
 337              		.loc 1 262 12
 338 0036 2B4B     		ldr	r3, .L26
 339 0038 1B68     		ldr	r3, [r3]
 340              		.loc 1 262 18
 341 003a 3A69     		ldr	r2, [r7, #16]
 342 003c 1340     		ands	r3, r2
 343              		.loc 1 262 6
 344 003e 03D0     		beq	.L20
 263:Drivers/STM32F0xx_HAL_Driver/Src/stm32f0xx_hal_exti.c ****   {
 264:Drivers/STM32F0xx_HAL_Driver/Src/stm32f0xx_hal_exti.c ****     pExtiConfig->Mode = EXTI_MODE_INTERRUPT;
 345              		.loc 1 264 23
 346 0040 3B68     		ldr	r3, [r7]
 347 0042 0122     		movs	r2, #1
 348 0044 5A60     		str	r2, [r3, #4]
 349 0046 02E0     		b	.L21
 350              	.L20:
 265:Drivers/STM32F0xx_HAL_Driver/Src/stm32f0xx_hal_exti.c ****   }
 266:Drivers/STM32F0xx_HAL_Driver/Src/stm32f0xx_hal_exti.c ****   else
 267:Drivers/STM32F0xx_HAL_Driver/Src/stm32f0xx_hal_exti.c ****   {
 268:Drivers/STM32F0xx_HAL_Driver/Src/stm32f0xx_hal_exti.c ****     pExtiConfig->Mode = EXTI_MODE_NONE;
 351              		.loc 1 268 23
 352 0048 3B68     		ldr	r3, [r7]
 353 004a 0022     		movs	r2, #0
 354 004c 5A60     		str	r2, [r3, #4]
 355              	.L21:
 269:Drivers/STM32F0xx_HAL_Driver/Src/stm32f0xx_hal_exti.c ****   }
 270:Drivers/STM32F0xx_HAL_Driver/Src/stm32f0xx_hal_exti.c **** 
 271:Drivers/STM32F0xx_HAL_Driver/Src/stm32f0xx_hal_exti.c ****   /* Get event mode */
 272:Drivers/STM32F0xx_HAL_Driver/Src/stm32f0xx_hal_exti.c ****   /* Check if selected line is enable */
 273:Drivers/STM32F0xx_HAL_Driver/Src/stm32f0xx_hal_exti.c ****   if ((EXTI->EMR & maskline) != 0x00u)
 356              		.loc 1 273 12
 357 004e 254B     		ldr	r3, .L26
ARM GAS  C:\Users\mason\AppData\Local\Temp\cc7kQsjS.s 			page 12


 358 0050 5B68     		ldr	r3, [r3, #4]
 359              		.loc 1 273 18
 360 0052 3A69     		ldr	r2, [r7, #16]
 361 0054 1340     		ands	r3, r2
 362              		.loc 1 273 6
 363 0056 05D0     		beq	.L22
 274:Drivers/STM32F0xx_HAL_Driver/Src/stm32f0xx_hal_exti.c ****   {
 275:Drivers/STM32F0xx_HAL_Driver/Src/stm32f0xx_hal_exti.c ****     pExtiConfig->Mode |= EXTI_MODE_EVENT;
 364              		.loc 1 275 23
 365 0058 3B68     		ldr	r3, [r7]
 366 005a 5B68     		ldr	r3, [r3, #4]
 367 005c 0222     		movs	r2, #2
 368 005e 1A43     		orrs	r2, r3
 369 0060 3B68     		ldr	r3, [r7]
 370 0062 5A60     		str	r2, [r3, #4]
 371              	.L22:
 276:Drivers/STM32F0xx_HAL_Driver/Src/stm32f0xx_hal_exti.c ****   }
 277:Drivers/STM32F0xx_HAL_Driver/Src/stm32f0xx_hal_exti.c **** 
 278:Drivers/STM32F0xx_HAL_Driver/Src/stm32f0xx_hal_exti.c ****   /* Get default Trigger and GPIOSel configuration */
 279:Drivers/STM32F0xx_HAL_Driver/Src/stm32f0xx_hal_exti.c ****   pExtiConfig->Trigger = EXTI_TRIGGER_NONE;
 372              		.loc 1 279 24
 373 0064 3B68     		ldr	r3, [r7]
 374 0066 0022     		movs	r2, #0
 375 0068 9A60     		str	r2, [r3, #8]
 280:Drivers/STM32F0xx_HAL_Driver/Src/stm32f0xx_hal_exti.c ****   pExtiConfig->GPIOSel = 0x00u;
 376              		.loc 1 280 24
 377 006a 3B68     		ldr	r3, [r7]
 378 006c 0022     		movs	r2, #0
 379 006e DA60     		str	r2, [r3, #12]
 281:Drivers/STM32F0xx_HAL_Driver/Src/stm32f0xx_hal_exti.c **** 
 282:Drivers/STM32F0xx_HAL_Driver/Src/stm32f0xx_hal_exti.c ****   /* 2] Get trigger for configurable lines : rising */
 283:Drivers/STM32F0xx_HAL_Driver/Src/stm32f0xx_hal_exti.c ****   if ((pExtiConfig->Line & EXTI_CONFIG) != 0x00u)
 380              		.loc 1 283 19
 381 0070 3B68     		ldr	r3, [r7]
 382 0072 1A68     		ldr	r2, [r3]
 383              		.loc 1 283 26
 384 0074 8023     		movs	r3, #128
 385 0076 9B04     		lsls	r3, r3, #18
 386 0078 1340     		ands	r3, r2
 387              		.loc 1 283 6
 388 007a 2DD0     		beq	.L23
 284:Drivers/STM32F0xx_HAL_Driver/Src/stm32f0xx_hal_exti.c ****   {
 285:Drivers/STM32F0xx_HAL_Driver/Src/stm32f0xx_hal_exti.c ****     /* Check if configuration of selected line is enable */
 286:Drivers/STM32F0xx_HAL_Driver/Src/stm32f0xx_hal_exti.c ****     if ((EXTI->RTSR & maskline) != 0x00u)
 389              		.loc 1 286 14
 390 007c 194B     		ldr	r3, .L26
 391 007e 9B68     		ldr	r3, [r3, #8]
 392              		.loc 1 286 21
 393 0080 3A69     		ldr	r2, [r7, #16]
 394 0082 1340     		ands	r3, r2
 395              		.loc 1 286 8
 396 0084 02D0     		beq	.L24
 287:Drivers/STM32F0xx_HAL_Driver/Src/stm32f0xx_hal_exti.c ****     {
 288:Drivers/STM32F0xx_HAL_Driver/Src/stm32f0xx_hal_exti.c ****       pExtiConfig->Trigger = EXTI_TRIGGER_RISING;
 397              		.loc 1 288 28
 398 0086 3B68     		ldr	r3, [r7]
 399 0088 0122     		movs	r2, #1
ARM GAS  C:\Users\mason\AppData\Local\Temp\cc7kQsjS.s 			page 13


 400 008a 9A60     		str	r2, [r3, #8]
 401              	.L24:
 289:Drivers/STM32F0xx_HAL_Driver/Src/stm32f0xx_hal_exti.c ****     }
 290:Drivers/STM32F0xx_HAL_Driver/Src/stm32f0xx_hal_exti.c **** 
 291:Drivers/STM32F0xx_HAL_Driver/Src/stm32f0xx_hal_exti.c ****     /* Get falling configuration */
 292:Drivers/STM32F0xx_HAL_Driver/Src/stm32f0xx_hal_exti.c ****     /* Check if configuration of selected line is enable */
 293:Drivers/STM32F0xx_HAL_Driver/Src/stm32f0xx_hal_exti.c ****     if ((EXTI->FTSR & maskline) != 0x00u)
 402              		.loc 1 293 14
 403 008c 154B     		ldr	r3, .L26
 404 008e DB68     		ldr	r3, [r3, #12]
 405              		.loc 1 293 21
 406 0090 3A69     		ldr	r2, [r7, #16]
 407 0092 1340     		ands	r3, r2
 408              		.loc 1 293 8
 409 0094 05D0     		beq	.L25
 294:Drivers/STM32F0xx_HAL_Driver/Src/stm32f0xx_hal_exti.c ****     {
 295:Drivers/STM32F0xx_HAL_Driver/Src/stm32f0xx_hal_exti.c ****       pExtiConfig->Trigger |= EXTI_TRIGGER_FALLING;
 410              		.loc 1 295 28
 411 0096 3B68     		ldr	r3, [r7]
 412 0098 9B68     		ldr	r3, [r3, #8]
 413 009a 0222     		movs	r2, #2
 414 009c 1A43     		orrs	r2, r3
 415 009e 3B68     		ldr	r3, [r7]
 416 00a0 9A60     		str	r2, [r3, #8]
 417              	.L25:
 296:Drivers/STM32F0xx_HAL_Driver/Src/stm32f0xx_hal_exti.c ****     }
 297:Drivers/STM32F0xx_HAL_Driver/Src/stm32f0xx_hal_exti.c **** 
 298:Drivers/STM32F0xx_HAL_Driver/Src/stm32f0xx_hal_exti.c ****     /* Get Gpio port selection for gpio lines */
 299:Drivers/STM32F0xx_HAL_Driver/Src/stm32f0xx_hal_exti.c ****     if ((pExtiConfig->Line & EXTI_GPIO) == EXTI_GPIO)
 418              		.loc 1 299 21
 419 00a2 3B68     		ldr	r3, [r7]
 420 00a4 1A68     		ldr	r2, [r3]
 421              		.loc 1 299 28
 422 00a6 C023     		movs	r3, #192
 423 00a8 DB04     		lsls	r3, r3, #19
 424 00aa 1A40     		ands	r2, r3
 425              		.loc 1 299 8
 426 00ac C023     		movs	r3, #192
 427 00ae DB04     		lsls	r3, r3, #19
 428 00b0 9A42     		cmp	r2, r3
 429 00b2 11D1     		bne	.L23
 300:Drivers/STM32F0xx_HAL_Driver/Src/stm32f0xx_hal_exti.c ****     {
 301:Drivers/STM32F0xx_HAL_Driver/Src/stm32f0xx_hal_exti.c ****       assert_param(IS_EXTI_GPIO_PIN(linepos));
 302:Drivers/STM32F0xx_HAL_Driver/Src/stm32f0xx_hal_exti.c **** 
 303:Drivers/STM32F0xx_HAL_Driver/Src/stm32f0xx_hal_exti.c ****       regval = SYSCFG->EXTICR[linepos >> 2u];
 430              		.loc 1 303 22
 431 00b4 0C4A     		ldr	r2, .L26+4
 432              		.loc 1 303 39
 433 00b6 7B69     		ldr	r3, [r7, #20]
 434 00b8 9B08     		lsrs	r3, r3, #2
 435              		.loc 1 303 14
 436 00ba 0233     		adds	r3, r3, #2
 437 00bc 9B00     		lsls	r3, r3, #2
 438 00be 9B58     		ldr	r3, [r3, r2]
 439 00c0 FB60     		str	r3, [r7, #12]
 304:Drivers/STM32F0xx_HAL_Driver/Src/stm32f0xx_hal_exti.c ****       pExtiConfig->GPIOSel = (regval >> (SYSCFG_EXTICR1_EXTI1_Pos * (linepos & 0x03u))) & SYSCFG_EX
 440              		.loc 1 304 78
ARM GAS  C:\Users\mason\AppData\Local\Temp\cc7kQsjS.s 			page 14


 441 00c2 7B69     		ldr	r3, [r7, #20]
 442 00c4 0322     		movs	r2, #3
 443 00c6 1340     		ands	r3, r2
 444              		.loc 1 304 67
 445 00c8 9B00     		lsls	r3, r3, #2
 446              		.loc 1 304 38
 447 00ca FA68     		ldr	r2, [r7, #12]
 448 00cc DA40     		lsrs	r2, r2, r3
 449 00ce 1300     		movs	r3, r2
 450              		.loc 1 304 89
 451 00d0 0F22     		movs	r2, #15
 452 00d2 1A40     		ands	r2, r3
 453              		.loc 1 304 28
 454 00d4 3B68     		ldr	r3, [r7]
 455 00d6 DA60     		str	r2, [r3, #12]
 456              	.L23:
 305:Drivers/STM32F0xx_HAL_Driver/Src/stm32f0xx_hal_exti.c ****     }
 306:Drivers/STM32F0xx_HAL_Driver/Src/stm32f0xx_hal_exti.c ****   }
 307:Drivers/STM32F0xx_HAL_Driver/Src/stm32f0xx_hal_exti.c **** 
 308:Drivers/STM32F0xx_HAL_Driver/Src/stm32f0xx_hal_exti.c ****   return HAL_OK;
 457              		.loc 1 308 10
 458 00d8 0023     		movs	r3, #0
 459              	.L19:
 309:Drivers/STM32F0xx_HAL_Driver/Src/stm32f0xx_hal_exti.c **** }
 460              		.loc 1 309 1
 461 00da 1800     		movs	r0, r3
 462 00dc BD46     		mov	sp, r7
 463 00de 06B0     		add	sp, sp, #24
 464              		@ sp needed
 465 00e0 80BD     		pop	{r7, pc}
 466              	.L27:
 467 00e2 C046     		.align	2
 468              	.L26:
 469 00e4 00040140 		.word	1073808384
 470 00e8 00000140 		.word	1073807360
 471              		.cfi_endproc
 472              	.LFE41:
 474              		.section	.text.HAL_EXTI_ClearConfigLine,"ax",%progbits
 475              		.align	1
 476              		.global	HAL_EXTI_ClearConfigLine
 477              		.syntax unified
 478              		.code	16
 479              		.thumb_func
 481              	HAL_EXTI_ClearConfigLine:
 482              	.LFB42:
 310:Drivers/STM32F0xx_HAL_Driver/Src/stm32f0xx_hal_exti.c **** 
 311:Drivers/STM32F0xx_HAL_Driver/Src/stm32f0xx_hal_exti.c **** /**
 312:Drivers/STM32F0xx_HAL_Driver/Src/stm32f0xx_hal_exti.c ****   * @brief  Clear whole configuration of a dedicated Exti line.
 313:Drivers/STM32F0xx_HAL_Driver/Src/stm32f0xx_hal_exti.c ****   * @param  hexti Exti handle.
 314:Drivers/STM32F0xx_HAL_Driver/Src/stm32f0xx_hal_exti.c ****   * @retval HAL Status.
 315:Drivers/STM32F0xx_HAL_Driver/Src/stm32f0xx_hal_exti.c ****   */
 316:Drivers/STM32F0xx_HAL_Driver/Src/stm32f0xx_hal_exti.c **** HAL_StatusTypeDef HAL_EXTI_ClearConfigLine(EXTI_HandleTypeDef *hexti)
 317:Drivers/STM32F0xx_HAL_Driver/Src/stm32f0xx_hal_exti.c **** {
 483              		.loc 1 317 1
 484              		.cfi_startproc
 485              		@ args = 0, pretend = 0, frame = 24
 486              		@ frame_needed = 1, uses_anonymous_args = 0
ARM GAS  C:\Users\mason\AppData\Local\Temp\cc7kQsjS.s 			page 15


 487 0000 80B5     		push	{r7, lr}
 488              	.LCFI6:
 489              		.cfi_def_cfa_offset 8
 490              		.cfi_offset 7, -8
 491              		.cfi_offset 14, -4
 492 0002 86B0     		sub	sp, sp, #24
 493              	.LCFI7:
 494              		.cfi_def_cfa_offset 32
 495 0004 00AF     		add	r7, sp, #0
 496              	.LCFI8:
 497              		.cfi_def_cfa_register 7
 498 0006 7860     		str	r0, [r7, #4]
 318:Drivers/STM32F0xx_HAL_Driver/Src/stm32f0xx_hal_exti.c ****   uint32_t regval;
 319:Drivers/STM32F0xx_HAL_Driver/Src/stm32f0xx_hal_exti.c ****   uint32_t linepos;
 320:Drivers/STM32F0xx_HAL_Driver/Src/stm32f0xx_hal_exti.c ****   uint32_t maskline;
 321:Drivers/STM32F0xx_HAL_Driver/Src/stm32f0xx_hal_exti.c **** 
 322:Drivers/STM32F0xx_HAL_Driver/Src/stm32f0xx_hal_exti.c ****   /* Check null pointer */
 323:Drivers/STM32F0xx_HAL_Driver/Src/stm32f0xx_hal_exti.c ****   if (hexti == NULL)
 499              		.loc 1 323 6
 500 0008 7B68     		ldr	r3, [r7, #4]
 501 000a 002B     		cmp	r3, #0
 502 000c 01D1     		bne	.L29
 324:Drivers/STM32F0xx_HAL_Driver/Src/stm32f0xx_hal_exti.c ****   {
 325:Drivers/STM32F0xx_HAL_Driver/Src/stm32f0xx_hal_exti.c ****     return HAL_ERROR;
 503              		.loc 1 325 12
 504 000e 0123     		movs	r3, #1
 505 0010 4EE0     		b	.L30
 506              	.L29:
 326:Drivers/STM32F0xx_HAL_Driver/Src/stm32f0xx_hal_exti.c ****   }
 327:Drivers/STM32F0xx_HAL_Driver/Src/stm32f0xx_hal_exti.c **** 
 328:Drivers/STM32F0xx_HAL_Driver/Src/stm32f0xx_hal_exti.c ****   /* Check the parameter */
 329:Drivers/STM32F0xx_HAL_Driver/Src/stm32f0xx_hal_exti.c ****   assert_param(IS_EXTI_LINE(hexti->Line));
 330:Drivers/STM32F0xx_HAL_Driver/Src/stm32f0xx_hal_exti.c **** 
 331:Drivers/STM32F0xx_HAL_Driver/Src/stm32f0xx_hal_exti.c ****   /* compute line mask */
 332:Drivers/STM32F0xx_HAL_Driver/Src/stm32f0xx_hal_exti.c ****   linepos = (hexti->Line & EXTI_PIN_MASK);
 507              		.loc 1 332 19
 508 0012 7B68     		ldr	r3, [r7, #4]
 509 0014 1B68     		ldr	r3, [r3]
 510              		.loc 1 332 11
 511 0016 1F22     		movs	r2, #31
 512 0018 1340     		ands	r3, r2
 513 001a 7B61     		str	r3, [r7, #20]
 333:Drivers/STM32F0xx_HAL_Driver/Src/stm32f0xx_hal_exti.c ****   maskline = (1uL << linepos);
 514              		.loc 1 333 12
 515 001c 0122     		movs	r2, #1
 516 001e 7B69     		ldr	r3, [r7, #20]
 517 0020 9A40     		lsls	r2, r2, r3
 518 0022 1300     		movs	r3, r2
 519 0024 3B61     		str	r3, [r7, #16]
 334:Drivers/STM32F0xx_HAL_Driver/Src/stm32f0xx_hal_exti.c **** 
 335:Drivers/STM32F0xx_HAL_Driver/Src/stm32f0xx_hal_exti.c ****   /* 1] Clear interrupt mode */
 336:Drivers/STM32F0xx_HAL_Driver/Src/stm32f0xx_hal_exti.c ****   EXTI->IMR = (EXTI->IMR & ~maskline);
 520              		.loc 1 336 20
 521 0026 244B     		ldr	r3, .L32
 522 0028 1A68     		ldr	r2, [r3]
 523              		.loc 1 336 28
 524 002a 3B69     		ldr	r3, [r7, #16]
ARM GAS  C:\Users\mason\AppData\Local\Temp\cc7kQsjS.s 			page 16


 525 002c D943     		mvns	r1, r3
 526              		.loc 1 336 7
 527 002e 224B     		ldr	r3, .L32
 528              		.loc 1 336 26
 529 0030 0A40     		ands	r2, r1
 530              		.loc 1 336 13
 531 0032 1A60     		str	r2, [r3]
 337:Drivers/STM32F0xx_HAL_Driver/Src/stm32f0xx_hal_exti.c **** 
 338:Drivers/STM32F0xx_HAL_Driver/Src/stm32f0xx_hal_exti.c ****   /* 2] Clear event mode */
 339:Drivers/STM32F0xx_HAL_Driver/Src/stm32f0xx_hal_exti.c ****   EXTI->EMR = (EXTI->EMR & ~maskline);
 532              		.loc 1 339 20
 533 0034 204B     		ldr	r3, .L32
 534 0036 5A68     		ldr	r2, [r3, #4]
 535              		.loc 1 339 28
 536 0038 3B69     		ldr	r3, [r7, #16]
 537 003a D943     		mvns	r1, r3
 538              		.loc 1 339 7
 539 003c 1E4B     		ldr	r3, .L32
 540              		.loc 1 339 26
 541 003e 0A40     		ands	r2, r1
 542              		.loc 1 339 13
 543 0040 5A60     		str	r2, [r3, #4]
 340:Drivers/STM32F0xx_HAL_Driver/Src/stm32f0xx_hal_exti.c **** 
 341:Drivers/STM32F0xx_HAL_Driver/Src/stm32f0xx_hal_exti.c ****   /* 3] Clear triggers in case of configurable lines */
 342:Drivers/STM32F0xx_HAL_Driver/Src/stm32f0xx_hal_exti.c ****   if ((hexti->Line & EXTI_CONFIG) != 0x00u)
 544              		.loc 1 342 13
 545 0042 7B68     		ldr	r3, [r7, #4]
 546 0044 1A68     		ldr	r2, [r3]
 547              		.loc 1 342 20
 548 0046 8023     		movs	r3, #128
 549 0048 9B04     		lsls	r3, r3, #18
 550 004a 1340     		ands	r3, r2
 551              		.loc 1 342 6
 552 004c 2FD0     		beq	.L31
 343:Drivers/STM32F0xx_HAL_Driver/Src/stm32f0xx_hal_exti.c ****   {
 344:Drivers/STM32F0xx_HAL_Driver/Src/stm32f0xx_hal_exti.c ****     EXTI->RTSR = (EXTI->RTSR & ~maskline);
 553              		.loc 1 344 23
 554 004e 1A4B     		ldr	r3, .L32
 555 0050 9A68     		ldr	r2, [r3, #8]
 556              		.loc 1 344 32
 557 0052 3B69     		ldr	r3, [r7, #16]
 558 0054 D943     		mvns	r1, r3
 559              		.loc 1 344 9
 560 0056 184B     		ldr	r3, .L32
 561              		.loc 1 344 30
 562 0058 0A40     		ands	r2, r1
 563              		.loc 1 344 16
 564 005a 9A60     		str	r2, [r3, #8]
 345:Drivers/STM32F0xx_HAL_Driver/Src/stm32f0xx_hal_exti.c ****     EXTI->FTSR = (EXTI->FTSR & ~maskline);
 565              		.loc 1 345 23
 566 005c 164B     		ldr	r3, .L32
 567 005e DA68     		ldr	r2, [r3, #12]
 568              		.loc 1 345 32
 569 0060 3B69     		ldr	r3, [r7, #16]
 570 0062 D943     		mvns	r1, r3
 571              		.loc 1 345 9
 572 0064 144B     		ldr	r3, .L32
ARM GAS  C:\Users\mason\AppData\Local\Temp\cc7kQsjS.s 			page 17


 573              		.loc 1 345 30
 574 0066 0A40     		ands	r2, r1
 575              		.loc 1 345 16
 576 0068 DA60     		str	r2, [r3, #12]
 346:Drivers/STM32F0xx_HAL_Driver/Src/stm32f0xx_hal_exti.c **** 
 347:Drivers/STM32F0xx_HAL_Driver/Src/stm32f0xx_hal_exti.c ****     /* Get Gpio port selection for gpio lines */
 348:Drivers/STM32F0xx_HAL_Driver/Src/stm32f0xx_hal_exti.c ****     if ((hexti->Line & EXTI_GPIO) == EXTI_GPIO)
 577              		.loc 1 348 15
 578 006a 7B68     		ldr	r3, [r7, #4]
 579 006c 1A68     		ldr	r2, [r3]
 580              		.loc 1 348 22
 581 006e C023     		movs	r3, #192
 582 0070 DB04     		lsls	r3, r3, #19
 583 0072 1A40     		ands	r2, r3
 584              		.loc 1 348 8
 585 0074 C023     		movs	r3, #192
 586 0076 DB04     		lsls	r3, r3, #19
 587 0078 9A42     		cmp	r2, r3
 588 007a 18D1     		bne	.L31
 349:Drivers/STM32F0xx_HAL_Driver/Src/stm32f0xx_hal_exti.c ****     {
 350:Drivers/STM32F0xx_HAL_Driver/Src/stm32f0xx_hal_exti.c ****       assert_param(IS_EXTI_GPIO_PIN(linepos));
 351:Drivers/STM32F0xx_HAL_Driver/Src/stm32f0xx_hal_exti.c **** 
 352:Drivers/STM32F0xx_HAL_Driver/Src/stm32f0xx_hal_exti.c ****       regval = SYSCFG->EXTICR[linepos >> 2u];
 589              		.loc 1 352 22
 590 007c 0F4A     		ldr	r2, .L32+4
 591              		.loc 1 352 39
 592 007e 7B69     		ldr	r3, [r7, #20]
 593 0080 9B08     		lsrs	r3, r3, #2
 594              		.loc 1 352 14
 595 0082 0233     		adds	r3, r3, #2
 596 0084 9B00     		lsls	r3, r3, #2
 597 0086 9B58     		ldr	r3, [r3, r2]
 598 0088 FB60     		str	r3, [r7, #12]
 353:Drivers/STM32F0xx_HAL_Driver/Src/stm32f0xx_hal_exti.c ****       regval &= ~(SYSCFG_EXTICR1_EXTI0 << (SYSCFG_EXTICR1_EXTI1_Pos * (linepos & 0x03u)));
 599              		.loc 1 353 80
 600 008a 7B69     		ldr	r3, [r7, #20]
 601 008c 0322     		movs	r2, #3
 602 008e 1340     		ands	r3, r2
 603              		.loc 1 353 69
 604 0090 9B00     		lsls	r3, r3, #2
 605              		.loc 1 353 40
 606 0092 0F22     		movs	r2, #15
 607 0094 9A40     		lsls	r2, r2, r3
 608 0096 1300     		movs	r3, r2
 609              		.loc 1 353 17
 610 0098 DA43     		mvns	r2, r3
 611              		.loc 1 353 14
 612 009a FB68     		ldr	r3, [r7, #12]
 613 009c 1340     		ands	r3, r2
 614 009e FB60     		str	r3, [r7, #12]
 354:Drivers/STM32F0xx_HAL_Driver/Src/stm32f0xx_hal_exti.c ****       SYSCFG->EXTICR[linepos >> 2u] = regval;
 615              		.loc 1 354 13
 616 00a0 0649     		ldr	r1, .L32+4
 617              		.loc 1 354 30
 618 00a2 7B69     		ldr	r3, [r7, #20]
 619 00a4 9B08     		lsrs	r3, r3, #2
 620              		.loc 1 354 37
ARM GAS  C:\Users\mason\AppData\Local\Temp\cc7kQsjS.s 			page 18


 621 00a6 0233     		adds	r3, r3, #2
 622 00a8 9B00     		lsls	r3, r3, #2
 623 00aa FA68     		ldr	r2, [r7, #12]
 624 00ac 5A50     		str	r2, [r3, r1]
 625              	.L31:
 355:Drivers/STM32F0xx_HAL_Driver/Src/stm32f0xx_hal_exti.c ****     }
 356:Drivers/STM32F0xx_HAL_Driver/Src/stm32f0xx_hal_exti.c ****   }
 357:Drivers/STM32F0xx_HAL_Driver/Src/stm32f0xx_hal_exti.c **** 
 358:Drivers/STM32F0xx_HAL_Driver/Src/stm32f0xx_hal_exti.c ****   return HAL_OK;
 626              		.loc 1 358 10
 627 00ae 0023     		movs	r3, #0
 628              	.L30:
 359:Drivers/STM32F0xx_HAL_Driver/Src/stm32f0xx_hal_exti.c **** }
 629              		.loc 1 359 1
 630 00b0 1800     		movs	r0, r3
 631 00b2 BD46     		mov	sp, r7
 632 00b4 06B0     		add	sp, sp, #24
 633              		@ sp needed
 634 00b6 80BD     		pop	{r7, pc}
 635              	.L33:
 636              		.align	2
 637              	.L32:
 638 00b8 00040140 		.word	1073808384
 639 00bc 00000140 		.word	1073807360
 640              		.cfi_endproc
 641              	.LFE42:
 643              		.section	.text.HAL_EXTI_RegisterCallback,"ax",%progbits
 644              		.align	1
 645              		.global	HAL_EXTI_RegisterCallback
 646              		.syntax unified
 647              		.code	16
 648              		.thumb_func
 650              	HAL_EXTI_RegisterCallback:
 651              	.LFB43:
 360:Drivers/STM32F0xx_HAL_Driver/Src/stm32f0xx_hal_exti.c **** 
 361:Drivers/STM32F0xx_HAL_Driver/Src/stm32f0xx_hal_exti.c **** /**
 362:Drivers/STM32F0xx_HAL_Driver/Src/stm32f0xx_hal_exti.c ****   * @brief  Register callback for a dedicated Exti line.
 363:Drivers/STM32F0xx_HAL_Driver/Src/stm32f0xx_hal_exti.c ****   * @param  hexti Exti handle.
 364:Drivers/STM32F0xx_HAL_Driver/Src/stm32f0xx_hal_exti.c ****   * @param  CallbackID User callback identifier.
 365:Drivers/STM32F0xx_HAL_Driver/Src/stm32f0xx_hal_exti.c ****   *         This parameter can be one of @arg @ref EXTI_CallbackIDTypeDef values.
 366:Drivers/STM32F0xx_HAL_Driver/Src/stm32f0xx_hal_exti.c ****   * @param  pPendingCbfn function pointer to be stored as callback.
 367:Drivers/STM32F0xx_HAL_Driver/Src/stm32f0xx_hal_exti.c ****   * @retval HAL Status.
 368:Drivers/STM32F0xx_HAL_Driver/Src/stm32f0xx_hal_exti.c ****   */
 369:Drivers/STM32F0xx_HAL_Driver/Src/stm32f0xx_hal_exti.c **** HAL_StatusTypeDef HAL_EXTI_RegisterCallback(EXTI_HandleTypeDef *hexti, EXTI_CallbackIDTypeDef Callb
 370:Drivers/STM32F0xx_HAL_Driver/Src/stm32f0xx_hal_exti.c **** {
 652              		.loc 1 370 1
 653              		.cfi_startproc
 654              		@ args = 0, pretend = 0, frame = 24
 655              		@ frame_needed = 1, uses_anonymous_args = 0
 656 0000 80B5     		push	{r7, lr}
 657              	.LCFI9:
 658              		.cfi_def_cfa_offset 8
 659              		.cfi_offset 7, -8
 660              		.cfi_offset 14, -4
 661 0002 86B0     		sub	sp, sp, #24
 662              	.LCFI10:
 663              		.cfi_def_cfa_offset 32
ARM GAS  C:\Users\mason\AppData\Local\Temp\cc7kQsjS.s 			page 19


 664 0004 00AF     		add	r7, sp, #0
 665              	.LCFI11:
 666              		.cfi_def_cfa_register 7
 667 0006 F860     		str	r0, [r7, #12]
 668 0008 7A60     		str	r2, [r7, #4]
 669 000a 0B20     		movs	r0, #11
 670 000c 3B18     		adds	r3, r7, r0
 671 000e 0A1C     		adds	r2, r1, #0
 672 0010 1A70     		strb	r2, [r3]
 371:Drivers/STM32F0xx_HAL_Driver/Src/stm32f0xx_hal_exti.c ****   HAL_StatusTypeDef status = HAL_OK;
 673              		.loc 1 371 21
 674 0012 1723     		movs	r3, #23
 675 0014 FB18     		adds	r3, r7, r3
 676 0016 0022     		movs	r2, #0
 677 0018 1A70     		strb	r2, [r3]
 372:Drivers/STM32F0xx_HAL_Driver/Src/stm32f0xx_hal_exti.c **** 
 373:Drivers/STM32F0xx_HAL_Driver/Src/stm32f0xx_hal_exti.c ****   switch (CallbackID)
 678              		.loc 1 373 3
 679 001a 3B18     		adds	r3, r7, r0
 680 001c 1B78     		ldrb	r3, [r3]
 681 001e 002B     		cmp	r3, #0
 682 0020 03D1     		bne	.L35
 374:Drivers/STM32F0xx_HAL_Driver/Src/stm32f0xx_hal_exti.c ****   {
 375:Drivers/STM32F0xx_HAL_Driver/Src/stm32f0xx_hal_exti.c ****     case  HAL_EXTI_COMMON_CB_ID:
 376:Drivers/STM32F0xx_HAL_Driver/Src/stm32f0xx_hal_exti.c ****       hexti->PendingCallback = pPendingCbfn;
 683              		.loc 1 376 30
 684 0022 FB68     		ldr	r3, [r7, #12]
 685 0024 7A68     		ldr	r2, [r7, #4]
 686 0026 5A60     		str	r2, [r3, #4]
 377:Drivers/STM32F0xx_HAL_Driver/Src/stm32f0xx_hal_exti.c ****       break;
 687              		.loc 1 377 7
 688 0028 04E0     		b	.L36
 689              	.L35:
 378:Drivers/STM32F0xx_HAL_Driver/Src/stm32f0xx_hal_exti.c **** 
 379:Drivers/STM32F0xx_HAL_Driver/Src/stm32f0xx_hal_exti.c ****     default:
 380:Drivers/STM32F0xx_HAL_Driver/Src/stm32f0xx_hal_exti.c ****       status = HAL_ERROR;
 690              		.loc 1 380 14
 691 002a 1723     		movs	r3, #23
 692 002c FB18     		adds	r3, r7, r3
 693 002e 0122     		movs	r2, #1
 694 0030 1A70     		strb	r2, [r3]
 381:Drivers/STM32F0xx_HAL_Driver/Src/stm32f0xx_hal_exti.c ****       break;
 695              		.loc 1 381 7
 696 0032 C046     		nop
 697              	.L36:
 382:Drivers/STM32F0xx_HAL_Driver/Src/stm32f0xx_hal_exti.c ****   }
 383:Drivers/STM32F0xx_HAL_Driver/Src/stm32f0xx_hal_exti.c **** 
 384:Drivers/STM32F0xx_HAL_Driver/Src/stm32f0xx_hal_exti.c ****   return status;
 698              		.loc 1 384 10
 699 0034 1723     		movs	r3, #23
 700 0036 FB18     		adds	r3, r7, r3
 701 0038 1B78     		ldrb	r3, [r3]
 385:Drivers/STM32F0xx_HAL_Driver/Src/stm32f0xx_hal_exti.c **** }
 702              		.loc 1 385 1
 703 003a 1800     		movs	r0, r3
 704 003c BD46     		mov	sp, r7
 705 003e 06B0     		add	sp, sp, #24
ARM GAS  C:\Users\mason\AppData\Local\Temp\cc7kQsjS.s 			page 20


 706              		@ sp needed
 707 0040 80BD     		pop	{r7, pc}
 708              		.cfi_endproc
 709              	.LFE43:
 711              		.section	.text.HAL_EXTI_GetHandle,"ax",%progbits
 712              		.align	1
 713              		.global	HAL_EXTI_GetHandle
 714              		.syntax unified
 715              		.code	16
 716              		.thumb_func
 718              	HAL_EXTI_GetHandle:
 719              	.LFB44:
 386:Drivers/STM32F0xx_HAL_Driver/Src/stm32f0xx_hal_exti.c **** 
 387:Drivers/STM32F0xx_HAL_Driver/Src/stm32f0xx_hal_exti.c **** /**
 388:Drivers/STM32F0xx_HAL_Driver/Src/stm32f0xx_hal_exti.c ****   * @brief  Store line number as handle private field.
 389:Drivers/STM32F0xx_HAL_Driver/Src/stm32f0xx_hal_exti.c ****   * @param  hexti Exti handle.
 390:Drivers/STM32F0xx_HAL_Driver/Src/stm32f0xx_hal_exti.c ****   * @param  ExtiLine Exti line number.
 391:Drivers/STM32F0xx_HAL_Driver/Src/stm32f0xx_hal_exti.c ****   *         This parameter can be from 0 to @ref EXTI_LINE_NB.
 392:Drivers/STM32F0xx_HAL_Driver/Src/stm32f0xx_hal_exti.c ****   * @retval HAL Status.
 393:Drivers/STM32F0xx_HAL_Driver/Src/stm32f0xx_hal_exti.c ****   */
 394:Drivers/STM32F0xx_HAL_Driver/Src/stm32f0xx_hal_exti.c **** HAL_StatusTypeDef HAL_EXTI_GetHandle(EXTI_HandleTypeDef *hexti, uint32_t ExtiLine)
 395:Drivers/STM32F0xx_HAL_Driver/Src/stm32f0xx_hal_exti.c **** {
 720              		.loc 1 395 1
 721              		.cfi_startproc
 722              		@ args = 0, pretend = 0, frame = 8
 723              		@ frame_needed = 1, uses_anonymous_args = 0
 724 0000 80B5     		push	{r7, lr}
 725              	.LCFI12:
 726              		.cfi_def_cfa_offset 8
 727              		.cfi_offset 7, -8
 728              		.cfi_offset 14, -4
 729 0002 82B0     		sub	sp, sp, #8
 730              	.LCFI13:
 731              		.cfi_def_cfa_offset 16
 732 0004 00AF     		add	r7, sp, #0
 733              	.LCFI14:
 734              		.cfi_def_cfa_register 7
 735 0006 7860     		str	r0, [r7, #4]
 736 0008 3960     		str	r1, [r7]
 396:Drivers/STM32F0xx_HAL_Driver/Src/stm32f0xx_hal_exti.c ****   /* Check the parameters */
 397:Drivers/STM32F0xx_HAL_Driver/Src/stm32f0xx_hal_exti.c ****   assert_param(IS_EXTI_LINE(ExtiLine));
 398:Drivers/STM32F0xx_HAL_Driver/Src/stm32f0xx_hal_exti.c **** 
 399:Drivers/STM32F0xx_HAL_Driver/Src/stm32f0xx_hal_exti.c ****   /* Check null pointer */
 400:Drivers/STM32F0xx_HAL_Driver/Src/stm32f0xx_hal_exti.c ****   if (hexti == NULL)
 737              		.loc 1 400 6
 738 000a 7B68     		ldr	r3, [r7, #4]
 739 000c 002B     		cmp	r3, #0
 740 000e 01D1     		bne	.L39
 401:Drivers/STM32F0xx_HAL_Driver/Src/stm32f0xx_hal_exti.c ****   {
 402:Drivers/STM32F0xx_HAL_Driver/Src/stm32f0xx_hal_exti.c ****     return HAL_ERROR;
 741              		.loc 1 402 12
 742 0010 0123     		movs	r3, #1
 743 0012 03E0     		b	.L40
 744              	.L39:
 403:Drivers/STM32F0xx_HAL_Driver/Src/stm32f0xx_hal_exti.c ****   }
 404:Drivers/STM32F0xx_HAL_Driver/Src/stm32f0xx_hal_exti.c ****   else
 405:Drivers/STM32F0xx_HAL_Driver/Src/stm32f0xx_hal_exti.c ****   {
ARM GAS  C:\Users\mason\AppData\Local\Temp\cc7kQsjS.s 			page 21


 406:Drivers/STM32F0xx_HAL_Driver/Src/stm32f0xx_hal_exti.c ****     /* Store line number as handle private field */
 407:Drivers/STM32F0xx_HAL_Driver/Src/stm32f0xx_hal_exti.c ****     hexti->Line = ExtiLine;
 745              		.loc 1 407 17
 746 0014 7B68     		ldr	r3, [r7, #4]
 747 0016 3A68     		ldr	r2, [r7]
 748 0018 1A60     		str	r2, [r3]
 408:Drivers/STM32F0xx_HAL_Driver/Src/stm32f0xx_hal_exti.c **** 
 409:Drivers/STM32F0xx_HAL_Driver/Src/stm32f0xx_hal_exti.c ****     return HAL_OK;
 749              		.loc 1 409 12
 750 001a 0023     		movs	r3, #0
 751              	.L40:
 410:Drivers/STM32F0xx_HAL_Driver/Src/stm32f0xx_hal_exti.c ****   }
 411:Drivers/STM32F0xx_HAL_Driver/Src/stm32f0xx_hal_exti.c **** }
 752              		.loc 1 411 1
 753 001c 1800     		movs	r0, r3
 754 001e BD46     		mov	sp, r7
 755 0020 02B0     		add	sp, sp, #8
 756              		@ sp needed
 757 0022 80BD     		pop	{r7, pc}
 758              		.cfi_endproc
 759              	.LFE44:
 761              		.section	.text.HAL_EXTI_IRQHandler,"ax",%progbits
 762              		.align	1
 763              		.global	HAL_EXTI_IRQHandler
 764              		.syntax unified
 765              		.code	16
 766              		.thumb_func
 768              	HAL_EXTI_IRQHandler:
 769              	.LFB45:
 412:Drivers/STM32F0xx_HAL_Driver/Src/stm32f0xx_hal_exti.c **** 
 413:Drivers/STM32F0xx_HAL_Driver/Src/stm32f0xx_hal_exti.c **** /**
 414:Drivers/STM32F0xx_HAL_Driver/Src/stm32f0xx_hal_exti.c ****   * @}
 415:Drivers/STM32F0xx_HAL_Driver/Src/stm32f0xx_hal_exti.c ****   */
 416:Drivers/STM32F0xx_HAL_Driver/Src/stm32f0xx_hal_exti.c **** 
 417:Drivers/STM32F0xx_HAL_Driver/Src/stm32f0xx_hal_exti.c **** /** @addtogroup EXTI_Exported_Functions_Group2
 418:Drivers/STM32F0xx_HAL_Driver/Src/stm32f0xx_hal_exti.c ****   *  @brief EXTI IO functions.
 419:Drivers/STM32F0xx_HAL_Driver/Src/stm32f0xx_hal_exti.c ****   *
 420:Drivers/STM32F0xx_HAL_Driver/Src/stm32f0xx_hal_exti.c **** @verbatim
 421:Drivers/STM32F0xx_HAL_Driver/Src/stm32f0xx_hal_exti.c ****  ===============================================================================
 422:Drivers/STM32F0xx_HAL_Driver/Src/stm32f0xx_hal_exti.c ****                        ##### IO operation functions #####
 423:Drivers/STM32F0xx_HAL_Driver/Src/stm32f0xx_hal_exti.c ****  ===============================================================================
 424:Drivers/STM32F0xx_HAL_Driver/Src/stm32f0xx_hal_exti.c **** 
 425:Drivers/STM32F0xx_HAL_Driver/Src/stm32f0xx_hal_exti.c **** @endverbatim
 426:Drivers/STM32F0xx_HAL_Driver/Src/stm32f0xx_hal_exti.c ****   * @{
 427:Drivers/STM32F0xx_HAL_Driver/Src/stm32f0xx_hal_exti.c ****   */
 428:Drivers/STM32F0xx_HAL_Driver/Src/stm32f0xx_hal_exti.c **** 
 429:Drivers/STM32F0xx_HAL_Driver/Src/stm32f0xx_hal_exti.c **** /**
 430:Drivers/STM32F0xx_HAL_Driver/Src/stm32f0xx_hal_exti.c ****   * @brief  Handle EXTI interrupt request.
 431:Drivers/STM32F0xx_HAL_Driver/Src/stm32f0xx_hal_exti.c ****   * @param  hexti Exti handle.
 432:Drivers/STM32F0xx_HAL_Driver/Src/stm32f0xx_hal_exti.c ****   * @retval none.
 433:Drivers/STM32F0xx_HAL_Driver/Src/stm32f0xx_hal_exti.c ****   */
 434:Drivers/STM32F0xx_HAL_Driver/Src/stm32f0xx_hal_exti.c **** void HAL_EXTI_IRQHandler(EXTI_HandleTypeDef *hexti)
 435:Drivers/STM32F0xx_HAL_Driver/Src/stm32f0xx_hal_exti.c **** {
 770              		.loc 1 435 1
 771              		.cfi_startproc
 772              		@ args = 0, pretend = 0, frame = 16
 773              		@ frame_needed = 1, uses_anonymous_args = 0
ARM GAS  C:\Users\mason\AppData\Local\Temp\cc7kQsjS.s 			page 22


 774 0000 80B5     		push	{r7, lr}
 775              	.LCFI15:
 776              		.cfi_def_cfa_offset 8
 777              		.cfi_offset 7, -8
 778              		.cfi_offset 14, -4
 779 0002 84B0     		sub	sp, sp, #16
 780              	.LCFI16:
 781              		.cfi_def_cfa_offset 24
 782 0004 00AF     		add	r7, sp, #0
 783              	.LCFI17:
 784              		.cfi_def_cfa_register 7
 785 0006 7860     		str	r0, [r7, #4]
 436:Drivers/STM32F0xx_HAL_Driver/Src/stm32f0xx_hal_exti.c ****   uint32_t regval;
 437:Drivers/STM32F0xx_HAL_Driver/Src/stm32f0xx_hal_exti.c ****   uint32_t maskline;
 438:Drivers/STM32F0xx_HAL_Driver/Src/stm32f0xx_hal_exti.c **** 
 439:Drivers/STM32F0xx_HAL_Driver/Src/stm32f0xx_hal_exti.c ****   /* Compute line mask */
 440:Drivers/STM32F0xx_HAL_Driver/Src/stm32f0xx_hal_exti.c ****   maskline = (1uL << (hexti->Line & EXTI_PIN_MASK));
 786              		.loc 1 440 28
 787 0008 7B68     		ldr	r3, [r7, #4]
 788 000a 1B68     		ldr	r3, [r3]
 789              		.loc 1 440 35
 790 000c 1F22     		movs	r2, #31
 791 000e 1340     		ands	r3, r2
 792              		.loc 1 440 12
 793 0010 0122     		movs	r2, #1
 794 0012 9A40     		lsls	r2, r2, r3
 795 0014 1300     		movs	r3, r2
 796 0016 FB60     		str	r3, [r7, #12]
 441:Drivers/STM32F0xx_HAL_Driver/Src/stm32f0xx_hal_exti.c **** 
 442:Drivers/STM32F0xx_HAL_Driver/Src/stm32f0xx_hal_exti.c ****   /* Get pending bit  */
 443:Drivers/STM32F0xx_HAL_Driver/Src/stm32f0xx_hal_exti.c ****   regval = (EXTI->PR & maskline);
 797              		.loc 1 443 17
 798 0018 0A4B     		ldr	r3, .L44
 799 001a 5A69     		ldr	r2, [r3, #20]
 800              		.loc 1 443 10
 801 001c FB68     		ldr	r3, [r7, #12]
 802 001e 1340     		ands	r3, r2
 803 0020 BB60     		str	r3, [r7, #8]
 444:Drivers/STM32F0xx_HAL_Driver/Src/stm32f0xx_hal_exti.c ****   if (regval != 0x00u)
 804              		.loc 1 444 6
 805 0022 BB68     		ldr	r3, [r7, #8]
 806 0024 002B     		cmp	r3, #0
 807 0026 09D0     		beq	.L43
 445:Drivers/STM32F0xx_HAL_Driver/Src/stm32f0xx_hal_exti.c ****   {
 446:Drivers/STM32F0xx_HAL_Driver/Src/stm32f0xx_hal_exti.c ****     /* Clear pending bit */
 447:Drivers/STM32F0xx_HAL_Driver/Src/stm32f0xx_hal_exti.c ****     EXTI->PR = maskline;
 808              		.loc 1 447 9
 809 0028 064B     		ldr	r3, .L44
 810              		.loc 1 447 14
 811 002a FA68     		ldr	r2, [r7, #12]
 812 002c 5A61     		str	r2, [r3, #20]
 448:Drivers/STM32F0xx_HAL_Driver/Src/stm32f0xx_hal_exti.c **** 
 449:Drivers/STM32F0xx_HAL_Driver/Src/stm32f0xx_hal_exti.c ****     /* Call callback */
 450:Drivers/STM32F0xx_HAL_Driver/Src/stm32f0xx_hal_exti.c ****     if (hexti->PendingCallback != NULL)
 813              		.loc 1 450 14
 814 002e 7B68     		ldr	r3, [r7, #4]
 815 0030 5B68     		ldr	r3, [r3, #4]
ARM GAS  C:\Users\mason\AppData\Local\Temp\cc7kQsjS.s 			page 23


 816              		.loc 1 450 8
 817 0032 002B     		cmp	r3, #0
 818 0034 02D0     		beq	.L43
 451:Drivers/STM32F0xx_HAL_Driver/Src/stm32f0xx_hal_exti.c ****     {
 452:Drivers/STM32F0xx_HAL_Driver/Src/stm32f0xx_hal_exti.c ****       hexti->PendingCallback();
 819              		.loc 1 452 12
 820 0036 7B68     		ldr	r3, [r7, #4]
 821 0038 5B68     		ldr	r3, [r3, #4]
 822              		.loc 1 452 7
 823 003a 9847     		blx	r3
 824              	.LVL0:
 825              	.L43:
 453:Drivers/STM32F0xx_HAL_Driver/Src/stm32f0xx_hal_exti.c ****     }
 454:Drivers/STM32F0xx_HAL_Driver/Src/stm32f0xx_hal_exti.c ****   }
 455:Drivers/STM32F0xx_HAL_Driver/Src/stm32f0xx_hal_exti.c **** }
 826              		.loc 1 455 1
 827 003c C046     		nop
 828 003e BD46     		mov	sp, r7
 829 0040 04B0     		add	sp, sp, #16
 830              		@ sp needed
 831 0042 80BD     		pop	{r7, pc}
 832              	.L45:
 833              		.align	2
 834              	.L44:
 835 0044 00040140 		.word	1073808384
 836              		.cfi_endproc
 837              	.LFE45:
 839              		.section	.text.HAL_EXTI_GetPending,"ax",%progbits
 840              		.align	1
 841              		.global	HAL_EXTI_GetPending
 842              		.syntax unified
 843              		.code	16
 844              		.thumb_func
 846              	HAL_EXTI_GetPending:
 847              	.LFB46:
 456:Drivers/STM32F0xx_HAL_Driver/Src/stm32f0xx_hal_exti.c **** 
 457:Drivers/STM32F0xx_HAL_Driver/Src/stm32f0xx_hal_exti.c **** /**
 458:Drivers/STM32F0xx_HAL_Driver/Src/stm32f0xx_hal_exti.c ****   * @brief  Get interrupt pending bit of a dedicated line.
 459:Drivers/STM32F0xx_HAL_Driver/Src/stm32f0xx_hal_exti.c ****   * @param  hexti Exti handle.
 460:Drivers/STM32F0xx_HAL_Driver/Src/stm32f0xx_hal_exti.c ****   * @param  Edge Specify which pending edge as to be checked.
 461:Drivers/STM32F0xx_HAL_Driver/Src/stm32f0xx_hal_exti.c ****   *         This parameter can be one of the following values:
 462:Drivers/STM32F0xx_HAL_Driver/Src/stm32f0xx_hal_exti.c ****   *           @arg @ref EXTI_TRIGGER_RISING_FALLING
 463:Drivers/STM32F0xx_HAL_Driver/Src/stm32f0xx_hal_exti.c ****   *         This parameter is kept for compatibility with other series.
 464:Drivers/STM32F0xx_HAL_Driver/Src/stm32f0xx_hal_exti.c ****   * @retval 1 if interrupt is pending else 0.
 465:Drivers/STM32F0xx_HAL_Driver/Src/stm32f0xx_hal_exti.c ****   */
 466:Drivers/STM32F0xx_HAL_Driver/Src/stm32f0xx_hal_exti.c **** uint32_t HAL_EXTI_GetPending(EXTI_HandleTypeDef *hexti, uint32_t Edge)
 467:Drivers/STM32F0xx_HAL_Driver/Src/stm32f0xx_hal_exti.c **** {
 848              		.loc 1 467 1
 849              		.cfi_startproc
 850              		@ args = 0, pretend = 0, frame = 24
 851              		@ frame_needed = 1, uses_anonymous_args = 0
 852 0000 80B5     		push	{r7, lr}
 853              	.LCFI18:
 854              		.cfi_def_cfa_offset 8
 855              		.cfi_offset 7, -8
 856              		.cfi_offset 14, -4
 857 0002 86B0     		sub	sp, sp, #24
ARM GAS  C:\Users\mason\AppData\Local\Temp\cc7kQsjS.s 			page 24


 858              	.LCFI19:
 859              		.cfi_def_cfa_offset 32
 860 0004 00AF     		add	r7, sp, #0
 861              	.LCFI20:
 862              		.cfi_def_cfa_register 7
 863 0006 7860     		str	r0, [r7, #4]
 864 0008 3960     		str	r1, [r7]
 468:Drivers/STM32F0xx_HAL_Driver/Src/stm32f0xx_hal_exti.c ****   uint32_t regval;
 469:Drivers/STM32F0xx_HAL_Driver/Src/stm32f0xx_hal_exti.c ****   uint32_t linepos;
 470:Drivers/STM32F0xx_HAL_Driver/Src/stm32f0xx_hal_exti.c ****   uint32_t maskline;
 471:Drivers/STM32F0xx_HAL_Driver/Src/stm32f0xx_hal_exti.c **** 
 472:Drivers/STM32F0xx_HAL_Driver/Src/stm32f0xx_hal_exti.c ****   /* Check parameters */
 473:Drivers/STM32F0xx_HAL_Driver/Src/stm32f0xx_hal_exti.c ****   assert_param(IS_EXTI_LINE(hexti->Line));
 474:Drivers/STM32F0xx_HAL_Driver/Src/stm32f0xx_hal_exti.c ****   assert_param(IS_EXTI_CONFIG_LINE(hexti->Line));
 475:Drivers/STM32F0xx_HAL_Driver/Src/stm32f0xx_hal_exti.c ****   assert_param(IS_EXTI_PENDING_EDGE(Edge));
 476:Drivers/STM32F0xx_HAL_Driver/Src/stm32f0xx_hal_exti.c **** 
 477:Drivers/STM32F0xx_HAL_Driver/Src/stm32f0xx_hal_exti.c ****   /* Compute line mask */
 478:Drivers/STM32F0xx_HAL_Driver/Src/stm32f0xx_hal_exti.c ****   linepos = (hexti->Line & EXTI_PIN_MASK);
 865              		.loc 1 478 19
 866 000a 7B68     		ldr	r3, [r7, #4]
 867 000c 1B68     		ldr	r3, [r3]
 868              		.loc 1 478 11
 869 000e 1F22     		movs	r2, #31
 870 0010 1340     		ands	r3, r2
 871 0012 7B61     		str	r3, [r7, #20]
 479:Drivers/STM32F0xx_HAL_Driver/Src/stm32f0xx_hal_exti.c ****   maskline = (1uL << linepos);
 872              		.loc 1 479 12
 873 0014 0122     		movs	r2, #1
 874 0016 7B69     		ldr	r3, [r7, #20]
 875 0018 9A40     		lsls	r2, r2, r3
 876 001a 1300     		movs	r3, r2
 877 001c 3B61     		str	r3, [r7, #16]
 480:Drivers/STM32F0xx_HAL_Driver/Src/stm32f0xx_hal_exti.c **** 
 481:Drivers/STM32F0xx_HAL_Driver/Src/stm32f0xx_hal_exti.c ****   /* return 1 if bit is set else 0 */
 482:Drivers/STM32F0xx_HAL_Driver/Src/stm32f0xx_hal_exti.c ****   regval = ((EXTI->PR & maskline) >> linepos);
 878              		.loc 1 482 18
 879 001e 064B     		ldr	r3, .L48
 880 0020 5B69     		ldr	r3, [r3, #20]
 881              		.loc 1 482 23
 882 0022 3A69     		ldr	r2, [r7, #16]
 883 0024 1A40     		ands	r2, r3
 884              		.loc 1 482 10
 885 0026 7B69     		ldr	r3, [r7, #20]
 886 0028 DA40     		lsrs	r2, r2, r3
 887 002a 1300     		movs	r3, r2
 888 002c FB60     		str	r3, [r7, #12]
 483:Drivers/STM32F0xx_HAL_Driver/Src/stm32f0xx_hal_exti.c ****   return regval;
 889              		.loc 1 483 10
 890 002e FB68     		ldr	r3, [r7, #12]
 484:Drivers/STM32F0xx_HAL_Driver/Src/stm32f0xx_hal_exti.c **** }
 891              		.loc 1 484 1
 892 0030 1800     		movs	r0, r3
 893 0032 BD46     		mov	sp, r7
 894 0034 06B0     		add	sp, sp, #24
 895              		@ sp needed
 896 0036 80BD     		pop	{r7, pc}
 897              	.L49:
ARM GAS  C:\Users\mason\AppData\Local\Temp\cc7kQsjS.s 			page 25


 898              		.align	2
 899              	.L48:
 900 0038 00040140 		.word	1073808384
 901              		.cfi_endproc
 902              	.LFE46:
 904              		.section	.text.HAL_EXTI_ClearPending,"ax",%progbits
 905              		.align	1
 906              		.global	HAL_EXTI_ClearPending
 907              		.syntax unified
 908              		.code	16
 909              		.thumb_func
 911              	HAL_EXTI_ClearPending:
 912              	.LFB47:
 485:Drivers/STM32F0xx_HAL_Driver/Src/stm32f0xx_hal_exti.c **** 
 486:Drivers/STM32F0xx_HAL_Driver/Src/stm32f0xx_hal_exti.c **** /**
 487:Drivers/STM32F0xx_HAL_Driver/Src/stm32f0xx_hal_exti.c ****   * @brief  Clear interrupt pending bit of a dedicated line.
 488:Drivers/STM32F0xx_HAL_Driver/Src/stm32f0xx_hal_exti.c ****   * @param  hexti Exti handle.
 489:Drivers/STM32F0xx_HAL_Driver/Src/stm32f0xx_hal_exti.c ****   * @param  Edge Specify which pending edge as to be clear.
 490:Drivers/STM32F0xx_HAL_Driver/Src/stm32f0xx_hal_exti.c ****   *         This parameter can be one of the following values:
 491:Drivers/STM32F0xx_HAL_Driver/Src/stm32f0xx_hal_exti.c ****   *           @arg @ref EXTI_TRIGGER_RISING_FALLING
 492:Drivers/STM32F0xx_HAL_Driver/Src/stm32f0xx_hal_exti.c ****   *         This parameter is kept for compatibility with other series.
 493:Drivers/STM32F0xx_HAL_Driver/Src/stm32f0xx_hal_exti.c ****   * @retval None.
 494:Drivers/STM32F0xx_HAL_Driver/Src/stm32f0xx_hal_exti.c ****   */
 495:Drivers/STM32F0xx_HAL_Driver/Src/stm32f0xx_hal_exti.c **** void HAL_EXTI_ClearPending(EXTI_HandleTypeDef *hexti, uint32_t Edge)
 496:Drivers/STM32F0xx_HAL_Driver/Src/stm32f0xx_hal_exti.c **** {
 913              		.loc 1 496 1
 914              		.cfi_startproc
 915              		@ args = 0, pretend = 0, frame = 16
 916              		@ frame_needed = 1, uses_anonymous_args = 0
 917 0000 80B5     		push	{r7, lr}
 918              	.LCFI21:
 919              		.cfi_def_cfa_offset 8
 920              		.cfi_offset 7, -8
 921              		.cfi_offset 14, -4
 922 0002 84B0     		sub	sp, sp, #16
 923              	.LCFI22:
 924              		.cfi_def_cfa_offset 24
 925 0004 00AF     		add	r7, sp, #0
 926              	.LCFI23:
 927              		.cfi_def_cfa_register 7
 928 0006 7860     		str	r0, [r7, #4]
 929 0008 3960     		str	r1, [r7]
 497:Drivers/STM32F0xx_HAL_Driver/Src/stm32f0xx_hal_exti.c ****   uint32_t maskline;
 498:Drivers/STM32F0xx_HAL_Driver/Src/stm32f0xx_hal_exti.c **** 
 499:Drivers/STM32F0xx_HAL_Driver/Src/stm32f0xx_hal_exti.c ****   /* Check parameters */
 500:Drivers/STM32F0xx_HAL_Driver/Src/stm32f0xx_hal_exti.c ****   assert_param(IS_EXTI_LINE(hexti->Line));
 501:Drivers/STM32F0xx_HAL_Driver/Src/stm32f0xx_hal_exti.c ****   assert_param(IS_EXTI_CONFIG_LINE(hexti->Line));
 502:Drivers/STM32F0xx_HAL_Driver/Src/stm32f0xx_hal_exti.c ****   assert_param(IS_EXTI_PENDING_EDGE(Edge));
 503:Drivers/STM32F0xx_HAL_Driver/Src/stm32f0xx_hal_exti.c **** 
 504:Drivers/STM32F0xx_HAL_Driver/Src/stm32f0xx_hal_exti.c ****   /* Compute line mask */
 505:Drivers/STM32F0xx_HAL_Driver/Src/stm32f0xx_hal_exti.c ****   maskline = (1uL << (hexti->Line & EXTI_PIN_MASK));
 930              		.loc 1 505 28
 931 000a 7B68     		ldr	r3, [r7, #4]
 932 000c 1B68     		ldr	r3, [r3]
 933              		.loc 1 505 35
 934 000e 1F22     		movs	r2, #31
 935 0010 1340     		ands	r3, r2
ARM GAS  C:\Users\mason\AppData\Local\Temp\cc7kQsjS.s 			page 26


 936              		.loc 1 505 12
 937 0012 0122     		movs	r2, #1
 938 0014 9A40     		lsls	r2, r2, r3
 939 0016 1300     		movs	r3, r2
 940 0018 FB60     		str	r3, [r7, #12]
 506:Drivers/STM32F0xx_HAL_Driver/Src/stm32f0xx_hal_exti.c **** 
 507:Drivers/STM32F0xx_HAL_Driver/Src/stm32f0xx_hal_exti.c ****   /* Clear Pending bit */
 508:Drivers/STM32F0xx_HAL_Driver/Src/stm32f0xx_hal_exti.c ****   EXTI->PR =  maskline;
 941              		.loc 1 508 7
 942 001a 034B     		ldr	r3, .L51
 943              		.loc 1 508 12
 944 001c FA68     		ldr	r2, [r7, #12]
 945 001e 5A61     		str	r2, [r3, #20]
 509:Drivers/STM32F0xx_HAL_Driver/Src/stm32f0xx_hal_exti.c **** }
 946              		.loc 1 509 1
 947 0020 C046     		nop
 948 0022 BD46     		mov	sp, r7
 949 0024 04B0     		add	sp, sp, #16
 950              		@ sp needed
 951 0026 80BD     		pop	{r7, pc}
 952              	.L52:
 953              		.align	2
 954              	.L51:
 955 0028 00040140 		.word	1073808384
 956              		.cfi_endproc
 957              	.LFE47:
 959              		.section	.text.HAL_EXTI_GenerateSWI,"ax",%progbits
 960              		.align	1
 961              		.global	HAL_EXTI_GenerateSWI
 962              		.syntax unified
 963              		.code	16
 964              		.thumb_func
 966              	HAL_EXTI_GenerateSWI:
 967              	.LFB48:
 510:Drivers/STM32F0xx_HAL_Driver/Src/stm32f0xx_hal_exti.c **** 
 511:Drivers/STM32F0xx_HAL_Driver/Src/stm32f0xx_hal_exti.c **** /**
 512:Drivers/STM32F0xx_HAL_Driver/Src/stm32f0xx_hal_exti.c ****   * @brief  Generate a software interrupt for a dedicated line.
 513:Drivers/STM32F0xx_HAL_Driver/Src/stm32f0xx_hal_exti.c ****   * @param  hexti Exti handle.
 514:Drivers/STM32F0xx_HAL_Driver/Src/stm32f0xx_hal_exti.c ****   * @retval None.
 515:Drivers/STM32F0xx_HAL_Driver/Src/stm32f0xx_hal_exti.c ****   */
 516:Drivers/STM32F0xx_HAL_Driver/Src/stm32f0xx_hal_exti.c **** void HAL_EXTI_GenerateSWI(EXTI_HandleTypeDef *hexti)
 517:Drivers/STM32F0xx_HAL_Driver/Src/stm32f0xx_hal_exti.c **** {
 968              		.loc 1 517 1
 969              		.cfi_startproc
 970              		@ args = 0, pretend = 0, frame = 16
 971              		@ frame_needed = 1, uses_anonymous_args = 0
 972 0000 80B5     		push	{r7, lr}
 973              	.LCFI24:
 974              		.cfi_def_cfa_offset 8
 975              		.cfi_offset 7, -8
 976              		.cfi_offset 14, -4
 977 0002 84B0     		sub	sp, sp, #16
 978              	.LCFI25:
 979              		.cfi_def_cfa_offset 24
 980 0004 00AF     		add	r7, sp, #0
 981              	.LCFI26:
 982              		.cfi_def_cfa_register 7
ARM GAS  C:\Users\mason\AppData\Local\Temp\cc7kQsjS.s 			page 27


 983 0006 7860     		str	r0, [r7, #4]
 518:Drivers/STM32F0xx_HAL_Driver/Src/stm32f0xx_hal_exti.c ****   uint32_t maskline;
 519:Drivers/STM32F0xx_HAL_Driver/Src/stm32f0xx_hal_exti.c **** 
 520:Drivers/STM32F0xx_HAL_Driver/Src/stm32f0xx_hal_exti.c ****   /* Check parameters */
 521:Drivers/STM32F0xx_HAL_Driver/Src/stm32f0xx_hal_exti.c ****   assert_param(IS_EXTI_LINE(hexti->Line));
 522:Drivers/STM32F0xx_HAL_Driver/Src/stm32f0xx_hal_exti.c ****   assert_param(IS_EXTI_CONFIG_LINE(hexti->Line));
 523:Drivers/STM32F0xx_HAL_Driver/Src/stm32f0xx_hal_exti.c **** 
 524:Drivers/STM32F0xx_HAL_Driver/Src/stm32f0xx_hal_exti.c ****   /* Compute line mask */
 525:Drivers/STM32F0xx_HAL_Driver/Src/stm32f0xx_hal_exti.c ****   maskline = (1uL << (hexti->Line & EXTI_PIN_MASK));
 984              		.loc 1 525 28
 985 0008 7B68     		ldr	r3, [r7, #4]
 986 000a 1B68     		ldr	r3, [r3]
 987              		.loc 1 525 35
 988 000c 1F22     		movs	r2, #31
 989 000e 1340     		ands	r3, r2
 990              		.loc 1 525 12
 991 0010 0122     		movs	r2, #1
 992 0012 9A40     		lsls	r2, r2, r3
 993 0014 1300     		movs	r3, r2
 994 0016 FB60     		str	r3, [r7, #12]
 526:Drivers/STM32F0xx_HAL_Driver/Src/stm32f0xx_hal_exti.c **** 
 527:Drivers/STM32F0xx_HAL_Driver/Src/stm32f0xx_hal_exti.c ****   /* Generate Software interrupt */
 528:Drivers/STM32F0xx_HAL_Driver/Src/stm32f0xx_hal_exti.c ****   EXTI->SWIER = maskline;
 995              		.loc 1 528 7
 996 0018 034B     		ldr	r3, .L54
 997              		.loc 1 528 15
 998 001a FA68     		ldr	r2, [r7, #12]
 999 001c 1A61     		str	r2, [r3, #16]
 529:Drivers/STM32F0xx_HAL_Driver/Src/stm32f0xx_hal_exti.c **** }
 1000              		.loc 1 529 1
 1001 001e C046     		nop
 1002 0020 BD46     		mov	sp, r7
 1003 0022 04B0     		add	sp, sp, #16
 1004              		@ sp needed
 1005 0024 80BD     		pop	{r7, pc}
 1006              	.L55:
 1007 0026 C046     		.align	2
 1008              	.L54:
 1009 0028 00040140 		.word	1073808384
 1010              		.cfi_endproc
 1011              	.LFE48:
 1013              		.text
 1014              	.Letext0:
 1015              		.file 2 "c:\\program files (x86)\\openocdarmgccbuildtools\\gcc-arm-none-eabi-10.3-2021.10-win32\\a
 1016              		.file 3 "c:\\program files (x86)\\openocdarmgccbuildtools\\gcc-arm-none-eabi-10.3-2021.10-win32\\a
 1017              		.file 4 "Drivers/CMSIS/Device/ST/STM32F0xx/Include/stm32f031x6.h"
 1018              		.file 5 "Drivers/STM32F0xx_HAL_Driver/Inc/stm32f0xx_hal_def.h"
 1019              		.file 6 "Drivers/STM32F0xx_HAL_Driver/Inc/stm32f0xx_hal_exti.h"
ARM GAS  C:\Users\mason\AppData\Local\Temp\cc7kQsjS.s 			page 28

