ARM GAS  C:\Users\mason\AppData\Local\Temp\ccsS7Myt.s 			page 1


   1              		.cpu cortex-m0
   2              		.arch armv6s-m
   3              		.fpu softvfp
   4              		.eabi_attribute 20, 1
   5              		.eabi_attribute 21, 1
   6              		.eabi_attribute 23, 3
   7              		.eabi_attribute 24, 1
   8              		.eabi_attribute 25, 1
   9              		.eabi_attribute 26, 1
  10              		.eabi_attribute 30, 6
  11              		.eabi_attribute 34, 0
  12              		.eabi_attribute 18, 4
  13              		.file	"stm32f0xx_hal_i2c.c"
  14              		.text
  15              	.Ltext0:
  16              		.cfi_sections	.debug_frame
  17              		.section	.text.HAL_I2C_Init,"ax",%progbits
  18              		.align	1
  19              		.global	HAL_I2C_Init
  20              		.syntax unified
  21              		.code	16
  22              		.thumb_func
  24              	HAL_I2C_Init:
  25              	.LFB40:
  26              		.file 1 "Drivers/STM32F0xx_HAL_Driver/Src/stm32f0xx_hal_i2c.c"
   1:Drivers/STM32F0xx_HAL_Driver/Src/stm32f0xx_hal_i2c.c **** /**
   2:Drivers/STM32F0xx_HAL_Driver/Src/stm32f0xx_hal_i2c.c ****   ******************************************************************************
   3:Drivers/STM32F0xx_HAL_Driver/Src/stm32f0xx_hal_i2c.c ****   * @file    stm32f0xx_hal_i2c.c
   4:Drivers/STM32F0xx_HAL_Driver/Src/stm32f0xx_hal_i2c.c ****   * @author  MCD Application Team
   5:Drivers/STM32F0xx_HAL_Driver/Src/stm32f0xx_hal_i2c.c ****   * @brief   I2C HAL module driver.
   6:Drivers/STM32F0xx_HAL_Driver/Src/stm32f0xx_hal_i2c.c ****   *          This file provides firmware functions to manage the following
   7:Drivers/STM32F0xx_HAL_Driver/Src/stm32f0xx_hal_i2c.c ****   *          functionalities of the Inter Integrated Circuit (I2C) peripheral:
   8:Drivers/STM32F0xx_HAL_Driver/Src/stm32f0xx_hal_i2c.c ****   *           + Initialization and de-initialization functions
   9:Drivers/STM32F0xx_HAL_Driver/Src/stm32f0xx_hal_i2c.c ****   *           + IO operation functions
  10:Drivers/STM32F0xx_HAL_Driver/Src/stm32f0xx_hal_i2c.c ****   *           + Peripheral State and Errors functions
  11:Drivers/STM32F0xx_HAL_Driver/Src/stm32f0xx_hal_i2c.c ****   *
  12:Drivers/STM32F0xx_HAL_Driver/Src/stm32f0xx_hal_i2c.c ****   ******************************************************************************
  13:Drivers/STM32F0xx_HAL_Driver/Src/stm32f0xx_hal_i2c.c ****   * @attention
  14:Drivers/STM32F0xx_HAL_Driver/Src/stm32f0xx_hal_i2c.c ****   *
  15:Drivers/STM32F0xx_HAL_Driver/Src/stm32f0xx_hal_i2c.c ****   * Copyright (c) 2016 STMicroelectronics.
  16:Drivers/STM32F0xx_HAL_Driver/Src/stm32f0xx_hal_i2c.c ****   * All rights reserved.
  17:Drivers/STM32F0xx_HAL_Driver/Src/stm32f0xx_hal_i2c.c ****   *
  18:Drivers/STM32F0xx_HAL_Driver/Src/stm32f0xx_hal_i2c.c ****   * This software is licensed under terms that can be found in the LICENSE file
  19:Drivers/STM32F0xx_HAL_Driver/Src/stm32f0xx_hal_i2c.c ****   * in the root directory of this software component.
  20:Drivers/STM32F0xx_HAL_Driver/Src/stm32f0xx_hal_i2c.c ****   * If no LICENSE file comes with this software, it is provided AS-IS.
  21:Drivers/STM32F0xx_HAL_Driver/Src/stm32f0xx_hal_i2c.c ****   *
  22:Drivers/STM32F0xx_HAL_Driver/Src/stm32f0xx_hal_i2c.c ****   ******************************************************************************
  23:Drivers/STM32F0xx_HAL_Driver/Src/stm32f0xx_hal_i2c.c ****   @verbatim
  24:Drivers/STM32F0xx_HAL_Driver/Src/stm32f0xx_hal_i2c.c ****   ==============================================================================
  25:Drivers/STM32F0xx_HAL_Driver/Src/stm32f0xx_hal_i2c.c ****                         ##### How to use this driver #####
  26:Drivers/STM32F0xx_HAL_Driver/Src/stm32f0xx_hal_i2c.c ****   ==============================================================================
  27:Drivers/STM32F0xx_HAL_Driver/Src/stm32f0xx_hal_i2c.c ****     [..]
  28:Drivers/STM32F0xx_HAL_Driver/Src/stm32f0xx_hal_i2c.c ****     The I2C HAL driver can be used as follows:
  29:Drivers/STM32F0xx_HAL_Driver/Src/stm32f0xx_hal_i2c.c **** 
  30:Drivers/STM32F0xx_HAL_Driver/Src/stm32f0xx_hal_i2c.c ****     (#) Declare a I2C_HandleTypeDef handle structure, for example:
  31:Drivers/STM32F0xx_HAL_Driver/Src/stm32f0xx_hal_i2c.c ****         I2C_HandleTypeDef  hi2c;
  32:Drivers/STM32F0xx_HAL_Driver/Src/stm32f0xx_hal_i2c.c **** 
ARM GAS  C:\Users\mason\AppData\Local\Temp\ccsS7Myt.s 			page 2


  33:Drivers/STM32F0xx_HAL_Driver/Src/stm32f0xx_hal_i2c.c ****     (#)Initialize the I2C low level resources by implementing the HAL_I2C_MspInit() API:
  34:Drivers/STM32F0xx_HAL_Driver/Src/stm32f0xx_hal_i2c.c ****         (##) Enable the I2Cx interface clock
  35:Drivers/STM32F0xx_HAL_Driver/Src/stm32f0xx_hal_i2c.c ****         (##) I2C pins configuration
  36:Drivers/STM32F0xx_HAL_Driver/Src/stm32f0xx_hal_i2c.c ****             (+++) Enable the clock for the I2C GPIOs
  37:Drivers/STM32F0xx_HAL_Driver/Src/stm32f0xx_hal_i2c.c ****             (+++) Configure I2C pins as alternate function open-drain
  38:Drivers/STM32F0xx_HAL_Driver/Src/stm32f0xx_hal_i2c.c ****         (##) NVIC configuration if you need to use interrupt process
  39:Drivers/STM32F0xx_HAL_Driver/Src/stm32f0xx_hal_i2c.c ****             (+++) Configure the I2Cx interrupt priority
  40:Drivers/STM32F0xx_HAL_Driver/Src/stm32f0xx_hal_i2c.c ****             (+++) Enable the NVIC I2C IRQ Channel
  41:Drivers/STM32F0xx_HAL_Driver/Src/stm32f0xx_hal_i2c.c ****         (##) DMA Configuration if you need to use DMA process
  42:Drivers/STM32F0xx_HAL_Driver/Src/stm32f0xx_hal_i2c.c ****             (+++) Declare a DMA_HandleTypeDef handle structure for
  43:Drivers/STM32F0xx_HAL_Driver/Src/stm32f0xx_hal_i2c.c ****                   the transmit or receive channel
  44:Drivers/STM32F0xx_HAL_Driver/Src/stm32f0xx_hal_i2c.c ****             (+++) Enable the DMAx interface clock using
  45:Drivers/STM32F0xx_HAL_Driver/Src/stm32f0xx_hal_i2c.c ****             (+++) Configure the DMA handle parameters
  46:Drivers/STM32F0xx_HAL_Driver/Src/stm32f0xx_hal_i2c.c ****             (+++) Configure the DMA Tx or Rx channel
  47:Drivers/STM32F0xx_HAL_Driver/Src/stm32f0xx_hal_i2c.c ****             (+++) Associate the initialized DMA handle to the hi2c DMA Tx or Rx handle
  48:Drivers/STM32F0xx_HAL_Driver/Src/stm32f0xx_hal_i2c.c ****             (+++) Configure the priority and enable the NVIC for the transfer complete interrupt on
  49:Drivers/STM32F0xx_HAL_Driver/Src/stm32f0xx_hal_i2c.c ****                   the DMA Tx or Rx channel
  50:Drivers/STM32F0xx_HAL_Driver/Src/stm32f0xx_hal_i2c.c **** 
  51:Drivers/STM32F0xx_HAL_Driver/Src/stm32f0xx_hal_i2c.c ****     (#) Configure the Communication Clock Timing, Own Address1, Master Addressing mode, Dual Addres
  52:Drivers/STM32F0xx_HAL_Driver/Src/stm32f0xx_hal_i2c.c ****         Own Address2, Own Address2 Mask, General call and Nostretch mode in the hi2c Init structure
  53:Drivers/STM32F0xx_HAL_Driver/Src/stm32f0xx_hal_i2c.c **** 
  54:Drivers/STM32F0xx_HAL_Driver/Src/stm32f0xx_hal_i2c.c ****     (#) Initialize the I2C registers by calling the HAL_I2C_Init(), configures also the low level H
  55:Drivers/STM32F0xx_HAL_Driver/Src/stm32f0xx_hal_i2c.c ****         (GPIO, CLOCK, NVIC...etc) by calling the customized HAL_I2C_MspInit(&hi2c) API.
  56:Drivers/STM32F0xx_HAL_Driver/Src/stm32f0xx_hal_i2c.c **** 
  57:Drivers/STM32F0xx_HAL_Driver/Src/stm32f0xx_hal_i2c.c ****     (#) To check if target device is ready for communication, use the function HAL_I2C_IsDeviceRead
  58:Drivers/STM32F0xx_HAL_Driver/Src/stm32f0xx_hal_i2c.c **** 
  59:Drivers/STM32F0xx_HAL_Driver/Src/stm32f0xx_hal_i2c.c ****     (#) For I2C IO and IO MEM operations, three operation modes are available within this driver :
  60:Drivers/STM32F0xx_HAL_Driver/Src/stm32f0xx_hal_i2c.c **** 
  61:Drivers/STM32F0xx_HAL_Driver/Src/stm32f0xx_hal_i2c.c ****     *** Polling mode IO operation ***
  62:Drivers/STM32F0xx_HAL_Driver/Src/stm32f0xx_hal_i2c.c ****     =================================
  63:Drivers/STM32F0xx_HAL_Driver/Src/stm32f0xx_hal_i2c.c ****     [..]
  64:Drivers/STM32F0xx_HAL_Driver/Src/stm32f0xx_hal_i2c.c ****       (+) Transmit in master mode an amount of data in blocking mode using HAL_I2C_Master_Transmit(
  65:Drivers/STM32F0xx_HAL_Driver/Src/stm32f0xx_hal_i2c.c ****       (+) Receive in master mode an amount of data in blocking mode using HAL_I2C_Master_Receive()
  66:Drivers/STM32F0xx_HAL_Driver/Src/stm32f0xx_hal_i2c.c ****       (+) Transmit in slave mode an amount of data in blocking mode using HAL_I2C_Slave_Transmit()
  67:Drivers/STM32F0xx_HAL_Driver/Src/stm32f0xx_hal_i2c.c ****       (+) Receive in slave mode an amount of data in blocking mode using HAL_I2C_Slave_Receive()
  68:Drivers/STM32F0xx_HAL_Driver/Src/stm32f0xx_hal_i2c.c **** 
  69:Drivers/STM32F0xx_HAL_Driver/Src/stm32f0xx_hal_i2c.c ****     *** Polling mode IO MEM operation ***
  70:Drivers/STM32F0xx_HAL_Driver/Src/stm32f0xx_hal_i2c.c ****     =====================================
  71:Drivers/STM32F0xx_HAL_Driver/Src/stm32f0xx_hal_i2c.c ****     [..]
  72:Drivers/STM32F0xx_HAL_Driver/Src/stm32f0xx_hal_i2c.c ****       (+) Write an amount of data in blocking mode to a specific memory address using HAL_I2C_Mem_W
  73:Drivers/STM32F0xx_HAL_Driver/Src/stm32f0xx_hal_i2c.c ****       (+) Read an amount of data in blocking mode from a specific memory address using HAL_I2C_Mem_
  74:Drivers/STM32F0xx_HAL_Driver/Src/stm32f0xx_hal_i2c.c **** 
  75:Drivers/STM32F0xx_HAL_Driver/Src/stm32f0xx_hal_i2c.c **** 
  76:Drivers/STM32F0xx_HAL_Driver/Src/stm32f0xx_hal_i2c.c ****     *** Interrupt mode IO operation ***
  77:Drivers/STM32F0xx_HAL_Driver/Src/stm32f0xx_hal_i2c.c ****     ===================================
  78:Drivers/STM32F0xx_HAL_Driver/Src/stm32f0xx_hal_i2c.c ****     [..]
  79:Drivers/STM32F0xx_HAL_Driver/Src/stm32f0xx_hal_i2c.c ****       (+) Transmit in master mode an amount of data in non-blocking mode using HAL_I2C_Master_Trans
  80:Drivers/STM32F0xx_HAL_Driver/Src/stm32f0xx_hal_i2c.c ****       (+) At transmission end of transfer, HAL_I2C_MasterTxCpltCallback() is executed and users can
  81:Drivers/STM32F0xx_HAL_Driver/Src/stm32f0xx_hal_i2c.c ****            add their own code by customization of function pointer HAL_I2C_MasterTxCpltCallback()
  82:Drivers/STM32F0xx_HAL_Driver/Src/stm32f0xx_hal_i2c.c ****       (+) Receive in master mode an amount of data in non-blocking mode using HAL_I2C_Master_Receiv
  83:Drivers/STM32F0xx_HAL_Driver/Src/stm32f0xx_hal_i2c.c ****       (+) At reception end of transfer, HAL_I2C_MasterRxCpltCallback() is executed and users can
  84:Drivers/STM32F0xx_HAL_Driver/Src/stm32f0xx_hal_i2c.c ****            add their own code by customization of function pointer HAL_I2C_MasterRxCpltCallback()
  85:Drivers/STM32F0xx_HAL_Driver/Src/stm32f0xx_hal_i2c.c ****       (+) Transmit in slave mode an amount of data in non-blocking mode using HAL_I2C_Slave_Transmi
  86:Drivers/STM32F0xx_HAL_Driver/Src/stm32f0xx_hal_i2c.c ****       (+) At transmission end of transfer, HAL_I2C_SlaveTxCpltCallback() is executed and users can
  87:Drivers/STM32F0xx_HAL_Driver/Src/stm32f0xx_hal_i2c.c ****            add their own code by customization of function pointer HAL_I2C_SlaveTxCpltCallback()
  88:Drivers/STM32F0xx_HAL_Driver/Src/stm32f0xx_hal_i2c.c ****       (+) Receive in slave mode an amount of data in non-blocking mode using HAL_I2C_Slave_Receive_
  89:Drivers/STM32F0xx_HAL_Driver/Src/stm32f0xx_hal_i2c.c ****       (+) At reception end of transfer, HAL_I2C_SlaveRxCpltCallback() is executed and users can
ARM GAS  C:\Users\mason\AppData\Local\Temp\ccsS7Myt.s 			page 3


  90:Drivers/STM32F0xx_HAL_Driver/Src/stm32f0xx_hal_i2c.c ****            add their own code by customization of function pointer HAL_I2C_SlaveRxCpltCallback()
  91:Drivers/STM32F0xx_HAL_Driver/Src/stm32f0xx_hal_i2c.c ****       (+) In case of transfer Error, HAL_I2C_ErrorCallback() function is executed and users can
  92:Drivers/STM32F0xx_HAL_Driver/Src/stm32f0xx_hal_i2c.c ****            add their own code by customization of function pointer HAL_I2C_ErrorCallback()
  93:Drivers/STM32F0xx_HAL_Driver/Src/stm32f0xx_hal_i2c.c ****       (+) Abort a master I2C process communication with Interrupt using HAL_I2C_Master_Abort_IT()
  94:Drivers/STM32F0xx_HAL_Driver/Src/stm32f0xx_hal_i2c.c ****       (+) End of abort process, HAL_I2C_AbortCpltCallback() is executed and users can
  95:Drivers/STM32F0xx_HAL_Driver/Src/stm32f0xx_hal_i2c.c ****            add their own code by customization of function pointer HAL_I2C_AbortCpltCallback()
  96:Drivers/STM32F0xx_HAL_Driver/Src/stm32f0xx_hal_i2c.c ****       (+) Discard a slave I2C process communication using __HAL_I2C_GENERATE_NACK() macro.
  97:Drivers/STM32F0xx_HAL_Driver/Src/stm32f0xx_hal_i2c.c ****            This action will inform Master to generate a Stop condition to discard the communication
  98:Drivers/STM32F0xx_HAL_Driver/Src/stm32f0xx_hal_i2c.c **** 
  99:Drivers/STM32F0xx_HAL_Driver/Src/stm32f0xx_hal_i2c.c **** 
 100:Drivers/STM32F0xx_HAL_Driver/Src/stm32f0xx_hal_i2c.c ****     *** Interrupt mode or DMA mode IO sequential operation ***
 101:Drivers/STM32F0xx_HAL_Driver/Src/stm32f0xx_hal_i2c.c ****     ==========================================================
 102:Drivers/STM32F0xx_HAL_Driver/Src/stm32f0xx_hal_i2c.c ****     [..]
 103:Drivers/STM32F0xx_HAL_Driver/Src/stm32f0xx_hal_i2c.c ****       (@) These interfaces allow to manage a sequential transfer with a repeated start condition
 104:Drivers/STM32F0xx_HAL_Driver/Src/stm32f0xx_hal_i2c.c ****           when a direction change during transfer
 105:Drivers/STM32F0xx_HAL_Driver/Src/stm32f0xx_hal_i2c.c ****     [..]
 106:Drivers/STM32F0xx_HAL_Driver/Src/stm32f0xx_hal_i2c.c ****       (+) A specific option field manage the different steps of a sequential transfer
 107:Drivers/STM32F0xx_HAL_Driver/Src/stm32f0xx_hal_i2c.c ****       (+) Option field values are defined through I2C_XFEROPTIONS and are listed below:
 108:Drivers/STM32F0xx_HAL_Driver/Src/stm32f0xx_hal_i2c.c ****       (++) I2C_FIRST_AND_LAST_FRAME: No sequential usage, functional is same as associated interfac
 109:Drivers/STM32F0xx_HAL_Driver/Src/stm32f0xx_hal_i2c.c ****            no sequential mode
 110:Drivers/STM32F0xx_HAL_Driver/Src/stm32f0xx_hal_i2c.c ****       (++) I2C_FIRST_FRAME: Sequential usage, this option allow to manage a sequence with start con
 111:Drivers/STM32F0xx_HAL_Driver/Src/stm32f0xx_hal_i2c.c ****                             and data to transfer without a final stop condition
 112:Drivers/STM32F0xx_HAL_Driver/Src/stm32f0xx_hal_i2c.c ****       (++) I2C_FIRST_AND_NEXT_FRAME: Sequential usage (Master only), this option allow to manage a 
 113:Drivers/STM32F0xx_HAL_Driver/Src/stm32f0xx_hal_i2c.c ****                             start condition, address and data to transfer without a final stop cond
 114:Drivers/STM32F0xx_HAL_Driver/Src/stm32f0xx_hal_i2c.c ****                             an then permit a call the same master sequential interface several time
 115:Drivers/STM32F0xx_HAL_Driver/Src/stm32f0xx_hal_i2c.c ****                             (like HAL_I2C_Master_Seq_Transmit_IT() then HAL_I2C_Master_Seq_Transmit
 116:Drivers/STM32F0xx_HAL_Driver/Src/stm32f0xx_hal_i2c.c ****                             or HAL_I2C_Master_Seq_Transmit_DMA() then HAL_I2C_Master_Seq_Transmit_D
 117:Drivers/STM32F0xx_HAL_Driver/Src/stm32f0xx_hal_i2c.c ****       (++) I2C_NEXT_FRAME: Sequential usage, this option allow to manage a sequence with a restart 
 118:Drivers/STM32F0xx_HAL_Driver/Src/stm32f0xx_hal_i2c.c ****                             and with new data to transfer if the direction change or manage only th
 119:Drivers/STM32F0xx_HAL_Driver/Src/stm32f0xx_hal_i2c.c ****                             transfer
 120:Drivers/STM32F0xx_HAL_Driver/Src/stm32f0xx_hal_i2c.c ****                             if no direction change and without a final stop condition in both cases
 121:Drivers/STM32F0xx_HAL_Driver/Src/stm32f0xx_hal_i2c.c ****       (++) I2C_LAST_FRAME: Sequential usage, this option allow to manage a sequance with a restart 
 122:Drivers/STM32F0xx_HAL_Driver/Src/stm32f0xx_hal_i2c.c ****                             and with new data to transfer if the direction change or manage only th
 123:Drivers/STM32F0xx_HAL_Driver/Src/stm32f0xx_hal_i2c.c ****                             transfer
 124:Drivers/STM32F0xx_HAL_Driver/Src/stm32f0xx_hal_i2c.c ****                             if no direction change and with a final stop condition in both cases
 125:Drivers/STM32F0xx_HAL_Driver/Src/stm32f0xx_hal_i2c.c ****       (++) I2C_LAST_FRAME_NO_STOP: Sequential usage (Master only), this option allow to manage a re
 126:Drivers/STM32F0xx_HAL_Driver/Src/stm32f0xx_hal_i2c.c ****                             after several call of the same master sequential interface several time
 127:Drivers/STM32F0xx_HAL_Driver/Src/stm32f0xx_hal_i2c.c ****                             (link with option I2C_FIRST_AND_NEXT_FRAME).
 128:Drivers/STM32F0xx_HAL_Driver/Src/stm32f0xx_hal_i2c.c ****                             Usage can, transfer several bytes one by one using
 129:Drivers/STM32F0xx_HAL_Driver/Src/stm32f0xx_hal_i2c.c ****                               HAL_I2C_Master_Seq_Transmit_IT
 130:Drivers/STM32F0xx_HAL_Driver/Src/stm32f0xx_hal_i2c.c ****                               or HAL_I2C_Master_Seq_Receive_IT
 131:Drivers/STM32F0xx_HAL_Driver/Src/stm32f0xx_hal_i2c.c ****                               or HAL_I2C_Master_Seq_Transmit_DMA
 132:Drivers/STM32F0xx_HAL_Driver/Src/stm32f0xx_hal_i2c.c ****                               or HAL_I2C_Master_Seq_Receive_DMA
 133:Drivers/STM32F0xx_HAL_Driver/Src/stm32f0xx_hal_i2c.c ****                               with option I2C_FIRST_AND_NEXT_FRAME then I2C_NEXT_FRAME.
 134:Drivers/STM32F0xx_HAL_Driver/Src/stm32f0xx_hal_i2c.c ****                              Then usage of this option I2C_LAST_FRAME_NO_STOP at the last Transmit 
 135:Drivers/STM32F0xx_HAL_Driver/Src/stm32f0xx_hal_i2c.c ****                               Receive sequence permit to call the opposite interface Receive or Tra
 136:Drivers/STM32F0xx_HAL_Driver/Src/stm32f0xx_hal_i2c.c ****                               without stopping the communication and so generate a restart conditio
 137:Drivers/STM32F0xx_HAL_Driver/Src/stm32f0xx_hal_i2c.c ****       (++) I2C_OTHER_FRAME: Sequential usage (Master only), this option allow to manage a restart c
 138:Drivers/STM32F0xx_HAL_Driver/Src/stm32f0xx_hal_i2c.c ****                             each call of the same master sequential
 139:Drivers/STM32F0xx_HAL_Driver/Src/stm32f0xx_hal_i2c.c ****                             interface.
 140:Drivers/STM32F0xx_HAL_Driver/Src/stm32f0xx_hal_i2c.c ****                             Usage can, transfer several bytes one by one with a restart with slave 
 141:Drivers/STM32F0xx_HAL_Driver/Src/stm32f0xx_hal_i2c.c ****                             each bytes using
 142:Drivers/STM32F0xx_HAL_Driver/Src/stm32f0xx_hal_i2c.c ****                               HAL_I2C_Master_Seq_Transmit_IT
 143:Drivers/STM32F0xx_HAL_Driver/Src/stm32f0xx_hal_i2c.c ****                               or HAL_I2C_Master_Seq_Receive_IT
 144:Drivers/STM32F0xx_HAL_Driver/Src/stm32f0xx_hal_i2c.c ****                               or HAL_I2C_Master_Seq_Transmit_DMA
 145:Drivers/STM32F0xx_HAL_Driver/Src/stm32f0xx_hal_i2c.c ****                               or HAL_I2C_Master_Seq_Receive_DMA
 146:Drivers/STM32F0xx_HAL_Driver/Src/stm32f0xx_hal_i2c.c ****                               with option I2C_FIRST_FRAME then I2C_OTHER_FRAME.
ARM GAS  C:\Users\mason\AppData\Local\Temp\ccsS7Myt.s 			page 4


 147:Drivers/STM32F0xx_HAL_Driver/Src/stm32f0xx_hal_i2c.c ****                             Then usage of this option I2C_OTHER_AND_LAST_FRAME at the last frame to
 148:Drivers/STM32F0xx_HAL_Driver/Src/stm32f0xx_hal_i2c.c ****                             generation of STOP condition.
 149:Drivers/STM32F0xx_HAL_Driver/Src/stm32f0xx_hal_i2c.c **** 
 150:Drivers/STM32F0xx_HAL_Driver/Src/stm32f0xx_hal_i2c.c ****       (+) Different sequential I2C interfaces are listed below:
 151:Drivers/STM32F0xx_HAL_Driver/Src/stm32f0xx_hal_i2c.c ****       (++) Sequential transmit in master I2C mode an amount of data in non-blocking mode using
 152:Drivers/STM32F0xx_HAL_Driver/Src/stm32f0xx_hal_i2c.c ****             HAL_I2C_Master_Seq_Transmit_IT() or using HAL_I2C_Master_Seq_Transmit_DMA()
 153:Drivers/STM32F0xx_HAL_Driver/Src/stm32f0xx_hal_i2c.c ****       (+++) At transmission end of current frame transfer, HAL_I2C_MasterTxCpltCallback() is execut
 154:Drivers/STM32F0xx_HAL_Driver/Src/stm32f0xx_hal_i2c.c ****             users can add their own code by customization of function pointer HAL_I2C_MasterTxCpltC
 155:Drivers/STM32F0xx_HAL_Driver/Src/stm32f0xx_hal_i2c.c ****       (++) Sequential receive in master I2C mode an amount of data in non-blocking mode using
 156:Drivers/STM32F0xx_HAL_Driver/Src/stm32f0xx_hal_i2c.c ****             HAL_I2C_Master_Seq_Receive_IT() or using HAL_I2C_Master_Seq_Receive_DMA()
 157:Drivers/STM32F0xx_HAL_Driver/Src/stm32f0xx_hal_i2c.c ****       (+++) At reception end of current frame transfer, HAL_I2C_MasterRxCpltCallback() is executed 
 158:Drivers/STM32F0xx_HAL_Driver/Src/stm32f0xx_hal_i2c.c ****            add their own code by customization of function pointer HAL_I2C_MasterRxCpltCallback()
 159:Drivers/STM32F0xx_HAL_Driver/Src/stm32f0xx_hal_i2c.c ****       (++) Abort a master IT or DMA I2C process communication with Interrupt using HAL_I2C_Master_A
 160:Drivers/STM32F0xx_HAL_Driver/Src/stm32f0xx_hal_i2c.c ****       (+++) End of abort process, HAL_I2C_AbortCpltCallback() is executed and users can
 161:Drivers/STM32F0xx_HAL_Driver/Src/stm32f0xx_hal_i2c.c ****            add their own code by customization of function pointer HAL_I2C_AbortCpltCallback()
 162:Drivers/STM32F0xx_HAL_Driver/Src/stm32f0xx_hal_i2c.c ****       (++) Enable/disable the Address listen mode in slave I2C mode using HAL_I2C_EnableListen_IT()
 163:Drivers/STM32F0xx_HAL_Driver/Src/stm32f0xx_hal_i2c.c ****             HAL_I2C_DisableListen_IT()
 164:Drivers/STM32F0xx_HAL_Driver/Src/stm32f0xx_hal_i2c.c ****       (+++) When address slave I2C match, HAL_I2C_AddrCallback() is executed and users can
 165:Drivers/STM32F0xx_HAL_Driver/Src/stm32f0xx_hal_i2c.c ****            add their own code to check the Address Match Code and the transmission direction reques
 166:Drivers/STM32F0xx_HAL_Driver/Src/stm32f0xx_hal_i2c.c ****            (Write/Read).
 167:Drivers/STM32F0xx_HAL_Driver/Src/stm32f0xx_hal_i2c.c ****       (+++) At Listen mode end HAL_I2C_ListenCpltCallback() is executed and users can
 168:Drivers/STM32F0xx_HAL_Driver/Src/stm32f0xx_hal_i2c.c ****           add their own code by customization of function pointer HAL_I2C_ListenCpltCallback()
 169:Drivers/STM32F0xx_HAL_Driver/Src/stm32f0xx_hal_i2c.c ****       (++) Sequential transmit in slave I2C mode an amount of data in non-blocking mode using
 170:Drivers/STM32F0xx_HAL_Driver/Src/stm32f0xx_hal_i2c.c ****             HAL_I2C_Slave_Seq_Transmit_IT() or using HAL_I2C_Slave_Seq_Transmit_DMA()
 171:Drivers/STM32F0xx_HAL_Driver/Src/stm32f0xx_hal_i2c.c ****       (+++) At transmission end of current frame transfer, HAL_I2C_SlaveTxCpltCallback() is execute
 172:Drivers/STM32F0xx_HAL_Driver/Src/stm32f0xx_hal_i2c.c ****             users can add their own code by customization of function pointer HAL_I2C_SlaveTxCpltCa
 173:Drivers/STM32F0xx_HAL_Driver/Src/stm32f0xx_hal_i2c.c ****       (++) Sequential receive in slave I2C mode an amount of data in non-blocking mode using
 174:Drivers/STM32F0xx_HAL_Driver/Src/stm32f0xx_hal_i2c.c ****             HAL_I2C_Slave_Seq_Receive_IT() or using HAL_I2C_Slave_Seq_Receive_DMA()
 175:Drivers/STM32F0xx_HAL_Driver/Src/stm32f0xx_hal_i2c.c ****       (+++) At reception end of current frame transfer, HAL_I2C_SlaveRxCpltCallback() is executed a
 176:Drivers/STM32F0xx_HAL_Driver/Src/stm32f0xx_hal_i2c.c ****            add their own code by customization of function pointer HAL_I2C_SlaveRxCpltCallback()
 177:Drivers/STM32F0xx_HAL_Driver/Src/stm32f0xx_hal_i2c.c ****       (++) In case of transfer Error, HAL_I2C_ErrorCallback() function is executed and users can
 178:Drivers/STM32F0xx_HAL_Driver/Src/stm32f0xx_hal_i2c.c ****            add their own code by customization of function pointer HAL_I2C_ErrorCallback()
 179:Drivers/STM32F0xx_HAL_Driver/Src/stm32f0xx_hal_i2c.c ****       (++) Discard a slave I2C process communication using __HAL_I2C_GENERATE_NACK() macro.
 180:Drivers/STM32F0xx_HAL_Driver/Src/stm32f0xx_hal_i2c.c ****            This action will inform Master to generate a Stop condition to discard the communication
 181:Drivers/STM32F0xx_HAL_Driver/Src/stm32f0xx_hal_i2c.c **** 
 182:Drivers/STM32F0xx_HAL_Driver/Src/stm32f0xx_hal_i2c.c ****     *** Interrupt mode IO MEM operation ***
 183:Drivers/STM32F0xx_HAL_Driver/Src/stm32f0xx_hal_i2c.c ****     =======================================
 184:Drivers/STM32F0xx_HAL_Driver/Src/stm32f0xx_hal_i2c.c ****     [..]
 185:Drivers/STM32F0xx_HAL_Driver/Src/stm32f0xx_hal_i2c.c ****       (+) Write an amount of data in non-blocking mode with Interrupt to a specific memory address 
 186:Drivers/STM32F0xx_HAL_Driver/Src/stm32f0xx_hal_i2c.c ****           HAL_I2C_Mem_Write_IT()
 187:Drivers/STM32F0xx_HAL_Driver/Src/stm32f0xx_hal_i2c.c ****       (+) At Memory end of write transfer, HAL_I2C_MemTxCpltCallback() is executed and users can
 188:Drivers/STM32F0xx_HAL_Driver/Src/stm32f0xx_hal_i2c.c ****            add their own code by customization of function pointer HAL_I2C_MemTxCpltCallback()
 189:Drivers/STM32F0xx_HAL_Driver/Src/stm32f0xx_hal_i2c.c ****       (+) Read an amount of data in non-blocking mode with Interrupt from a specific memory address
 190:Drivers/STM32F0xx_HAL_Driver/Src/stm32f0xx_hal_i2c.c ****           HAL_I2C_Mem_Read_IT()
 191:Drivers/STM32F0xx_HAL_Driver/Src/stm32f0xx_hal_i2c.c ****       (+) At Memory end of read transfer, HAL_I2C_MemRxCpltCallback() is executed and users can
 192:Drivers/STM32F0xx_HAL_Driver/Src/stm32f0xx_hal_i2c.c ****            add their own code by customization of function pointer HAL_I2C_MemRxCpltCallback()
 193:Drivers/STM32F0xx_HAL_Driver/Src/stm32f0xx_hal_i2c.c ****       (+) In case of transfer Error, HAL_I2C_ErrorCallback() function is executed and users can
 194:Drivers/STM32F0xx_HAL_Driver/Src/stm32f0xx_hal_i2c.c ****            add their own code by customization of function pointer HAL_I2C_ErrorCallback()
 195:Drivers/STM32F0xx_HAL_Driver/Src/stm32f0xx_hal_i2c.c **** 
 196:Drivers/STM32F0xx_HAL_Driver/Src/stm32f0xx_hal_i2c.c ****     *** DMA mode IO operation ***
 197:Drivers/STM32F0xx_HAL_Driver/Src/stm32f0xx_hal_i2c.c ****     ==============================
 198:Drivers/STM32F0xx_HAL_Driver/Src/stm32f0xx_hal_i2c.c ****     [..]
 199:Drivers/STM32F0xx_HAL_Driver/Src/stm32f0xx_hal_i2c.c ****       (+) Transmit in master mode an amount of data in non-blocking mode (DMA) using
 200:Drivers/STM32F0xx_HAL_Driver/Src/stm32f0xx_hal_i2c.c ****           HAL_I2C_Master_Transmit_DMA()
 201:Drivers/STM32F0xx_HAL_Driver/Src/stm32f0xx_hal_i2c.c ****       (+) At transmission end of transfer, HAL_I2C_MasterTxCpltCallback() is executed and users can
 202:Drivers/STM32F0xx_HAL_Driver/Src/stm32f0xx_hal_i2c.c ****            add their own code by customization of function pointer HAL_I2C_MasterTxCpltCallback()
 203:Drivers/STM32F0xx_HAL_Driver/Src/stm32f0xx_hal_i2c.c ****       (+) Receive in master mode an amount of data in non-blocking mode (DMA) using
ARM GAS  C:\Users\mason\AppData\Local\Temp\ccsS7Myt.s 			page 5


 204:Drivers/STM32F0xx_HAL_Driver/Src/stm32f0xx_hal_i2c.c ****           HAL_I2C_Master_Receive_DMA()
 205:Drivers/STM32F0xx_HAL_Driver/Src/stm32f0xx_hal_i2c.c ****       (+) At reception end of transfer, HAL_I2C_MasterRxCpltCallback() is executed and users can
 206:Drivers/STM32F0xx_HAL_Driver/Src/stm32f0xx_hal_i2c.c ****            add their own code by customization of function pointer HAL_I2C_MasterRxCpltCallback()
 207:Drivers/STM32F0xx_HAL_Driver/Src/stm32f0xx_hal_i2c.c ****       (+) Transmit in slave mode an amount of data in non-blocking mode (DMA) using
 208:Drivers/STM32F0xx_HAL_Driver/Src/stm32f0xx_hal_i2c.c ****           HAL_I2C_Slave_Transmit_DMA()
 209:Drivers/STM32F0xx_HAL_Driver/Src/stm32f0xx_hal_i2c.c ****       (+) At transmission end of transfer, HAL_I2C_SlaveTxCpltCallback() is executed and users can
 210:Drivers/STM32F0xx_HAL_Driver/Src/stm32f0xx_hal_i2c.c ****            add their own code by customization of function pointer HAL_I2C_SlaveTxCpltCallback()
 211:Drivers/STM32F0xx_HAL_Driver/Src/stm32f0xx_hal_i2c.c ****       (+) Receive in slave mode an amount of data in non-blocking mode (DMA) using
 212:Drivers/STM32F0xx_HAL_Driver/Src/stm32f0xx_hal_i2c.c ****           HAL_I2C_Slave_Receive_DMA()
 213:Drivers/STM32F0xx_HAL_Driver/Src/stm32f0xx_hal_i2c.c ****       (+) At reception end of transfer, HAL_I2C_SlaveRxCpltCallback() is executed and users can
 214:Drivers/STM32F0xx_HAL_Driver/Src/stm32f0xx_hal_i2c.c ****            add their own code by customization of function pointer HAL_I2C_SlaveRxCpltCallback()
 215:Drivers/STM32F0xx_HAL_Driver/Src/stm32f0xx_hal_i2c.c ****       (+) In case of transfer Error, HAL_I2C_ErrorCallback() function is executed and users can
 216:Drivers/STM32F0xx_HAL_Driver/Src/stm32f0xx_hal_i2c.c ****            add their own code by customization of function pointer HAL_I2C_ErrorCallback()
 217:Drivers/STM32F0xx_HAL_Driver/Src/stm32f0xx_hal_i2c.c ****       (+) Abort a master I2C process communication with Interrupt using HAL_I2C_Master_Abort_IT()
 218:Drivers/STM32F0xx_HAL_Driver/Src/stm32f0xx_hal_i2c.c ****       (+) End of abort process, HAL_I2C_AbortCpltCallback() is executed and users can
 219:Drivers/STM32F0xx_HAL_Driver/Src/stm32f0xx_hal_i2c.c ****            add their own code by customization of function pointer HAL_I2C_AbortCpltCallback()
 220:Drivers/STM32F0xx_HAL_Driver/Src/stm32f0xx_hal_i2c.c ****       (+) Discard a slave I2C process communication using __HAL_I2C_GENERATE_NACK() macro.
 221:Drivers/STM32F0xx_HAL_Driver/Src/stm32f0xx_hal_i2c.c ****            This action will inform Master to generate a Stop condition to discard the communication
 222:Drivers/STM32F0xx_HAL_Driver/Src/stm32f0xx_hal_i2c.c **** 
 223:Drivers/STM32F0xx_HAL_Driver/Src/stm32f0xx_hal_i2c.c ****     *** DMA mode IO MEM operation ***
 224:Drivers/STM32F0xx_HAL_Driver/Src/stm32f0xx_hal_i2c.c ****     =================================
 225:Drivers/STM32F0xx_HAL_Driver/Src/stm32f0xx_hal_i2c.c ****     [..]
 226:Drivers/STM32F0xx_HAL_Driver/Src/stm32f0xx_hal_i2c.c ****       (+) Write an amount of data in non-blocking mode with DMA to a specific memory address using
 227:Drivers/STM32F0xx_HAL_Driver/Src/stm32f0xx_hal_i2c.c ****           HAL_I2C_Mem_Write_DMA()
 228:Drivers/STM32F0xx_HAL_Driver/Src/stm32f0xx_hal_i2c.c ****       (+) At Memory end of write transfer, HAL_I2C_MemTxCpltCallback() is executed and users can
 229:Drivers/STM32F0xx_HAL_Driver/Src/stm32f0xx_hal_i2c.c ****            add their own code by customization of function pointer HAL_I2C_MemTxCpltCallback()
 230:Drivers/STM32F0xx_HAL_Driver/Src/stm32f0xx_hal_i2c.c ****       (+) Read an amount of data in non-blocking mode with DMA from a specific memory address using
 231:Drivers/STM32F0xx_HAL_Driver/Src/stm32f0xx_hal_i2c.c ****           HAL_I2C_Mem_Read_DMA()
 232:Drivers/STM32F0xx_HAL_Driver/Src/stm32f0xx_hal_i2c.c ****       (+) At Memory end of read transfer, HAL_I2C_MemRxCpltCallback() is executed and users can
 233:Drivers/STM32F0xx_HAL_Driver/Src/stm32f0xx_hal_i2c.c ****            add their own code by customization of function pointer HAL_I2C_MemRxCpltCallback()
 234:Drivers/STM32F0xx_HAL_Driver/Src/stm32f0xx_hal_i2c.c ****       (+) In case of transfer Error, HAL_I2C_ErrorCallback() function is executed and users can
 235:Drivers/STM32F0xx_HAL_Driver/Src/stm32f0xx_hal_i2c.c ****            add their own code by customization of function pointer HAL_I2C_ErrorCallback()
 236:Drivers/STM32F0xx_HAL_Driver/Src/stm32f0xx_hal_i2c.c **** 
 237:Drivers/STM32F0xx_HAL_Driver/Src/stm32f0xx_hal_i2c.c **** 
 238:Drivers/STM32F0xx_HAL_Driver/Src/stm32f0xx_hal_i2c.c ****      *** I2C HAL driver macros list ***
 239:Drivers/STM32F0xx_HAL_Driver/Src/stm32f0xx_hal_i2c.c ****      ==================================
 240:Drivers/STM32F0xx_HAL_Driver/Src/stm32f0xx_hal_i2c.c ****      [..]
 241:Drivers/STM32F0xx_HAL_Driver/Src/stm32f0xx_hal_i2c.c ****        Below the list of most used macros in I2C HAL driver.
 242:Drivers/STM32F0xx_HAL_Driver/Src/stm32f0xx_hal_i2c.c **** 
 243:Drivers/STM32F0xx_HAL_Driver/Src/stm32f0xx_hal_i2c.c ****       (+) __HAL_I2C_ENABLE: Enable the I2C peripheral
 244:Drivers/STM32F0xx_HAL_Driver/Src/stm32f0xx_hal_i2c.c ****       (+) __HAL_I2C_DISABLE: Disable the I2C peripheral
 245:Drivers/STM32F0xx_HAL_Driver/Src/stm32f0xx_hal_i2c.c ****       (+) __HAL_I2C_GENERATE_NACK: Generate a Non-Acknowledge I2C peripheral in Slave mode
 246:Drivers/STM32F0xx_HAL_Driver/Src/stm32f0xx_hal_i2c.c ****       (+) __HAL_I2C_GET_FLAG: Check whether the specified I2C flag is set or not
 247:Drivers/STM32F0xx_HAL_Driver/Src/stm32f0xx_hal_i2c.c ****       (+) __HAL_I2C_CLEAR_FLAG: Clear the specified I2C pending flag
 248:Drivers/STM32F0xx_HAL_Driver/Src/stm32f0xx_hal_i2c.c ****       (+) __HAL_I2C_ENABLE_IT: Enable the specified I2C interrupt
 249:Drivers/STM32F0xx_HAL_Driver/Src/stm32f0xx_hal_i2c.c ****       (+) __HAL_I2C_DISABLE_IT: Disable the specified I2C interrupt
 250:Drivers/STM32F0xx_HAL_Driver/Src/stm32f0xx_hal_i2c.c **** 
 251:Drivers/STM32F0xx_HAL_Driver/Src/stm32f0xx_hal_i2c.c ****      *** Callback registration ***
 252:Drivers/STM32F0xx_HAL_Driver/Src/stm32f0xx_hal_i2c.c ****      =============================================
 253:Drivers/STM32F0xx_HAL_Driver/Src/stm32f0xx_hal_i2c.c ****     [..]
 254:Drivers/STM32F0xx_HAL_Driver/Src/stm32f0xx_hal_i2c.c ****      The compilation flag USE_HAL_I2C_REGISTER_CALLBACKS when set to 1
 255:Drivers/STM32F0xx_HAL_Driver/Src/stm32f0xx_hal_i2c.c ****      allows the user to configure dynamically the driver callbacks.
 256:Drivers/STM32F0xx_HAL_Driver/Src/stm32f0xx_hal_i2c.c ****      Use Functions HAL_I2C_RegisterCallback() or HAL_I2C_RegisterAddrCallback()
 257:Drivers/STM32F0xx_HAL_Driver/Src/stm32f0xx_hal_i2c.c ****      to register an interrupt callback.
 258:Drivers/STM32F0xx_HAL_Driver/Src/stm32f0xx_hal_i2c.c ****     [..]
 259:Drivers/STM32F0xx_HAL_Driver/Src/stm32f0xx_hal_i2c.c ****      Function HAL_I2C_RegisterCallback() allows to register following callbacks:
 260:Drivers/STM32F0xx_HAL_Driver/Src/stm32f0xx_hal_i2c.c ****        (+) MasterTxCpltCallback : callback for Master transmission end of transfer.
ARM GAS  C:\Users\mason\AppData\Local\Temp\ccsS7Myt.s 			page 6


 261:Drivers/STM32F0xx_HAL_Driver/Src/stm32f0xx_hal_i2c.c ****        (+) MasterRxCpltCallback : callback for Master reception end of transfer.
 262:Drivers/STM32F0xx_HAL_Driver/Src/stm32f0xx_hal_i2c.c ****        (+) SlaveTxCpltCallback  : callback for Slave transmission end of transfer.
 263:Drivers/STM32F0xx_HAL_Driver/Src/stm32f0xx_hal_i2c.c ****        (+) SlaveRxCpltCallback  : callback for Slave reception end of transfer.
 264:Drivers/STM32F0xx_HAL_Driver/Src/stm32f0xx_hal_i2c.c ****        (+) ListenCpltCallback   : callback for end of listen mode.
 265:Drivers/STM32F0xx_HAL_Driver/Src/stm32f0xx_hal_i2c.c ****        (+) MemTxCpltCallback    : callback for Memory transmission end of transfer.
 266:Drivers/STM32F0xx_HAL_Driver/Src/stm32f0xx_hal_i2c.c ****        (+) MemRxCpltCallback    : callback for Memory reception end of transfer.
 267:Drivers/STM32F0xx_HAL_Driver/Src/stm32f0xx_hal_i2c.c ****        (+) ErrorCallback        : callback for error detection.
 268:Drivers/STM32F0xx_HAL_Driver/Src/stm32f0xx_hal_i2c.c ****        (+) AbortCpltCallback    : callback for abort completion process.
 269:Drivers/STM32F0xx_HAL_Driver/Src/stm32f0xx_hal_i2c.c ****        (+) MspInitCallback      : callback for Msp Init.
 270:Drivers/STM32F0xx_HAL_Driver/Src/stm32f0xx_hal_i2c.c ****        (+) MspDeInitCallback    : callback for Msp DeInit.
 271:Drivers/STM32F0xx_HAL_Driver/Src/stm32f0xx_hal_i2c.c ****      This function takes as parameters the HAL peripheral handle, the Callback ID
 272:Drivers/STM32F0xx_HAL_Driver/Src/stm32f0xx_hal_i2c.c ****      and a pointer to the user callback function.
 273:Drivers/STM32F0xx_HAL_Driver/Src/stm32f0xx_hal_i2c.c ****     [..]
 274:Drivers/STM32F0xx_HAL_Driver/Src/stm32f0xx_hal_i2c.c ****      For specific callback AddrCallback use dedicated register callbacks : HAL_I2C_RegisterAddrCall
 275:Drivers/STM32F0xx_HAL_Driver/Src/stm32f0xx_hal_i2c.c ****     [..]
 276:Drivers/STM32F0xx_HAL_Driver/Src/stm32f0xx_hal_i2c.c ****      Use function HAL_I2C_UnRegisterCallback to reset a callback to the default
 277:Drivers/STM32F0xx_HAL_Driver/Src/stm32f0xx_hal_i2c.c ****      weak function.
 278:Drivers/STM32F0xx_HAL_Driver/Src/stm32f0xx_hal_i2c.c ****      HAL_I2C_UnRegisterCallback takes as parameters the HAL peripheral handle,
 279:Drivers/STM32F0xx_HAL_Driver/Src/stm32f0xx_hal_i2c.c ****      and the Callback ID.
 280:Drivers/STM32F0xx_HAL_Driver/Src/stm32f0xx_hal_i2c.c ****      This function allows to reset following callbacks:
 281:Drivers/STM32F0xx_HAL_Driver/Src/stm32f0xx_hal_i2c.c ****        (+) MasterTxCpltCallback : callback for Master transmission end of transfer.
 282:Drivers/STM32F0xx_HAL_Driver/Src/stm32f0xx_hal_i2c.c ****        (+) MasterRxCpltCallback : callback for Master reception end of transfer.
 283:Drivers/STM32F0xx_HAL_Driver/Src/stm32f0xx_hal_i2c.c ****        (+) SlaveTxCpltCallback  : callback for Slave transmission end of transfer.
 284:Drivers/STM32F0xx_HAL_Driver/Src/stm32f0xx_hal_i2c.c ****        (+) SlaveRxCpltCallback  : callback for Slave reception end of transfer.
 285:Drivers/STM32F0xx_HAL_Driver/Src/stm32f0xx_hal_i2c.c ****        (+) ListenCpltCallback   : callback for end of listen mode.
 286:Drivers/STM32F0xx_HAL_Driver/Src/stm32f0xx_hal_i2c.c ****        (+) MemTxCpltCallback    : callback for Memory transmission end of transfer.
 287:Drivers/STM32F0xx_HAL_Driver/Src/stm32f0xx_hal_i2c.c ****        (+) MemRxCpltCallback    : callback for Memory reception end of transfer.
 288:Drivers/STM32F0xx_HAL_Driver/Src/stm32f0xx_hal_i2c.c ****        (+) ErrorCallback        : callback for error detection.
 289:Drivers/STM32F0xx_HAL_Driver/Src/stm32f0xx_hal_i2c.c ****        (+) AbortCpltCallback    : callback for abort completion process.
 290:Drivers/STM32F0xx_HAL_Driver/Src/stm32f0xx_hal_i2c.c ****        (+) MspInitCallback      : callback for Msp Init.
 291:Drivers/STM32F0xx_HAL_Driver/Src/stm32f0xx_hal_i2c.c ****        (+) MspDeInitCallback    : callback for Msp DeInit.
 292:Drivers/STM32F0xx_HAL_Driver/Src/stm32f0xx_hal_i2c.c ****     [..]
 293:Drivers/STM32F0xx_HAL_Driver/Src/stm32f0xx_hal_i2c.c ****      For callback AddrCallback use dedicated register callbacks : HAL_I2C_UnRegisterAddrCallback().
 294:Drivers/STM32F0xx_HAL_Driver/Src/stm32f0xx_hal_i2c.c ****     [..]
 295:Drivers/STM32F0xx_HAL_Driver/Src/stm32f0xx_hal_i2c.c ****      By default, after the HAL_I2C_Init() and when the state is HAL_I2C_STATE_RESET
 296:Drivers/STM32F0xx_HAL_Driver/Src/stm32f0xx_hal_i2c.c ****      all callbacks are set to the corresponding weak functions:
 297:Drivers/STM32F0xx_HAL_Driver/Src/stm32f0xx_hal_i2c.c ****      examples HAL_I2C_MasterTxCpltCallback(), HAL_I2C_MasterRxCpltCallback().
 298:Drivers/STM32F0xx_HAL_Driver/Src/stm32f0xx_hal_i2c.c ****      Exception done for MspInit and MspDeInit functions that are
 299:Drivers/STM32F0xx_HAL_Driver/Src/stm32f0xx_hal_i2c.c ****      reset to the legacy weak functions in the HAL_I2C_Init()/ HAL_I2C_DeInit() only when
 300:Drivers/STM32F0xx_HAL_Driver/Src/stm32f0xx_hal_i2c.c ****      these callbacks are null (not registered beforehand).
 301:Drivers/STM32F0xx_HAL_Driver/Src/stm32f0xx_hal_i2c.c ****      If MspInit or MspDeInit are not null, the HAL_I2C_Init()/ HAL_I2C_DeInit()
 302:Drivers/STM32F0xx_HAL_Driver/Src/stm32f0xx_hal_i2c.c ****      keep and use the user MspInit/MspDeInit callbacks (registered beforehand) whatever the state.
 303:Drivers/STM32F0xx_HAL_Driver/Src/stm32f0xx_hal_i2c.c ****     [..]
 304:Drivers/STM32F0xx_HAL_Driver/Src/stm32f0xx_hal_i2c.c ****      Callbacks can be registered/unregistered in HAL_I2C_STATE_READY state only.
 305:Drivers/STM32F0xx_HAL_Driver/Src/stm32f0xx_hal_i2c.c ****      Exception done MspInit/MspDeInit functions that can be registered/unregistered
 306:Drivers/STM32F0xx_HAL_Driver/Src/stm32f0xx_hal_i2c.c ****      in HAL_I2C_STATE_READY or HAL_I2C_STATE_RESET state,
 307:Drivers/STM32F0xx_HAL_Driver/Src/stm32f0xx_hal_i2c.c ****      thus registered (user) MspInit/DeInit callbacks can be used during the Init/DeInit.
 308:Drivers/STM32F0xx_HAL_Driver/Src/stm32f0xx_hal_i2c.c ****      Then, the user first registers the MspInit/MspDeInit user callbacks
 309:Drivers/STM32F0xx_HAL_Driver/Src/stm32f0xx_hal_i2c.c ****      using HAL_I2C_RegisterCallback() before calling HAL_I2C_DeInit()
 310:Drivers/STM32F0xx_HAL_Driver/Src/stm32f0xx_hal_i2c.c ****      or HAL_I2C_Init() function.
 311:Drivers/STM32F0xx_HAL_Driver/Src/stm32f0xx_hal_i2c.c ****     [..]
 312:Drivers/STM32F0xx_HAL_Driver/Src/stm32f0xx_hal_i2c.c ****      When the compilation flag USE_HAL_I2C_REGISTER_CALLBACKS is set to 0 or
 313:Drivers/STM32F0xx_HAL_Driver/Src/stm32f0xx_hal_i2c.c ****      not defined, the callback registration feature is not available and all callbacks
 314:Drivers/STM32F0xx_HAL_Driver/Src/stm32f0xx_hal_i2c.c ****      are set to the corresponding weak functions.
 315:Drivers/STM32F0xx_HAL_Driver/Src/stm32f0xx_hal_i2c.c **** 
 316:Drivers/STM32F0xx_HAL_Driver/Src/stm32f0xx_hal_i2c.c ****      [..]
 317:Drivers/STM32F0xx_HAL_Driver/Src/stm32f0xx_hal_i2c.c ****        (@) You can refer to the I2C HAL driver header file for more useful macros
ARM GAS  C:\Users\mason\AppData\Local\Temp\ccsS7Myt.s 			page 7


 318:Drivers/STM32F0xx_HAL_Driver/Src/stm32f0xx_hal_i2c.c **** 
 319:Drivers/STM32F0xx_HAL_Driver/Src/stm32f0xx_hal_i2c.c ****   @endverbatim
 320:Drivers/STM32F0xx_HAL_Driver/Src/stm32f0xx_hal_i2c.c ****   */
 321:Drivers/STM32F0xx_HAL_Driver/Src/stm32f0xx_hal_i2c.c **** 
 322:Drivers/STM32F0xx_HAL_Driver/Src/stm32f0xx_hal_i2c.c **** /* Includes ------------------------------------------------------------------*/
 323:Drivers/STM32F0xx_HAL_Driver/Src/stm32f0xx_hal_i2c.c **** #include "stm32f0xx_hal.h"
 324:Drivers/STM32F0xx_HAL_Driver/Src/stm32f0xx_hal_i2c.c **** 
 325:Drivers/STM32F0xx_HAL_Driver/Src/stm32f0xx_hal_i2c.c **** /** @addtogroup STM32F0xx_HAL_Driver
 326:Drivers/STM32F0xx_HAL_Driver/Src/stm32f0xx_hal_i2c.c ****   * @{
 327:Drivers/STM32F0xx_HAL_Driver/Src/stm32f0xx_hal_i2c.c ****   */
 328:Drivers/STM32F0xx_HAL_Driver/Src/stm32f0xx_hal_i2c.c **** 
 329:Drivers/STM32F0xx_HAL_Driver/Src/stm32f0xx_hal_i2c.c **** /** @defgroup I2C I2C
 330:Drivers/STM32F0xx_HAL_Driver/Src/stm32f0xx_hal_i2c.c ****   * @brief I2C HAL module driver
 331:Drivers/STM32F0xx_HAL_Driver/Src/stm32f0xx_hal_i2c.c ****   * @{
 332:Drivers/STM32F0xx_HAL_Driver/Src/stm32f0xx_hal_i2c.c ****   */
 333:Drivers/STM32F0xx_HAL_Driver/Src/stm32f0xx_hal_i2c.c **** 
 334:Drivers/STM32F0xx_HAL_Driver/Src/stm32f0xx_hal_i2c.c **** #ifdef HAL_I2C_MODULE_ENABLED
 335:Drivers/STM32F0xx_HAL_Driver/Src/stm32f0xx_hal_i2c.c **** 
 336:Drivers/STM32F0xx_HAL_Driver/Src/stm32f0xx_hal_i2c.c **** /* Private typedef -----------------------------------------------------------*/
 337:Drivers/STM32F0xx_HAL_Driver/Src/stm32f0xx_hal_i2c.c **** /* Private define ------------------------------------------------------------*/
 338:Drivers/STM32F0xx_HAL_Driver/Src/stm32f0xx_hal_i2c.c **** 
 339:Drivers/STM32F0xx_HAL_Driver/Src/stm32f0xx_hal_i2c.c **** /** @defgroup I2C_Private_Define I2C Private Define
 340:Drivers/STM32F0xx_HAL_Driver/Src/stm32f0xx_hal_i2c.c ****   * @{
 341:Drivers/STM32F0xx_HAL_Driver/Src/stm32f0xx_hal_i2c.c ****   */
 342:Drivers/STM32F0xx_HAL_Driver/Src/stm32f0xx_hal_i2c.c **** #define TIMING_CLEAR_MASK   (0xF0FFFFFFU)  /*!< I2C TIMING clear register Mask */
 343:Drivers/STM32F0xx_HAL_Driver/Src/stm32f0xx_hal_i2c.c **** #define I2C_TIMEOUT_ADDR    (10000U)       /*!< 10 s  */
 344:Drivers/STM32F0xx_HAL_Driver/Src/stm32f0xx_hal_i2c.c **** #define I2C_TIMEOUT_BUSY    (25U)          /*!< 25 ms */
 345:Drivers/STM32F0xx_HAL_Driver/Src/stm32f0xx_hal_i2c.c **** #define I2C_TIMEOUT_DIR     (25U)          /*!< 25 ms */
 346:Drivers/STM32F0xx_HAL_Driver/Src/stm32f0xx_hal_i2c.c **** #define I2C_TIMEOUT_RXNE    (25U)          /*!< 25 ms */
 347:Drivers/STM32F0xx_HAL_Driver/Src/stm32f0xx_hal_i2c.c **** #define I2C_TIMEOUT_STOPF   (25U)          /*!< 25 ms */
 348:Drivers/STM32F0xx_HAL_Driver/Src/stm32f0xx_hal_i2c.c **** #define I2C_TIMEOUT_TC      (25U)          /*!< 25 ms */
 349:Drivers/STM32F0xx_HAL_Driver/Src/stm32f0xx_hal_i2c.c **** #define I2C_TIMEOUT_TCR     (25U)          /*!< 25 ms */
 350:Drivers/STM32F0xx_HAL_Driver/Src/stm32f0xx_hal_i2c.c **** #define I2C_TIMEOUT_TXIS    (25U)          /*!< 25 ms */
 351:Drivers/STM32F0xx_HAL_Driver/Src/stm32f0xx_hal_i2c.c **** #define I2C_TIMEOUT_FLAG    (25U)          /*!< 25 ms */
 352:Drivers/STM32F0xx_HAL_Driver/Src/stm32f0xx_hal_i2c.c **** 
 353:Drivers/STM32F0xx_HAL_Driver/Src/stm32f0xx_hal_i2c.c **** #define MAX_NBYTE_SIZE      255U
 354:Drivers/STM32F0xx_HAL_Driver/Src/stm32f0xx_hal_i2c.c **** #define SLAVE_ADDR_SHIFT     7U
 355:Drivers/STM32F0xx_HAL_Driver/Src/stm32f0xx_hal_i2c.c **** #define SLAVE_ADDR_MSK       0x06U
 356:Drivers/STM32F0xx_HAL_Driver/Src/stm32f0xx_hal_i2c.c **** 
 357:Drivers/STM32F0xx_HAL_Driver/Src/stm32f0xx_hal_i2c.c **** /* Private define for @ref PreviousState usage */
 358:Drivers/STM32F0xx_HAL_Driver/Src/stm32f0xx_hal_i2c.c **** #define I2C_STATE_MSK             ((uint32_t)((uint32_t)((uint32_t)HAL_I2C_STATE_BUSY_TX | \
 359:Drivers/STM32F0xx_HAL_Driver/Src/stm32f0xx_hal_i2c.c ****                                                          (uint32_t)HAL_I2C_STATE_BUSY_RX) & \
 360:Drivers/STM32F0xx_HAL_Driver/Src/stm32f0xx_hal_i2c.c ****                                               (uint32_t)(~((uint32_t)HAL_I2C_STATE_READY))))
 361:Drivers/STM32F0xx_HAL_Driver/Src/stm32f0xx_hal_i2c.c **** /*!< Mask State define, keep only RX and TX bits */
 362:Drivers/STM32F0xx_HAL_Driver/Src/stm32f0xx_hal_i2c.c **** #define I2C_STATE_NONE            ((uint32_t)(HAL_I2C_MODE_NONE))
 363:Drivers/STM32F0xx_HAL_Driver/Src/stm32f0xx_hal_i2c.c **** /*!< Default Value */
 364:Drivers/STM32F0xx_HAL_Driver/Src/stm32f0xx_hal_i2c.c **** #define I2C_STATE_MASTER_BUSY_TX  ((uint32_t)(((uint32_t)HAL_I2C_STATE_BUSY_TX & I2C_STATE_MSK) | \
 365:Drivers/STM32F0xx_HAL_Driver/Src/stm32f0xx_hal_i2c.c ****                                               (uint32_t)HAL_I2C_MODE_MASTER))
 366:Drivers/STM32F0xx_HAL_Driver/Src/stm32f0xx_hal_i2c.c **** /*!< Master Busy TX, combinaison of State LSB and Mode enum */
 367:Drivers/STM32F0xx_HAL_Driver/Src/stm32f0xx_hal_i2c.c **** #define I2C_STATE_MASTER_BUSY_RX  ((uint32_t)(((uint32_t)HAL_I2C_STATE_BUSY_RX & I2C_STATE_MSK) | \
 368:Drivers/STM32F0xx_HAL_Driver/Src/stm32f0xx_hal_i2c.c ****                                               (uint32_t)HAL_I2C_MODE_MASTER))
 369:Drivers/STM32F0xx_HAL_Driver/Src/stm32f0xx_hal_i2c.c **** /*!< Master Busy RX, combinaison of State LSB and Mode enum */
 370:Drivers/STM32F0xx_HAL_Driver/Src/stm32f0xx_hal_i2c.c **** #define I2C_STATE_SLAVE_BUSY_TX   ((uint32_t)(((uint32_t)HAL_I2C_STATE_BUSY_TX & I2C_STATE_MSK) | \
 371:Drivers/STM32F0xx_HAL_Driver/Src/stm32f0xx_hal_i2c.c ****                                               (uint32_t)HAL_I2C_MODE_SLAVE))
 372:Drivers/STM32F0xx_HAL_Driver/Src/stm32f0xx_hal_i2c.c **** /*!< Slave Busy TX, combinaison of State LSB and Mode enum */
 373:Drivers/STM32F0xx_HAL_Driver/Src/stm32f0xx_hal_i2c.c **** #define I2C_STATE_SLAVE_BUSY_RX   ((uint32_t)(((uint32_t)HAL_I2C_STATE_BUSY_RX & I2C_STATE_MSK) | \
 374:Drivers/STM32F0xx_HAL_Driver/Src/stm32f0xx_hal_i2c.c ****                                               (uint32_t)HAL_I2C_MODE_SLAVE))
ARM GAS  C:\Users\mason\AppData\Local\Temp\ccsS7Myt.s 			page 8


 375:Drivers/STM32F0xx_HAL_Driver/Src/stm32f0xx_hal_i2c.c **** /*!< Slave Busy RX, combinaison of State LSB and Mode enum  */
 376:Drivers/STM32F0xx_HAL_Driver/Src/stm32f0xx_hal_i2c.c **** #define I2C_STATE_MEM_BUSY_TX     ((uint32_t)(((uint32_t)HAL_I2C_STATE_BUSY_TX & I2C_STATE_MSK) | \
 377:Drivers/STM32F0xx_HAL_Driver/Src/stm32f0xx_hal_i2c.c ****                                               (uint32_t)HAL_I2C_MODE_MEM))
 378:Drivers/STM32F0xx_HAL_Driver/Src/stm32f0xx_hal_i2c.c **** /*!< Memory Busy TX, combinaison of State LSB and Mode enum */
 379:Drivers/STM32F0xx_HAL_Driver/Src/stm32f0xx_hal_i2c.c **** #define I2C_STATE_MEM_BUSY_RX     ((uint32_t)(((uint32_t)HAL_I2C_STATE_BUSY_RX & I2C_STATE_MSK) | \
 380:Drivers/STM32F0xx_HAL_Driver/Src/stm32f0xx_hal_i2c.c ****                                               (uint32_t)HAL_I2C_MODE_MEM))
 381:Drivers/STM32F0xx_HAL_Driver/Src/stm32f0xx_hal_i2c.c **** /*!< Memory Busy RX, combinaison of State LSB and Mode enum */
 382:Drivers/STM32F0xx_HAL_Driver/Src/stm32f0xx_hal_i2c.c **** 
 383:Drivers/STM32F0xx_HAL_Driver/Src/stm32f0xx_hal_i2c.c **** 
 384:Drivers/STM32F0xx_HAL_Driver/Src/stm32f0xx_hal_i2c.c **** /* Private define to centralize the enable/disable of Interrupts */
 385:Drivers/STM32F0xx_HAL_Driver/Src/stm32f0xx_hal_i2c.c **** #define I2C_XFER_TX_IT          (uint16_t)(0x0001U)   /*!< Bit field can be combinated with
 386:Drivers/STM32F0xx_HAL_Driver/Src/stm32f0xx_hal_i2c.c ****                                                          @ref I2C_XFER_LISTEN_IT */
 387:Drivers/STM32F0xx_HAL_Driver/Src/stm32f0xx_hal_i2c.c **** #define I2C_XFER_RX_IT          (uint16_t)(0x0002U)   /*!< Bit field can be combinated with
 388:Drivers/STM32F0xx_HAL_Driver/Src/stm32f0xx_hal_i2c.c ****                                                          @ref I2C_XFER_LISTEN_IT */
 389:Drivers/STM32F0xx_HAL_Driver/Src/stm32f0xx_hal_i2c.c **** #define I2C_XFER_LISTEN_IT      (uint16_t)(0x8000U)   /*!< Bit field can be combinated with @ref I2
 390:Drivers/STM32F0xx_HAL_Driver/Src/stm32f0xx_hal_i2c.c ****                                                          and @ref I2C_XFER_RX_IT */
 391:Drivers/STM32F0xx_HAL_Driver/Src/stm32f0xx_hal_i2c.c **** 
 392:Drivers/STM32F0xx_HAL_Driver/Src/stm32f0xx_hal_i2c.c **** #define I2C_XFER_ERROR_IT       (uint16_t)(0x0010U)   /*!< Bit definition to manage addition of glo
 393:Drivers/STM32F0xx_HAL_Driver/Src/stm32f0xx_hal_i2c.c ****                                                          and NACK treatment */
 394:Drivers/STM32F0xx_HAL_Driver/Src/stm32f0xx_hal_i2c.c **** #define I2C_XFER_CPLT_IT        (uint16_t)(0x0020U)   /*!< Bit definition to manage only STOP evene
 395:Drivers/STM32F0xx_HAL_Driver/Src/stm32f0xx_hal_i2c.c **** #define I2C_XFER_RELOAD_IT      (uint16_t)(0x0040U)   /*!< Bit definition to manage only Reload of 
 396:Drivers/STM32F0xx_HAL_Driver/Src/stm32f0xx_hal_i2c.c **** 
 397:Drivers/STM32F0xx_HAL_Driver/Src/stm32f0xx_hal_i2c.c **** /* Private define Sequential Transfer Options default/reset value */
 398:Drivers/STM32F0xx_HAL_Driver/Src/stm32f0xx_hal_i2c.c **** #define I2C_NO_OPTION_FRAME     (0xFFFF0000U)
 399:Drivers/STM32F0xx_HAL_Driver/Src/stm32f0xx_hal_i2c.c **** /**
 400:Drivers/STM32F0xx_HAL_Driver/Src/stm32f0xx_hal_i2c.c ****   * @}
 401:Drivers/STM32F0xx_HAL_Driver/Src/stm32f0xx_hal_i2c.c ****   */
 402:Drivers/STM32F0xx_HAL_Driver/Src/stm32f0xx_hal_i2c.c **** 
 403:Drivers/STM32F0xx_HAL_Driver/Src/stm32f0xx_hal_i2c.c **** /* Private macros ------------------------------------------------------------*/
 404:Drivers/STM32F0xx_HAL_Driver/Src/stm32f0xx_hal_i2c.c **** /** @addtogroup I2C_Private_Macro
 405:Drivers/STM32F0xx_HAL_Driver/Src/stm32f0xx_hal_i2c.c ****   * @{
 406:Drivers/STM32F0xx_HAL_Driver/Src/stm32f0xx_hal_i2c.c ****   */
 407:Drivers/STM32F0xx_HAL_Driver/Src/stm32f0xx_hal_i2c.c **** /* Macro to get remaining data to transfer on DMA side */
 408:Drivers/STM32F0xx_HAL_Driver/Src/stm32f0xx_hal_i2c.c **** #define I2C_GET_DMA_REMAIN_DATA(__HANDLE__)     __HAL_DMA_GET_COUNTER(__HANDLE__)
 409:Drivers/STM32F0xx_HAL_Driver/Src/stm32f0xx_hal_i2c.c **** /**
 410:Drivers/STM32F0xx_HAL_Driver/Src/stm32f0xx_hal_i2c.c ****   * @}
 411:Drivers/STM32F0xx_HAL_Driver/Src/stm32f0xx_hal_i2c.c ****   */
 412:Drivers/STM32F0xx_HAL_Driver/Src/stm32f0xx_hal_i2c.c **** 
 413:Drivers/STM32F0xx_HAL_Driver/Src/stm32f0xx_hal_i2c.c **** /* Private variables ---------------------------------------------------------*/
 414:Drivers/STM32F0xx_HAL_Driver/Src/stm32f0xx_hal_i2c.c **** /* Private function prototypes -----------------------------------------------*/
 415:Drivers/STM32F0xx_HAL_Driver/Src/stm32f0xx_hal_i2c.c **** 
 416:Drivers/STM32F0xx_HAL_Driver/Src/stm32f0xx_hal_i2c.c **** /** @defgroup I2C_Private_Functions I2C Private Functions
 417:Drivers/STM32F0xx_HAL_Driver/Src/stm32f0xx_hal_i2c.c ****   * @{
 418:Drivers/STM32F0xx_HAL_Driver/Src/stm32f0xx_hal_i2c.c ****   */
 419:Drivers/STM32F0xx_HAL_Driver/Src/stm32f0xx_hal_i2c.c **** /* Private functions to handle DMA transfer */
 420:Drivers/STM32F0xx_HAL_Driver/Src/stm32f0xx_hal_i2c.c **** static void I2C_DMAMasterTransmitCplt(DMA_HandleTypeDef *hdma);
 421:Drivers/STM32F0xx_HAL_Driver/Src/stm32f0xx_hal_i2c.c **** static void I2C_DMAMasterReceiveCplt(DMA_HandleTypeDef *hdma);
 422:Drivers/STM32F0xx_HAL_Driver/Src/stm32f0xx_hal_i2c.c **** static void I2C_DMASlaveTransmitCplt(DMA_HandleTypeDef *hdma);
 423:Drivers/STM32F0xx_HAL_Driver/Src/stm32f0xx_hal_i2c.c **** static void I2C_DMASlaveReceiveCplt(DMA_HandleTypeDef *hdma);
 424:Drivers/STM32F0xx_HAL_Driver/Src/stm32f0xx_hal_i2c.c **** static void I2C_DMAError(DMA_HandleTypeDef *hdma);
 425:Drivers/STM32F0xx_HAL_Driver/Src/stm32f0xx_hal_i2c.c **** static void I2C_DMAAbort(DMA_HandleTypeDef *hdma);
 426:Drivers/STM32F0xx_HAL_Driver/Src/stm32f0xx_hal_i2c.c **** 
 427:Drivers/STM32F0xx_HAL_Driver/Src/stm32f0xx_hal_i2c.c **** 
 428:Drivers/STM32F0xx_HAL_Driver/Src/stm32f0xx_hal_i2c.c **** /* Private functions to handle IT transfer */
 429:Drivers/STM32F0xx_HAL_Driver/Src/stm32f0xx_hal_i2c.c **** static void I2C_ITAddrCplt(I2C_HandleTypeDef *hi2c, uint32_t ITFlags);
 430:Drivers/STM32F0xx_HAL_Driver/Src/stm32f0xx_hal_i2c.c **** static void I2C_ITMasterSeqCplt(I2C_HandleTypeDef *hi2c);
 431:Drivers/STM32F0xx_HAL_Driver/Src/stm32f0xx_hal_i2c.c **** static void I2C_ITSlaveSeqCplt(I2C_HandleTypeDef *hi2c);
ARM GAS  C:\Users\mason\AppData\Local\Temp\ccsS7Myt.s 			page 9


 432:Drivers/STM32F0xx_HAL_Driver/Src/stm32f0xx_hal_i2c.c **** static void I2C_ITMasterCplt(I2C_HandleTypeDef *hi2c, uint32_t ITFlags);
 433:Drivers/STM32F0xx_HAL_Driver/Src/stm32f0xx_hal_i2c.c **** static void I2C_ITSlaveCplt(I2C_HandleTypeDef *hi2c, uint32_t ITFlags);
 434:Drivers/STM32F0xx_HAL_Driver/Src/stm32f0xx_hal_i2c.c **** static void I2C_ITListenCplt(I2C_HandleTypeDef *hi2c, uint32_t ITFlags);
 435:Drivers/STM32F0xx_HAL_Driver/Src/stm32f0xx_hal_i2c.c **** static void I2C_ITError(I2C_HandleTypeDef *hi2c, uint32_t ErrorCode);
 436:Drivers/STM32F0xx_HAL_Driver/Src/stm32f0xx_hal_i2c.c **** 
 437:Drivers/STM32F0xx_HAL_Driver/Src/stm32f0xx_hal_i2c.c **** /* Private functions to handle IT transfer */
 438:Drivers/STM32F0xx_HAL_Driver/Src/stm32f0xx_hal_i2c.c **** static HAL_StatusTypeDef I2C_RequestMemoryWrite(I2C_HandleTypeDef *hi2c, uint16_t DevAddress,
 439:Drivers/STM32F0xx_HAL_Driver/Src/stm32f0xx_hal_i2c.c ****                                                 uint16_t MemAddress, uint16_t MemAddSize, uint32_t 
 440:Drivers/STM32F0xx_HAL_Driver/Src/stm32f0xx_hal_i2c.c ****                                                 uint32_t Tickstart);
 441:Drivers/STM32F0xx_HAL_Driver/Src/stm32f0xx_hal_i2c.c **** static HAL_StatusTypeDef I2C_RequestMemoryRead(I2C_HandleTypeDef *hi2c, uint16_t DevAddress,
 442:Drivers/STM32F0xx_HAL_Driver/Src/stm32f0xx_hal_i2c.c ****                                                uint16_t MemAddress, uint16_t MemAddSize, uint32_t T
 443:Drivers/STM32F0xx_HAL_Driver/Src/stm32f0xx_hal_i2c.c ****                                                uint32_t Tickstart);
 444:Drivers/STM32F0xx_HAL_Driver/Src/stm32f0xx_hal_i2c.c **** 
 445:Drivers/STM32F0xx_HAL_Driver/Src/stm32f0xx_hal_i2c.c **** /* Private functions for I2C transfer IRQ handler */
 446:Drivers/STM32F0xx_HAL_Driver/Src/stm32f0xx_hal_i2c.c **** static HAL_StatusTypeDef I2C_Master_ISR_IT(struct __I2C_HandleTypeDef *hi2c, uint32_t ITFlags,
 447:Drivers/STM32F0xx_HAL_Driver/Src/stm32f0xx_hal_i2c.c ****                                            uint32_t ITSources);
 448:Drivers/STM32F0xx_HAL_Driver/Src/stm32f0xx_hal_i2c.c **** static HAL_StatusTypeDef I2C_Mem_ISR_IT(struct __I2C_HandleTypeDef *hi2c, uint32_t ITFlags,
 449:Drivers/STM32F0xx_HAL_Driver/Src/stm32f0xx_hal_i2c.c ****                                         uint32_t ITSources);
 450:Drivers/STM32F0xx_HAL_Driver/Src/stm32f0xx_hal_i2c.c **** static HAL_StatusTypeDef I2C_Slave_ISR_IT(struct __I2C_HandleTypeDef *hi2c, uint32_t ITFlags,
 451:Drivers/STM32F0xx_HAL_Driver/Src/stm32f0xx_hal_i2c.c ****                                           uint32_t ITSources);
 452:Drivers/STM32F0xx_HAL_Driver/Src/stm32f0xx_hal_i2c.c **** static HAL_StatusTypeDef I2C_Master_ISR_DMA(struct __I2C_HandleTypeDef *hi2c, uint32_t ITFlags,
 453:Drivers/STM32F0xx_HAL_Driver/Src/stm32f0xx_hal_i2c.c ****                                             uint32_t ITSources);
 454:Drivers/STM32F0xx_HAL_Driver/Src/stm32f0xx_hal_i2c.c **** static HAL_StatusTypeDef I2C_Mem_ISR_DMA(struct __I2C_HandleTypeDef *hi2c, uint32_t ITFlags,
 455:Drivers/STM32F0xx_HAL_Driver/Src/stm32f0xx_hal_i2c.c ****                                          uint32_t ITSources);
 456:Drivers/STM32F0xx_HAL_Driver/Src/stm32f0xx_hal_i2c.c **** static HAL_StatusTypeDef I2C_Slave_ISR_DMA(struct __I2C_HandleTypeDef *hi2c, uint32_t ITFlags,
 457:Drivers/STM32F0xx_HAL_Driver/Src/stm32f0xx_hal_i2c.c ****                                            uint32_t ITSources);
 458:Drivers/STM32F0xx_HAL_Driver/Src/stm32f0xx_hal_i2c.c **** 
 459:Drivers/STM32F0xx_HAL_Driver/Src/stm32f0xx_hal_i2c.c **** /* Private functions to handle flags during polling transfer */
 460:Drivers/STM32F0xx_HAL_Driver/Src/stm32f0xx_hal_i2c.c **** static HAL_StatusTypeDef I2C_WaitOnFlagUntilTimeout(I2C_HandleTypeDef *hi2c, uint32_t Flag, FlagSta
 461:Drivers/STM32F0xx_HAL_Driver/Src/stm32f0xx_hal_i2c.c ****                                                     uint32_t Timeout, uint32_t Tickstart);
 462:Drivers/STM32F0xx_HAL_Driver/Src/stm32f0xx_hal_i2c.c **** static HAL_StatusTypeDef I2C_WaitOnTXISFlagUntilTimeout(I2C_HandleTypeDef *hi2c, uint32_t Timeout,
 463:Drivers/STM32F0xx_HAL_Driver/Src/stm32f0xx_hal_i2c.c ****                                                         uint32_t Tickstart);
 464:Drivers/STM32F0xx_HAL_Driver/Src/stm32f0xx_hal_i2c.c **** static HAL_StatusTypeDef I2C_WaitOnRXNEFlagUntilTimeout(I2C_HandleTypeDef *hi2c, uint32_t Timeout,
 465:Drivers/STM32F0xx_HAL_Driver/Src/stm32f0xx_hal_i2c.c ****                                                         uint32_t Tickstart);
 466:Drivers/STM32F0xx_HAL_Driver/Src/stm32f0xx_hal_i2c.c **** static HAL_StatusTypeDef I2C_WaitOnSTOPFlagUntilTimeout(I2C_HandleTypeDef *hi2c, uint32_t Timeout,
 467:Drivers/STM32F0xx_HAL_Driver/Src/stm32f0xx_hal_i2c.c ****                                                         uint32_t Tickstart);
 468:Drivers/STM32F0xx_HAL_Driver/Src/stm32f0xx_hal_i2c.c **** static HAL_StatusTypeDef I2C_IsErrorOccurred(I2C_HandleTypeDef *hi2c, uint32_t Timeout,
 469:Drivers/STM32F0xx_HAL_Driver/Src/stm32f0xx_hal_i2c.c ****                                              uint32_t Tickstart);
 470:Drivers/STM32F0xx_HAL_Driver/Src/stm32f0xx_hal_i2c.c **** 
 471:Drivers/STM32F0xx_HAL_Driver/Src/stm32f0xx_hal_i2c.c **** /* Private functions to centralize the enable/disable of Interrupts */
 472:Drivers/STM32F0xx_HAL_Driver/Src/stm32f0xx_hal_i2c.c **** static void I2C_Enable_IRQ(I2C_HandleTypeDef *hi2c, uint16_t InterruptRequest);
 473:Drivers/STM32F0xx_HAL_Driver/Src/stm32f0xx_hal_i2c.c **** static void I2C_Disable_IRQ(I2C_HandleTypeDef *hi2c, uint16_t InterruptRequest);
 474:Drivers/STM32F0xx_HAL_Driver/Src/stm32f0xx_hal_i2c.c **** 
 475:Drivers/STM32F0xx_HAL_Driver/Src/stm32f0xx_hal_i2c.c **** /* Private function to treat different error callback */
 476:Drivers/STM32F0xx_HAL_Driver/Src/stm32f0xx_hal_i2c.c **** static void I2C_TreatErrorCallback(I2C_HandleTypeDef *hi2c);
 477:Drivers/STM32F0xx_HAL_Driver/Src/stm32f0xx_hal_i2c.c **** 
 478:Drivers/STM32F0xx_HAL_Driver/Src/stm32f0xx_hal_i2c.c **** /* Private function to flush TXDR register */
 479:Drivers/STM32F0xx_HAL_Driver/Src/stm32f0xx_hal_i2c.c **** static void I2C_Flush_TXDR(I2C_HandleTypeDef *hi2c);
 480:Drivers/STM32F0xx_HAL_Driver/Src/stm32f0xx_hal_i2c.c **** 
 481:Drivers/STM32F0xx_HAL_Driver/Src/stm32f0xx_hal_i2c.c **** /* Private function to handle  start, restart or stop a transfer */
 482:Drivers/STM32F0xx_HAL_Driver/Src/stm32f0xx_hal_i2c.c **** static void I2C_TransferConfig(I2C_HandleTypeDef *hi2c, uint16_t DevAddress, uint8_t Size, uint32_t
 483:Drivers/STM32F0xx_HAL_Driver/Src/stm32f0xx_hal_i2c.c ****                                uint32_t Request);
 484:Drivers/STM32F0xx_HAL_Driver/Src/stm32f0xx_hal_i2c.c **** 
 485:Drivers/STM32F0xx_HAL_Driver/Src/stm32f0xx_hal_i2c.c **** /* Private function to Convert Specific options */
 486:Drivers/STM32F0xx_HAL_Driver/Src/stm32f0xx_hal_i2c.c **** static void I2C_ConvertOtherXferOptions(I2C_HandleTypeDef *hi2c);
 487:Drivers/STM32F0xx_HAL_Driver/Src/stm32f0xx_hal_i2c.c **** /**
 488:Drivers/STM32F0xx_HAL_Driver/Src/stm32f0xx_hal_i2c.c ****   * @}
ARM GAS  C:\Users\mason\AppData\Local\Temp\ccsS7Myt.s 			page 10


 489:Drivers/STM32F0xx_HAL_Driver/Src/stm32f0xx_hal_i2c.c ****   */
 490:Drivers/STM32F0xx_HAL_Driver/Src/stm32f0xx_hal_i2c.c **** 
 491:Drivers/STM32F0xx_HAL_Driver/Src/stm32f0xx_hal_i2c.c **** /* Exported functions --------------------------------------------------------*/
 492:Drivers/STM32F0xx_HAL_Driver/Src/stm32f0xx_hal_i2c.c **** 
 493:Drivers/STM32F0xx_HAL_Driver/Src/stm32f0xx_hal_i2c.c **** /** @defgroup I2C_Exported_Functions I2C Exported Functions
 494:Drivers/STM32F0xx_HAL_Driver/Src/stm32f0xx_hal_i2c.c ****   * @{
 495:Drivers/STM32F0xx_HAL_Driver/Src/stm32f0xx_hal_i2c.c ****   */
 496:Drivers/STM32F0xx_HAL_Driver/Src/stm32f0xx_hal_i2c.c **** 
 497:Drivers/STM32F0xx_HAL_Driver/Src/stm32f0xx_hal_i2c.c **** /** @defgroup I2C_Exported_Functions_Group1 Initialization and de-initialization functions
 498:Drivers/STM32F0xx_HAL_Driver/Src/stm32f0xx_hal_i2c.c ****   *  @brief    Initialization and Configuration functions
 499:Drivers/STM32F0xx_HAL_Driver/Src/stm32f0xx_hal_i2c.c ****   *
 500:Drivers/STM32F0xx_HAL_Driver/Src/stm32f0xx_hal_i2c.c **** @verbatim
 501:Drivers/STM32F0xx_HAL_Driver/Src/stm32f0xx_hal_i2c.c ****  ===============================================================================
 502:Drivers/STM32F0xx_HAL_Driver/Src/stm32f0xx_hal_i2c.c ****               ##### Initialization and de-initialization functions #####
 503:Drivers/STM32F0xx_HAL_Driver/Src/stm32f0xx_hal_i2c.c ****  ===============================================================================
 504:Drivers/STM32F0xx_HAL_Driver/Src/stm32f0xx_hal_i2c.c ****     [..]  This subsection provides a set of functions allowing to initialize and
 505:Drivers/STM32F0xx_HAL_Driver/Src/stm32f0xx_hal_i2c.c ****           deinitialize the I2Cx peripheral:
 506:Drivers/STM32F0xx_HAL_Driver/Src/stm32f0xx_hal_i2c.c **** 
 507:Drivers/STM32F0xx_HAL_Driver/Src/stm32f0xx_hal_i2c.c ****       (+) User must Implement HAL_I2C_MspInit() function in which he configures
 508:Drivers/STM32F0xx_HAL_Driver/Src/stm32f0xx_hal_i2c.c ****           all related peripherals resources (CLOCK, GPIO, DMA, IT and NVIC ).
 509:Drivers/STM32F0xx_HAL_Driver/Src/stm32f0xx_hal_i2c.c **** 
 510:Drivers/STM32F0xx_HAL_Driver/Src/stm32f0xx_hal_i2c.c ****       (+) Call the function HAL_I2C_Init() to configure the selected device with
 511:Drivers/STM32F0xx_HAL_Driver/Src/stm32f0xx_hal_i2c.c ****           the selected configuration:
 512:Drivers/STM32F0xx_HAL_Driver/Src/stm32f0xx_hal_i2c.c ****         (++) Clock Timing
 513:Drivers/STM32F0xx_HAL_Driver/Src/stm32f0xx_hal_i2c.c ****         (++) Own Address 1
 514:Drivers/STM32F0xx_HAL_Driver/Src/stm32f0xx_hal_i2c.c ****         (++) Addressing mode (Master, Slave)
 515:Drivers/STM32F0xx_HAL_Driver/Src/stm32f0xx_hal_i2c.c ****         (++) Dual Addressing mode
 516:Drivers/STM32F0xx_HAL_Driver/Src/stm32f0xx_hal_i2c.c ****         (++) Own Address 2
 517:Drivers/STM32F0xx_HAL_Driver/Src/stm32f0xx_hal_i2c.c ****         (++) Own Address 2 Mask
 518:Drivers/STM32F0xx_HAL_Driver/Src/stm32f0xx_hal_i2c.c ****         (++) General call mode
 519:Drivers/STM32F0xx_HAL_Driver/Src/stm32f0xx_hal_i2c.c ****         (++) Nostretch mode
 520:Drivers/STM32F0xx_HAL_Driver/Src/stm32f0xx_hal_i2c.c **** 
 521:Drivers/STM32F0xx_HAL_Driver/Src/stm32f0xx_hal_i2c.c ****       (+) Call the function HAL_I2C_DeInit() to restore the default configuration
 522:Drivers/STM32F0xx_HAL_Driver/Src/stm32f0xx_hal_i2c.c ****           of the selected I2Cx peripheral.
 523:Drivers/STM32F0xx_HAL_Driver/Src/stm32f0xx_hal_i2c.c **** 
 524:Drivers/STM32F0xx_HAL_Driver/Src/stm32f0xx_hal_i2c.c **** @endverbatim
 525:Drivers/STM32F0xx_HAL_Driver/Src/stm32f0xx_hal_i2c.c ****   * @{
 526:Drivers/STM32F0xx_HAL_Driver/Src/stm32f0xx_hal_i2c.c ****   */
 527:Drivers/STM32F0xx_HAL_Driver/Src/stm32f0xx_hal_i2c.c **** 
 528:Drivers/STM32F0xx_HAL_Driver/Src/stm32f0xx_hal_i2c.c **** /**
 529:Drivers/STM32F0xx_HAL_Driver/Src/stm32f0xx_hal_i2c.c ****   * @brief  Initializes the I2C according to the specified parameters
 530:Drivers/STM32F0xx_HAL_Driver/Src/stm32f0xx_hal_i2c.c ****   *         in the I2C_InitTypeDef and initialize the associated handle.
 531:Drivers/STM32F0xx_HAL_Driver/Src/stm32f0xx_hal_i2c.c ****   * @param  hi2c Pointer to a I2C_HandleTypeDef structure that contains
 532:Drivers/STM32F0xx_HAL_Driver/Src/stm32f0xx_hal_i2c.c ****   *                the configuration information for the specified I2C.
 533:Drivers/STM32F0xx_HAL_Driver/Src/stm32f0xx_hal_i2c.c ****   * @retval HAL status
 534:Drivers/STM32F0xx_HAL_Driver/Src/stm32f0xx_hal_i2c.c ****   */
 535:Drivers/STM32F0xx_HAL_Driver/Src/stm32f0xx_hal_i2c.c **** HAL_StatusTypeDef HAL_I2C_Init(I2C_HandleTypeDef *hi2c)
 536:Drivers/STM32F0xx_HAL_Driver/Src/stm32f0xx_hal_i2c.c **** {
  27              		.loc 1 536 1
  28              		.cfi_startproc
  29              		@ args = 0, pretend = 0, frame = 8
  30              		@ frame_needed = 1, uses_anonymous_args = 0
  31 0000 80B5     		push	{r7, lr}
  32              	.LCFI0:
  33              		.cfi_def_cfa_offset 8
  34              		.cfi_offset 7, -8
  35              		.cfi_offset 14, -4
ARM GAS  C:\Users\mason\AppData\Local\Temp\ccsS7Myt.s 			page 11


  36 0002 82B0     		sub	sp, sp, #8
  37              	.LCFI1:
  38              		.cfi_def_cfa_offset 16
  39 0004 00AF     		add	r7, sp, #0
  40              	.LCFI2:
  41              		.cfi_def_cfa_register 7
  42 0006 7860     		str	r0, [r7, #4]
 537:Drivers/STM32F0xx_HAL_Driver/Src/stm32f0xx_hal_i2c.c ****   /* Check the I2C handle allocation */
 538:Drivers/STM32F0xx_HAL_Driver/Src/stm32f0xx_hal_i2c.c ****   if (hi2c == NULL)
  43              		.loc 1 538 6
  44 0008 7B68     		ldr	r3, [r7, #4]
  45 000a 002B     		cmp	r3, #0
  46 000c 01D1     		bne	.L2
 539:Drivers/STM32F0xx_HAL_Driver/Src/stm32f0xx_hal_i2c.c ****   {
 540:Drivers/STM32F0xx_HAL_Driver/Src/stm32f0xx_hal_i2c.c ****     return HAL_ERROR;
  47              		.loc 1 540 12
  48 000e 0123     		movs	r3, #1
  49 0010 82E0     		b	.L3
  50              	.L2:
 541:Drivers/STM32F0xx_HAL_Driver/Src/stm32f0xx_hal_i2c.c ****   }
 542:Drivers/STM32F0xx_HAL_Driver/Src/stm32f0xx_hal_i2c.c **** 
 543:Drivers/STM32F0xx_HAL_Driver/Src/stm32f0xx_hal_i2c.c ****   /* Check the parameters */
 544:Drivers/STM32F0xx_HAL_Driver/Src/stm32f0xx_hal_i2c.c ****   assert_param(IS_I2C_ALL_INSTANCE(hi2c->Instance));
 545:Drivers/STM32F0xx_HAL_Driver/Src/stm32f0xx_hal_i2c.c ****   assert_param(IS_I2C_OWN_ADDRESS1(hi2c->Init.OwnAddress1));
 546:Drivers/STM32F0xx_HAL_Driver/Src/stm32f0xx_hal_i2c.c ****   assert_param(IS_I2C_ADDRESSING_MODE(hi2c->Init.AddressingMode));
 547:Drivers/STM32F0xx_HAL_Driver/Src/stm32f0xx_hal_i2c.c ****   assert_param(IS_I2C_DUAL_ADDRESS(hi2c->Init.DualAddressMode));
 548:Drivers/STM32F0xx_HAL_Driver/Src/stm32f0xx_hal_i2c.c ****   assert_param(IS_I2C_OWN_ADDRESS2(hi2c->Init.OwnAddress2));
 549:Drivers/STM32F0xx_HAL_Driver/Src/stm32f0xx_hal_i2c.c ****   assert_param(IS_I2C_OWN_ADDRESS2_MASK(hi2c->Init.OwnAddress2Masks));
 550:Drivers/STM32F0xx_HAL_Driver/Src/stm32f0xx_hal_i2c.c ****   assert_param(IS_I2C_GENERAL_CALL(hi2c->Init.GeneralCallMode));
 551:Drivers/STM32F0xx_HAL_Driver/Src/stm32f0xx_hal_i2c.c ****   assert_param(IS_I2C_NO_STRETCH(hi2c->Init.NoStretchMode));
 552:Drivers/STM32F0xx_HAL_Driver/Src/stm32f0xx_hal_i2c.c **** 
 553:Drivers/STM32F0xx_HAL_Driver/Src/stm32f0xx_hal_i2c.c ****   if (hi2c->State == HAL_I2C_STATE_RESET)
  51              		.loc 1 553 11
  52 0012 7B68     		ldr	r3, [r7, #4]
  53 0014 4122     		movs	r2, #65
  54 0016 9B5C     		ldrb	r3, [r3, r2]
  55 0018 DBB2     		uxtb	r3, r3
  56              		.loc 1 553 6
  57 001a 002B     		cmp	r3, #0
  58 001c 07D1     		bne	.L4
 554:Drivers/STM32F0xx_HAL_Driver/Src/stm32f0xx_hal_i2c.c ****   {
 555:Drivers/STM32F0xx_HAL_Driver/Src/stm32f0xx_hal_i2c.c ****     /* Allocate lock resource and initialize it */
 556:Drivers/STM32F0xx_HAL_Driver/Src/stm32f0xx_hal_i2c.c ****     hi2c->Lock = HAL_UNLOCKED;
  59              		.loc 1 556 16
  60 001e 7B68     		ldr	r3, [r7, #4]
  61 0020 4022     		movs	r2, #64
  62 0022 0021     		movs	r1, #0
  63 0024 9954     		strb	r1, [r3, r2]
 557:Drivers/STM32F0xx_HAL_Driver/Src/stm32f0xx_hal_i2c.c **** 
 558:Drivers/STM32F0xx_HAL_Driver/Src/stm32f0xx_hal_i2c.c **** #if (USE_HAL_I2C_REGISTER_CALLBACKS == 1)
 559:Drivers/STM32F0xx_HAL_Driver/Src/stm32f0xx_hal_i2c.c ****     /* Init the I2C Callback settings */
 560:Drivers/STM32F0xx_HAL_Driver/Src/stm32f0xx_hal_i2c.c ****     hi2c->MasterTxCpltCallback = HAL_I2C_MasterTxCpltCallback; /* Legacy weak MasterTxCpltCallback 
 561:Drivers/STM32F0xx_HAL_Driver/Src/stm32f0xx_hal_i2c.c ****     hi2c->MasterRxCpltCallback = HAL_I2C_MasterRxCpltCallback; /* Legacy weak MasterRxCpltCallback 
 562:Drivers/STM32F0xx_HAL_Driver/Src/stm32f0xx_hal_i2c.c ****     hi2c->SlaveTxCpltCallback  = HAL_I2C_SlaveTxCpltCallback;  /* Legacy weak SlaveTxCpltCallback  
 563:Drivers/STM32F0xx_HAL_Driver/Src/stm32f0xx_hal_i2c.c ****     hi2c->SlaveRxCpltCallback  = HAL_I2C_SlaveRxCpltCallback;  /* Legacy weak SlaveRxCpltCallback  
 564:Drivers/STM32F0xx_HAL_Driver/Src/stm32f0xx_hal_i2c.c ****     hi2c->ListenCpltCallback   = HAL_I2C_ListenCpltCallback;   /* Legacy weak ListenCpltCallback   
 565:Drivers/STM32F0xx_HAL_Driver/Src/stm32f0xx_hal_i2c.c ****     hi2c->MemTxCpltCallback    = HAL_I2C_MemTxCpltCallback;    /* Legacy weak MemTxCpltCallback    
ARM GAS  C:\Users\mason\AppData\Local\Temp\ccsS7Myt.s 			page 12


 566:Drivers/STM32F0xx_HAL_Driver/Src/stm32f0xx_hal_i2c.c ****     hi2c->MemRxCpltCallback    = HAL_I2C_MemRxCpltCallback;    /* Legacy weak MemRxCpltCallback    
 567:Drivers/STM32F0xx_HAL_Driver/Src/stm32f0xx_hal_i2c.c ****     hi2c->ErrorCallback        = HAL_I2C_ErrorCallback;        /* Legacy weak ErrorCallback        
 568:Drivers/STM32F0xx_HAL_Driver/Src/stm32f0xx_hal_i2c.c ****     hi2c->AbortCpltCallback    = HAL_I2C_AbortCpltCallback;    /* Legacy weak AbortCpltCallback    
 569:Drivers/STM32F0xx_HAL_Driver/Src/stm32f0xx_hal_i2c.c ****     hi2c->AddrCallback         = HAL_I2C_AddrCallback;         /* Legacy weak AddrCallback         
 570:Drivers/STM32F0xx_HAL_Driver/Src/stm32f0xx_hal_i2c.c **** 
 571:Drivers/STM32F0xx_HAL_Driver/Src/stm32f0xx_hal_i2c.c ****     if (hi2c->MspInitCallback == NULL)
 572:Drivers/STM32F0xx_HAL_Driver/Src/stm32f0xx_hal_i2c.c ****     {
 573:Drivers/STM32F0xx_HAL_Driver/Src/stm32f0xx_hal_i2c.c ****       hi2c->MspInitCallback = HAL_I2C_MspInit; /* Legacy weak MspInit  */
 574:Drivers/STM32F0xx_HAL_Driver/Src/stm32f0xx_hal_i2c.c ****     }
 575:Drivers/STM32F0xx_HAL_Driver/Src/stm32f0xx_hal_i2c.c **** 
 576:Drivers/STM32F0xx_HAL_Driver/Src/stm32f0xx_hal_i2c.c ****     /* Init the low level hardware : GPIO, CLOCK, CORTEX...etc */
 577:Drivers/STM32F0xx_HAL_Driver/Src/stm32f0xx_hal_i2c.c ****     hi2c->MspInitCallback(hi2c);
 578:Drivers/STM32F0xx_HAL_Driver/Src/stm32f0xx_hal_i2c.c **** #else
 579:Drivers/STM32F0xx_HAL_Driver/Src/stm32f0xx_hal_i2c.c ****     /* Init the low level hardware : GPIO, CLOCK, CORTEX...etc */
 580:Drivers/STM32F0xx_HAL_Driver/Src/stm32f0xx_hal_i2c.c ****     HAL_I2C_MspInit(hi2c);
  64              		.loc 1 580 5
  65 0026 7B68     		ldr	r3, [r7, #4]
  66 0028 1800     		movs	r0, r3
  67 002a FFF7FEFF 		bl	HAL_I2C_MspInit
  68              	.L4:
 581:Drivers/STM32F0xx_HAL_Driver/Src/stm32f0xx_hal_i2c.c **** #endif /* USE_HAL_I2C_REGISTER_CALLBACKS */
 582:Drivers/STM32F0xx_HAL_Driver/Src/stm32f0xx_hal_i2c.c ****   }
 583:Drivers/STM32F0xx_HAL_Driver/Src/stm32f0xx_hal_i2c.c **** 
 584:Drivers/STM32F0xx_HAL_Driver/Src/stm32f0xx_hal_i2c.c ****   hi2c->State = HAL_I2C_STATE_BUSY;
  69              		.loc 1 584 15
  70 002e 7B68     		ldr	r3, [r7, #4]
  71 0030 4122     		movs	r2, #65
  72 0032 2421     		movs	r1, #36
  73 0034 9954     		strb	r1, [r3, r2]
 585:Drivers/STM32F0xx_HAL_Driver/Src/stm32f0xx_hal_i2c.c **** 
 586:Drivers/STM32F0xx_HAL_Driver/Src/stm32f0xx_hal_i2c.c ****   /* Disable the selected I2C peripheral */
 587:Drivers/STM32F0xx_HAL_Driver/Src/stm32f0xx_hal_i2c.c ****   __HAL_I2C_DISABLE(hi2c);
  74              		.loc 1 587 3
  75 0036 7B68     		ldr	r3, [r7, #4]
  76 0038 1B68     		ldr	r3, [r3]
  77 003a 1A68     		ldr	r2, [r3]
  78 003c 7B68     		ldr	r3, [r7, #4]
  79 003e 1B68     		ldr	r3, [r3]
  80 0040 0121     		movs	r1, #1
  81 0042 8A43     		bics	r2, r1
  82 0044 1A60     		str	r2, [r3]
 588:Drivers/STM32F0xx_HAL_Driver/Src/stm32f0xx_hal_i2c.c **** 
 589:Drivers/STM32F0xx_HAL_Driver/Src/stm32f0xx_hal_i2c.c ****   /*---------------------------- I2Cx TIMINGR Configuration ------------------*/
 590:Drivers/STM32F0xx_HAL_Driver/Src/stm32f0xx_hal_i2c.c ****   /* Configure I2Cx: Frequency range */
 591:Drivers/STM32F0xx_HAL_Driver/Src/stm32f0xx_hal_i2c.c ****   hi2c->Instance->TIMINGR = hi2c->Init.Timing & TIMING_CLEAR_MASK;
  83              		.loc 1 591 39
  84 0046 7B68     		ldr	r3, [r7, #4]
  85 0048 5A68     		ldr	r2, [r3, #4]
  86              		.loc 1 591 7
  87 004a 7B68     		ldr	r3, [r7, #4]
  88 004c 1B68     		ldr	r3, [r3]
  89              		.loc 1 591 47
  90 004e 3449     		ldr	r1, .L8
  91 0050 0A40     		ands	r2, r1
  92              		.loc 1 591 27
  93 0052 1A61     		str	r2, [r3, #16]
 592:Drivers/STM32F0xx_HAL_Driver/Src/stm32f0xx_hal_i2c.c **** 
ARM GAS  C:\Users\mason\AppData\Local\Temp\ccsS7Myt.s 			page 13


 593:Drivers/STM32F0xx_HAL_Driver/Src/stm32f0xx_hal_i2c.c ****   /*---------------------------- I2Cx OAR1 Configuration ---------------------*/
 594:Drivers/STM32F0xx_HAL_Driver/Src/stm32f0xx_hal_i2c.c ****   /* Disable Own Address1 before set the Own Address1 configuration */
 595:Drivers/STM32F0xx_HAL_Driver/Src/stm32f0xx_hal_i2c.c ****   hi2c->Instance->OAR1 &= ~I2C_OAR1_OA1EN;
  94              		.loc 1 595 7
  95 0054 7B68     		ldr	r3, [r7, #4]
  96 0056 1B68     		ldr	r3, [r3]
  97              		.loc 1 595 24
  98 0058 9A68     		ldr	r2, [r3, #8]
  99              		.loc 1 595 7
 100 005a 7B68     		ldr	r3, [r7, #4]
 101 005c 1B68     		ldr	r3, [r3]
 102              		.loc 1 595 24
 103 005e 3149     		ldr	r1, .L8+4
 104 0060 0A40     		ands	r2, r1
 105 0062 9A60     		str	r2, [r3, #8]
 596:Drivers/STM32F0xx_HAL_Driver/Src/stm32f0xx_hal_i2c.c **** 
 597:Drivers/STM32F0xx_HAL_Driver/Src/stm32f0xx_hal_i2c.c ****   /* Configure I2Cx: Own Address1 and ack own address1 mode */
 598:Drivers/STM32F0xx_HAL_Driver/Src/stm32f0xx_hal_i2c.c ****   if (hi2c->Init.AddressingMode == I2C_ADDRESSINGMODE_7BIT)
 106              		.loc 1 598 17
 107 0064 7B68     		ldr	r3, [r7, #4]
 108 0066 DB68     		ldr	r3, [r3, #12]
 109              		.loc 1 598 6
 110 0068 012B     		cmp	r3, #1
 111 006a 08D1     		bne	.L5
 599:Drivers/STM32F0xx_HAL_Driver/Src/stm32f0xx_hal_i2c.c ****   {
 600:Drivers/STM32F0xx_HAL_Driver/Src/stm32f0xx_hal_i2c.c ****     hi2c->Instance->OAR1 = (I2C_OAR1_OA1EN | hi2c->Init.OwnAddress1);
 112              		.loc 1 600 56
 113 006c 7B68     		ldr	r3, [r7, #4]
 114 006e 9A68     		ldr	r2, [r3, #8]
 115              		.loc 1 600 9
 116 0070 7B68     		ldr	r3, [r7, #4]
 117 0072 1B68     		ldr	r3, [r3]
 118              		.loc 1 600 44
 119 0074 8021     		movs	r1, #128
 120 0076 0902     		lsls	r1, r1, #8
 121 0078 0A43     		orrs	r2, r1
 122              		.loc 1 600 26
 123 007a 9A60     		str	r2, [r3, #8]
 124 007c 07E0     		b	.L6
 125              	.L5:
 601:Drivers/STM32F0xx_HAL_Driver/Src/stm32f0xx_hal_i2c.c ****   }
 602:Drivers/STM32F0xx_HAL_Driver/Src/stm32f0xx_hal_i2c.c ****   else /* I2C_ADDRESSINGMODE_10BIT */
 603:Drivers/STM32F0xx_HAL_Driver/Src/stm32f0xx_hal_i2c.c ****   {
 604:Drivers/STM32F0xx_HAL_Driver/Src/stm32f0xx_hal_i2c.c ****     hi2c->Instance->OAR1 = (I2C_OAR1_OA1EN | I2C_OAR1_OA1MODE | hi2c->Init.OwnAddress1);
 126              		.loc 1 604 75
 127 007e 7B68     		ldr	r3, [r7, #4]
 128 0080 9A68     		ldr	r2, [r3, #8]
 129              		.loc 1 604 9
 130 0082 7B68     		ldr	r3, [r7, #4]
 131 0084 1B68     		ldr	r3, [r3]
 132              		.loc 1 604 63
 133 0086 8421     		movs	r1, #132
 134 0088 0902     		lsls	r1, r1, #8
 135 008a 0A43     		orrs	r2, r1
 136              		.loc 1 604 26
 137 008c 9A60     		str	r2, [r3, #8]
 138              	.L6:
ARM GAS  C:\Users\mason\AppData\Local\Temp\ccsS7Myt.s 			page 14


 605:Drivers/STM32F0xx_HAL_Driver/Src/stm32f0xx_hal_i2c.c ****   }
 606:Drivers/STM32F0xx_HAL_Driver/Src/stm32f0xx_hal_i2c.c **** 
 607:Drivers/STM32F0xx_HAL_Driver/Src/stm32f0xx_hal_i2c.c ****   /*---------------------------- I2Cx CR2 Configuration ----------------------*/
 608:Drivers/STM32F0xx_HAL_Driver/Src/stm32f0xx_hal_i2c.c ****   /* Configure I2Cx: Addressing Master mode */
 609:Drivers/STM32F0xx_HAL_Driver/Src/stm32f0xx_hal_i2c.c ****   if (hi2c->Init.AddressingMode == I2C_ADDRESSINGMODE_10BIT)
 139              		.loc 1 609 17
 140 008e 7B68     		ldr	r3, [r7, #4]
 141 0090 DB68     		ldr	r3, [r3, #12]
 142              		.loc 1 609 6
 143 0092 022B     		cmp	r3, #2
 144 0094 04D1     		bne	.L7
 610:Drivers/STM32F0xx_HAL_Driver/Src/stm32f0xx_hal_i2c.c ****   {
 611:Drivers/STM32F0xx_HAL_Driver/Src/stm32f0xx_hal_i2c.c ****     hi2c->Instance->CR2 = (I2C_CR2_ADD10);
 145              		.loc 1 611 9
 146 0096 7B68     		ldr	r3, [r7, #4]
 147 0098 1B68     		ldr	r3, [r3]
 148              		.loc 1 611 25
 149 009a 8022     		movs	r2, #128
 150 009c 1201     		lsls	r2, r2, #4
 151 009e 5A60     		str	r2, [r3, #4]
 152              	.L7:
 612:Drivers/STM32F0xx_HAL_Driver/Src/stm32f0xx_hal_i2c.c ****   }
 613:Drivers/STM32F0xx_HAL_Driver/Src/stm32f0xx_hal_i2c.c ****   /* Enable the AUTOEND by default, and enable NACK (should be disable only during Slave process */
 614:Drivers/STM32F0xx_HAL_Driver/Src/stm32f0xx_hal_i2c.c ****   hi2c->Instance->CR2 |= (I2C_CR2_AUTOEND | I2C_CR2_NACK);
 153              		.loc 1 614 7
 154 00a0 7B68     		ldr	r3, [r7, #4]
 155 00a2 1B68     		ldr	r3, [r3]
 156              		.loc 1 614 23
 157 00a4 5A68     		ldr	r2, [r3, #4]
 158              		.loc 1 614 7
 159 00a6 7B68     		ldr	r3, [r7, #4]
 160 00a8 1B68     		ldr	r3, [r3]
 161              		.loc 1 614 23
 162 00aa 1F49     		ldr	r1, .L8+8
 163 00ac 0A43     		orrs	r2, r1
 164 00ae 5A60     		str	r2, [r3, #4]
 615:Drivers/STM32F0xx_HAL_Driver/Src/stm32f0xx_hal_i2c.c **** 
 616:Drivers/STM32F0xx_HAL_Driver/Src/stm32f0xx_hal_i2c.c ****   /*---------------------------- I2Cx OAR2 Configuration ---------------------*/
 617:Drivers/STM32F0xx_HAL_Driver/Src/stm32f0xx_hal_i2c.c ****   /* Disable Own Address2 before set the Own Address2 configuration */
 618:Drivers/STM32F0xx_HAL_Driver/Src/stm32f0xx_hal_i2c.c ****   hi2c->Instance->OAR2 &= ~I2C_DUALADDRESS_ENABLE;
 165              		.loc 1 618 7
 166 00b0 7B68     		ldr	r3, [r7, #4]
 167 00b2 1B68     		ldr	r3, [r3]
 168              		.loc 1 618 24
 169 00b4 DA68     		ldr	r2, [r3, #12]
 170              		.loc 1 618 7
 171 00b6 7B68     		ldr	r3, [r7, #4]
 172 00b8 1B68     		ldr	r3, [r3]
 173              		.loc 1 618 24
 174 00ba 1A49     		ldr	r1, .L8+4
 175 00bc 0A40     		ands	r2, r1
 176 00be DA60     		str	r2, [r3, #12]
 619:Drivers/STM32F0xx_HAL_Driver/Src/stm32f0xx_hal_i2c.c **** 
 620:Drivers/STM32F0xx_HAL_Driver/Src/stm32f0xx_hal_i2c.c ****   /* Configure I2Cx: Dual mode and Own Address2 */
 621:Drivers/STM32F0xx_HAL_Driver/Src/stm32f0xx_hal_i2c.c ****   hi2c->Instance->OAR2 = (hi2c->Init.DualAddressMode | hi2c->Init.OwnAddress2 | \
 177              		.loc 1 621 37
 178 00c0 7B68     		ldr	r3, [r7, #4]
ARM GAS  C:\Users\mason\AppData\Local\Temp\ccsS7Myt.s 			page 15


 179 00c2 1A69     		ldr	r2, [r3, #16]
 180              		.loc 1 621 66
 181 00c4 7B68     		ldr	r3, [r7, #4]
 182 00c6 5B69     		ldr	r3, [r3, #20]
 183              		.loc 1 621 54
 184 00c8 1A43     		orrs	r2, r3
 185 00ca 1100     		movs	r1, r2
 622:Drivers/STM32F0xx_HAL_Driver/Src/stm32f0xx_hal_i2c.c ****                           (hi2c->Init.OwnAddress2Masks << 8));
 186              		.loc 1 622 38
 187 00cc 7B68     		ldr	r3, [r7, #4]
 188 00ce 9B69     		ldr	r3, [r3, #24]
 189              		.loc 1 622 56
 190 00d0 1A02     		lsls	r2, r3, #8
 621:Drivers/STM32F0xx_HAL_Driver/Src/stm32f0xx_hal_i2c.c ****                           (hi2c->Init.OwnAddress2Masks << 8));
 191              		.loc 1 621 7
 192 00d2 7B68     		ldr	r3, [r7, #4]
 193 00d4 1B68     		ldr	r3, [r3]
 621:Drivers/STM32F0xx_HAL_Driver/Src/stm32f0xx_hal_i2c.c ****                           (hi2c->Init.OwnAddress2Masks << 8));
 194              		.loc 1 621 79
 195 00d6 0A43     		orrs	r2, r1
 621:Drivers/STM32F0xx_HAL_Driver/Src/stm32f0xx_hal_i2c.c ****                           (hi2c->Init.OwnAddress2Masks << 8));
 196              		.loc 1 621 24
 197 00d8 DA60     		str	r2, [r3, #12]
 623:Drivers/STM32F0xx_HAL_Driver/Src/stm32f0xx_hal_i2c.c **** 
 624:Drivers/STM32F0xx_HAL_Driver/Src/stm32f0xx_hal_i2c.c ****   /*---------------------------- I2Cx CR1 Configuration ----------------------*/
 625:Drivers/STM32F0xx_HAL_Driver/Src/stm32f0xx_hal_i2c.c ****   /* Configure I2Cx: Generalcall and NoStretch mode */
 626:Drivers/STM32F0xx_HAL_Driver/Src/stm32f0xx_hal_i2c.c ****   hi2c->Instance->CR1 = (hi2c->Init.GeneralCallMode | hi2c->Init.NoStretchMode);
 198              		.loc 1 626 36
 199 00da 7B68     		ldr	r3, [r7, #4]
 200 00dc D969     		ldr	r1, [r3, #28]
 201              		.loc 1 626 65
 202 00de 7B68     		ldr	r3, [r7, #4]
 203 00e0 1A6A     		ldr	r2, [r3, #32]
 204              		.loc 1 626 7
 205 00e2 7B68     		ldr	r3, [r7, #4]
 206 00e4 1B68     		ldr	r3, [r3]
 207              		.loc 1 626 53
 208 00e6 0A43     		orrs	r2, r1
 209              		.loc 1 626 23
 210 00e8 1A60     		str	r2, [r3]
 627:Drivers/STM32F0xx_HAL_Driver/Src/stm32f0xx_hal_i2c.c **** 
 628:Drivers/STM32F0xx_HAL_Driver/Src/stm32f0xx_hal_i2c.c ****   /* Enable the selected I2C peripheral */
 629:Drivers/STM32F0xx_HAL_Driver/Src/stm32f0xx_hal_i2c.c ****   __HAL_I2C_ENABLE(hi2c);
 211              		.loc 1 629 3
 212 00ea 7B68     		ldr	r3, [r7, #4]
 213 00ec 1B68     		ldr	r3, [r3]
 214 00ee 1A68     		ldr	r2, [r3]
 215 00f0 7B68     		ldr	r3, [r7, #4]
 216 00f2 1B68     		ldr	r3, [r3]
 217 00f4 0121     		movs	r1, #1
 218 00f6 0A43     		orrs	r2, r1
 219 00f8 1A60     		str	r2, [r3]
 630:Drivers/STM32F0xx_HAL_Driver/Src/stm32f0xx_hal_i2c.c **** 
 631:Drivers/STM32F0xx_HAL_Driver/Src/stm32f0xx_hal_i2c.c ****   hi2c->ErrorCode = HAL_I2C_ERROR_NONE;
 220              		.loc 1 631 19
 221 00fa 7B68     		ldr	r3, [r7, #4]
 222 00fc 0022     		movs	r2, #0
ARM GAS  C:\Users\mason\AppData\Local\Temp\ccsS7Myt.s 			page 16


 223 00fe 5A64     		str	r2, [r3, #68]
 632:Drivers/STM32F0xx_HAL_Driver/Src/stm32f0xx_hal_i2c.c ****   hi2c->State = HAL_I2C_STATE_READY;
 224              		.loc 1 632 15
 225 0100 7B68     		ldr	r3, [r7, #4]
 226 0102 4122     		movs	r2, #65
 227 0104 2021     		movs	r1, #32
 228 0106 9954     		strb	r1, [r3, r2]
 633:Drivers/STM32F0xx_HAL_Driver/Src/stm32f0xx_hal_i2c.c ****   hi2c->PreviousState = I2C_STATE_NONE;
 229              		.loc 1 633 23
 230 0108 7B68     		ldr	r3, [r7, #4]
 231 010a 0022     		movs	r2, #0
 232 010c 1A63     		str	r2, [r3, #48]
 634:Drivers/STM32F0xx_HAL_Driver/Src/stm32f0xx_hal_i2c.c ****   hi2c->Mode = HAL_I2C_MODE_NONE;
 233              		.loc 1 634 14
 234 010e 7B68     		ldr	r3, [r7, #4]
 235 0110 4222     		movs	r2, #66
 236 0112 0021     		movs	r1, #0
 237 0114 9954     		strb	r1, [r3, r2]
 635:Drivers/STM32F0xx_HAL_Driver/Src/stm32f0xx_hal_i2c.c **** 
 636:Drivers/STM32F0xx_HAL_Driver/Src/stm32f0xx_hal_i2c.c ****   return HAL_OK;
 238              		.loc 1 636 10
 239 0116 0023     		movs	r3, #0
 240              	.L3:
 637:Drivers/STM32F0xx_HAL_Driver/Src/stm32f0xx_hal_i2c.c **** }
 241              		.loc 1 637 1
 242 0118 1800     		movs	r0, r3
 243 011a BD46     		mov	sp, r7
 244 011c 02B0     		add	sp, sp, #8
 245              		@ sp needed
 246 011e 80BD     		pop	{r7, pc}
 247              	.L9:
 248              		.align	2
 249              	.L8:
 250 0120 FFFFFFF0 		.word	-251658241
 251 0124 FF7FFFFF 		.word	-32769
 252 0128 00800002 		.word	33587200
 253              		.cfi_endproc
 254              	.LFE40:
 256              		.section	.text.HAL_I2C_DeInit,"ax",%progbits
 257              		.align	1
 258              		.global	HAL_I2C_DeInit
 259              		.syntax unified
 260              		.code	16
 261              		.thumb_func
 263              	HAL_I2C_DeInit:
 264              	.LFB41:
 638:Drivers/STM32F0xx_HAL_Driver/Src/stm32f0xx_hal_i2c.c **** 
 639:Drivers/STM32F0xx_HAL_Driver/Src/stm32f0xx_hal_i2c.c **** /**
 640:Drivers/STM32F0xx_HAL_Driver/Src/stm32f0xx_hal_i2c.c ****   * @brief  DeInitialize the I2C peripheral.
 641:Drivers/STM32F0xx_HAL_Driver/Src/stm32f0xx_hal_i2c.c ****   * @param  hi2c Pointer to a I2C_HandleTypeDef structure that contains
 642:Drivers/STM32F0xx_HAL_Driver/Src/stm32f0xx_hal_i2c.c ****   *                the configuration information for the specified I2C.
 643:Drivers/STM32F0xx_HAL_Driver/Src/stm32f0xx_hal_i2c.c ****   * @retval HAL status
 644:Drivers/STM32F0xx_HAL_Driver/Src/stm32f0xx_hal_i2c.c ****   */
 645:Drivers/STM32F0xx_HAL_Driver/Src/stm32f0xx_hal_i2c.c **** HAL_StatusTypeDef HAL_I2C_DeInit(I2C_HandleTypeDef *hi2c)
 646:Drivers/STM32F0xx_HAL_Driver/Src/stm32f0xx_hal_i2c.c **** {
 265              		.loc 1 646 1
 266              		.cfi_startproc
ARM GAS  C:\Users\mason\AppData\Local\Temp\ccsS7Myt.s 			page 17


 267              		@ args = 0, pretend = 0, frame = 8
 268              		@ frame_needed = 1, uses_anonymous_args = 0
 269 0000 80B5     		push	{r7, lr}
 270              	.LCFI3:
 271              		.cfi_def_cfa_offset 8
 272              		.cfi_offset 7, -8
 273              		.cfi_offset 14, -4
 274 0002 82B0     		sub	sp, sp, #8
 275              	.LCFI4:
 276              		.cfi_def_cfa_offset 16
 277 0004 00AF     		add	r7, sp, #0
 278              	.LCFI5:
 279              		.cfi_def_cfa_register 7
 280 0006 7860     		str	r0, [r7, #4]
 647:Drivers/STM32F0xx_HAL_Driver/Src/stm32f0xx_hal_i2c.c ****   /* Check the I2C handle allocation */
 648:Drivers/STM32F0xx_HAL_Driver/Src/stm32f0xx_hal_i2c.c ****   if (hi2c == NULL)
 281              		.loc 1 648 6
 282 0008 7B68     		ldr	r3, [r7, #4]
 283 000a 002B     		cmp	r3, #0
 284 000c 01D1     		bne	.L11
 649:Drivers/STM32F0xx_HAL_Driver/Src/stm32f0xx_hal_i2c.c ****   {
 650:Drivers/STM32F0xx_HAL_Driver/Src/stm32f0xx_hal_i2c.c ****     return HAL_ERROR;
 285              		.loc 1 650 12
 286 000e 0123     		movs	r3, #1
 287 0010 22E0     		b	.L12
 288              	.L11:
 651:Drivers/STM32F0xx_HAL_Driver/Src/stm32f0xx_hal_i2c.c ****   }
 652:Drivers/STM32F0xx_HAL_Driver/Src/stm32f0xx_hal_i2c.c **** 
 653:Drivers/STM32F0xx_HAL_Driver/Src/stm32f0xx_hal_i2c.c ****   /* Check the parameters */
 654:Drivers/STM32F0xx_HAL_Driver/Src/stm32f0xx_hal_i2c.c ****   assert_param(IS_I2C_ALL_INSTANCE(hi2c->Instance));
 655:Drivers/STM32F0xx_HAL_Driver/Src/stm32f0xx_hal_i2c.c **** 
 656:Drivers/STM32F0xx_HAL_Driver/Src/stm32f0xx_hal_i2c.c ****   hi2c->State = HAL_I2C_STATE_BUSY;
 289              		.loc 1 656 15
 290 0012 7B68     		ldr	r3, [r7, #4]
 291 0014 4122     		movs	r2, #65
 292 0016 2421     		movs	r1, #36
 293 0018 9954     		strb	r1, [r3, r2]
 657:Drivers/STM32F0xx_HAL_Driver/Src/stm32f0xx_hal_i2c.c **** 
 658:Drivers/STM32F0xx_HAL_Driver/Src/stm32f0xx_hal_i2c.c ****   /* Disable the I2C Peripheral Clock */
 659:Drivers/STM32F0xx_HAL_Driver/Src/stm32f0xx_hal_i2c.c ****   __HAL_I2C_DISABLE(hi2c);
 294              		.loc 1 659 3
 295 001a 7B68     		ldr	r3, [r7, #4]
 296 001c 1B68     		ldr	r3, [r3]
 297 001e 1A68     		ldr	r2, [r3]
 298 0020 7B68     		ldr	r3, [r7, #4]
 299 0022 1B68     		ldr	r3, [r3]
 300 0024 0121     		movs	r1, #1
 301 0026 8A43     		bics	r2, r1
 302 0028 1A60     		str	r2, [r3]
 660:Drivers/STM32F0xx_HAL_Driver/Src/stm32f0xx_hal_i2c.c **** 
 661:Drivers/STM32F0xx_HAL_Driver/Src/stm32f0xx_hal_i2c.c **** #if (USE_HAL_I2C_REGISTER_CALLBACKS == 1)
 662:Drivers/STM32F0xx_HAL_Driver/Src/stm32f0xx_hal_i2c.c ****   if (hi2c->MspDeInitCallback == NULL)
 663:Drivers/STM32F0xx_HAL_Driver/Src/stm32f0xx_hal_i2c.c ****   {
 664:Drivers/STM32F0xx_HAL_Driver/Src/stm32f0xx_hal_i2c.c ****     hi2c->MspDeInitCallback = HAL_I2C_MspDeInit; /* Legacy weak MspDeInit  */
 665:Drivers/STM32F0xx_HAL_Driver/Src/stm32f0xx_hal_i2c.c ****   }
 666:Drivers/STM32F0xx_HAL_Driver/Src/stm32f0xx_hal_i2c.c **** 
 667:Drivers/STM32F0xx_HAL_Driver/Src/stm32f0xx_hal_i2c.c ****   /* DeInit the low level hardware: GPIO, CLOCK, NVIC */
ARM GAS  C:\Users\mason\AppData\Local\Temp\ccsS7Myt.s 			page 18


 668:Drivers/STM32F0xx_HAL_Driver/Src/stm32f0xx_hal_i2c.c ****   hi2c->MspDeInitCallback(hi2c);
 669:Drivers/STM32F0xx_HAL_Driver/Src/stm32f0xx_hal_i2c.c **** #else
 670:Drivers/STM32F0xx_HAL_Driver/Src/stm32f0xx_hal_i2c.c ****   /* DeInit the low level hardware: GPIO, CLOCK, NVIC */
 671:Drivers/STM32F0xx_HAL_Driver/Src/stm32f0xx_hal_i2c.c ****   HAL_I2C_MspDeInit(hi2c);
 303              		.loc 1 671 3
 304 002a 7B68     		ldr	r3, [r7, #4]
 305 002c 1800     		movs	r0, r3
 306 002e FFF7FEFF 		bl	HAL_I2C_MspDeInit
 672:Drivers/STM32F0xx_HAL_Driver/Src/stm32f0xx_hal_i2c.c **** #endif /* USE_HAL_I2C_REGISTER_CALLBACKS */
 673:Drivers/STM32F0xx_HAL_Driver/Src/stm32f0xx_hal_i2c.c **** 
 674:Drivers/STM32F0xx_HAL_Driver/Src/stm32f0xx_hal_i2c.c ****   hi2c->ErrorCode = HAL_I2C_ERROR_NONE;
 307              		.loc 1 674 19
 308 0032 7B68     		ldr	r3, [r7, #4]
 309 0034 0022     		movs	r2, #0
 310 0036 5A64     		str	r2, [r3, #68]
 675:Drivers/STM32F0xx_HAL_Driver/Src/stm32f0xx_hal_i2c.c ****   hi2c->State = HAL_I2C_STATE_RESET;
 311              		.loc 1 675 15
 312 0038 7B68     		ldr	r3, [r7, #4]
 313 003a 4122     		movs	r2, #65
 314 003c 0021     		movs	r1, #0
 315 003e 9954     		strb	r1, [r3, r2]
 676:Drivers/STM32F0xx_HAL_Driver/Src/stm32f0xx_hal_i2c.c ****   hi2c->PreviousState = I2C_STATE_NONE;
 316              		.loc 1 676 23
 317 0040 7B68     		ldr	r3, [r7, #4]
 318 0042 0022     		movs	r2, #0
 319 0044 1A63     		str	r2, [r3, #48]
 677:Drivers/STM32F0xx_HAL_Driver/Src/stm32f0xx_hal_i2c.c ****   hi2c->Mode = HAL_I2C_MODE_NONE;
 320              		.loc 1 677 14
 321 0046 7B68     		ldr	r3, [r7, #4]
 322 0048 4222     		movs	r2, #66
 323 004a 0021     		movs	r1, #0
 324 004c 9954     		strb	r1, [r3, r2]
 678:Drivers/STM32F0xx_HAL_Driver/Src/stm32f0xx_hal_i2c.c **** 
 679:Drivers/STM32F0xx_HAL_Driver/Src/stm32f0xx_hal_i2c.c ****   /* Release Lock */
 680:Drivers/STM32F0xx_HAL_Driver/Src/stm32f0xx_hal_i2c.c ****   __HAL_UNLOCK(hi2c);
 325              		.loc 1 680 3
 326 004e 7B68     		ldr	r3, [r7, #4]
 327 0050 4022     		movs	r2, #64
 328 0052 0021     		movs	r1, #0
 329 0054 9954     		strb	r1, [r3, r2]
 681:Drivers/STM32F0xx_HAL_Driver/Src/stm32f0xx_hal_i2c.c **** 
 682:Drivers/STM32F0xx_HAL_Driver/Src/stm32f0xx_hal_i2c.c ****   return HAL_OK;
 330              		.loc 1 682 10
 331 0056 0023     		movs	r3, #0
 332              	.L12:
 683:Drivers/STM32F0xx_HAL_Driver/Src/stm32f0xx_hal_i2c.c **** }
 333              		.loc 1 683 1
 334 0058 1800     		movs	r0, r3
 335 005a BD46     		mov	sp, r7
 336 005c 02B0     		add	sp, sp, #8
 337              		@ sp needed
 338 005e 80BD     		pop	{r7, pc}
 339              		.cfi_endproc
 340              	.LFE41:
 342              		.section	.text.HAL_I2C_MspInit,"ax",%progbits
 343              		.align	1
 344              		.weak	HAL_I2C_MspInit
ARM GAS  C:\Users\mason\AppData\Local\Temp\ccsS7Myt.s 			page 19


 345              		.syntax unified
 346              		.code	16
 347              		.thumb_func
 349              	HAL_I2C_MspInit:
 350              	.LFB42:
 684:Drivers/STM32F0xx_HAL_Driver/Src/stm32f0xx_hal_i2c.c **** 
 685:Drivers/STM32F0xx_HAL_Driver/Src/stm32f0xx_hal_i2c.c **** /**
 686:Drivers/STM32F0xx_HAL_Driver/Src/stm32f0xx_hal_i2c.c ****   * @brief Initialize the I2C MSP.
 687:Drivers/STM32F0xx_HAL_Driver/Src/stm32f0xx_hal_i2c.c ****   * @param  hi2c Pointer to a I2C_HandleTypeDef structure that contains
 688:Drivers/STM32F0xx_HAL_Driver/Src/stm32f0xx_hal_i2c.c ****   *                the configuration information for the specified I2C.
 689:Drivers/STM32F0xx_HAL_Driver/Src/stm32f0xx_hal_i2c.c ****   * @retval None
 690:Drivers/STM32F0xx_HAL_Driver/Src/stm32f0xx_hal_i2c.c ****   */
 691:Drivers/STM32F0xx_HAL_Driver/Src/stm32f0xx_hal_i2c.c **** __weak void HAL_I2C_MspInit(I2C_HandleTypeDef *hi2c)
 692:Drivers/STM32F0xx_HAL_Driver/Src/stm32f0xx_hal_i2c.c **** {
 351              		.loc 1 692 1
 352              		.cfi_startproc
 353              		@ args = 0, pretend = 0, frame = 8
 354              		@ frame_needed = 1, uses_anonymous_args = 0
 355 0000 80B5     		push	{r7, lr}
 356              	.LCFI6:
 357              		.cfi_def_cfa_offset 8
 358              		.cfi_offset 7, -8
 359              		.cfi_offset 14, -4
 360 0002 82B0     		sub	sp, sp, #8
 361              	.LCFI7:
 362              		.cfi_def_cfa_offset 16
 363 0004 00AF     		add	r7, sp, #0
 364              	.LCFI8:
 365              		.cfi_def_cfa_register 7
 366 0006 7860     		str	r0, [r7, #4]
 693:Drivers/STM32F0xx_HAL_Driver/Src/stm32f0xx_hal_i2c.c ****   /* Prevent unused argument(s) compilation warning */
 694:Drivers/STM32F0xx_HAL_Driver/Src/stm32f0xx_hal_i2c.c ****   UNUSED(hi2c);
 695:Drivers/STM32F0xx_HAL_Driver/Src/stm32f0xx_hal_i2c.c **** 
 696:Drivers/STM32F0xx_HAL_Driver/Src/stm32f0xx_hal_i2c.c ****   /* NOTE : This function should not be modified, when the callback is needed,
 697:Drivers/STM32F0xx_HAL_Driver/Src/stm32f0xx_hal_i2c.c ****             the HAL_I2C_MspInit could be implemented in the user file
 698:Drivers/STM32F0xx_HAL_Driver/Src/stm32f0xx_hal_i2c.c ****    */
 699:Drivers/STM32F0xx_HAL_Driver/Src/stm32f0xx_hal_i2c.c **** }
 367              		.loc 1 699 1
 368 0008 C046     		nop
 369 000a BD46     		mov	sp, r7
 370 000c 02B0     		add	sp, sp, #8
 371              		@ sp needed
 372 000e 80BD     		pop	{r7, pc}
 373              		.cfi_endproc
 374              	.LFE42:
 376              		.section	.text.HAL_I2C_MspDeInit,"ax",%progbits
 377              		.align	1
 378              		.weak	HAL_I2C_MspDeInit
 379              		.syntax unified
 380              		.code	16
 381              		.thumb_func
 383              	HAL_I2C_MspDeInit:
 384              	.LFB43:
 700:Drivers/STM32F0xx_HAL_Driver/Src/stm32f0xx_hal_i2c.c **** 
 701:Drivers/STM32F0xx_HAL_Driver/Src/stm32f0xx_hal_i2c.c **** /**
 702:Drivers/STM32F0xx_HAL_Driver/Src/stm32f0xx_hal_i2c.c ****   * @brief DeInitialize the I2C MSP.
 703:Drivers/STM32F0xx_HAL_Driver/Src/stm32f0xx_hal_i2c.c ****   * @param  hi2c Pointer to a I2C_HandleTypeDef structure that contains
ARM GAS  C:\Users\mason\AppData\Local\Temp\ccsS7Myt.s 			page 20


 704:Drivers/STM32F0xx_HAL_Driver/Src/stm32f0xx_hal_i2c.c ****   *                the configuration information for the specified I2C.
 705:Drivers/STM32F0xx_HAL_Driver/Src/stm32f0xx_hal_i2c.c ****   * @retval None
 706:Drivers/STM32F0xx_HAL_Driver/Src/stm32f0xx_hal_i2c.c ****   */
 707:Drivers/STM32F0xx_HAL_Driver/Src/stm32f0xx_hal_i2c.c **** __weak void HAL_I2C_MspDeInit(I2C_HandleTypeDef *hi2c)
 708:Drivers/STM32F0xx_HAL_Driver/Src/stm32f0xx_hal_i2c.c **** {
 385              		.loc 1 708 1
 386              		.cfi_startproc
 387              		@ args = 0, pretend = 0, frame = 8
 388              		@ frame_needed = 1, uses_anonymous_args = 0
 389 0000 80B5     		push	{r7, lr}
 390              	.LCFI9:
 391              		.cfi_def_cfa_offset 8
 392              		.cfi_offset 7, -8
 393              		.cfi_offset 14, -4
 394 0002 82B0     		sub	sp, sp, #8
 395              	.LCFI10:
 396              		.cfi_def_cfa_offset 16
 397 0004 00AF     		add	r7, sp, #0
 398              	.LCFI11:
 399              		.cfi_def_cfa_register 7
 400 0006 7860     		str	r0, [r7, #4]
 709:Drivers/STM32F0xx_HAL_Driver/Src/stm32f0xx_hal_i2c.c ****   /* Prevent unused argument(s) compilation warning */
 710:Drivers/STM32F0xx_HAL_Driver/Src/stm32f0xx_hal_i2c.c ****   UNUSED(hi2c);
 711:Drivers/STM32F0xx_HAL_Driver/Src/stm32f0xx_hal_i2c.c **** 
 712:Drivers/STM32F0xx_HAL_Driver/Src/stm32f0xx_hal_i2c.c ****   /* NOTE : This function should not be modified, when the callback is needed,
 713:Drivers/STM32F0xx_HAL_Driver/Src/stm32f0xx_hal_i2c.c ****             the HAL_I2C_MspDeInit could be implemented in the user file
 714:Drivers/STM32F0xx_HAL_Driver/Src/stm32f0xx_hal_i2c.c ****    */
 715:Drivers/STM32F0xx_HAL_Driver/Src/stm32f0xx_hal_i2c.c **** }
 401              		.loc 1 715 1
 402 0008 C046     		nop
 403 000a BD46     		mov	sp, r7
 404 000c 02B0     		add	sp, sp, #8
 405              		@ sp needed
 406 000e 80BD     		pop	{r7, pc}
 407              		.cfi_endproc
 408              	.LFE43:
 410              		.section	.text.HAL_I2C_Master_Transmit,"ax",%progbits
 411              		.align	1
 412              		.global	HAL_I2C_Master_Transmit
 413              		.syntax unified
 414              		.code	16
 415              		.thumb_func
 417              	HAL_I2C_Master_Transmit:
 418              	.LFB44:
 716:Drivers/STM32F0xx_HAL_Driver/Src/stm32f0xx_hal_i2c.c **** 
 717:Drivers/STM32F0xx_HAL_Driver/Src/stm32f0xx_hal_i2c.c **** #if (USE_HAL_I2C_REGISTER_CALLBACKS == 1)
 718:Drivers/STM32F0xx_HAL_Driver/Src/stm32f0xx_hal_i2c.c **** /**
 719:Drivers/STM32F0xx_HAL_Driver/Src/stm32f0xx_hal_i2c.c ****   * @brief  Register a User I2C Callback
 720:Drivers/STM32F0xx_HAL_Driver/Src/stm32f0xx_hal_i2c.c ****   *         To be used instead of the weak predefined callback
 721:Drivers/STM32F0xx_HAL_Driver/Src/stm32f0xx_hal_i2c.c ****   * @note   The HAL_I2C_RegisterCallback() may be called before HAL_I2C_Init() in HAL_I2C_STATE_RES
 722:Drivers/STM32F0xx_HAL_Driver/Src/stm32f0xx_hal_i2c.c ****   *         to register callbacks for HAL_I2C_MSPINIT_CB_ID and HAL_I2C_MSPDEINIT_CB_ID.
 723:Drivers/STM32F0xx_HAL_Driver/Src/stm32f0xx_hal_i2c.c ****   * @param  hi2c Pointer to a I2C_HandleTypeDef structure that contains
 724:Drivers/STM32F0xx_HAL_Driver/Src/stm32f0xx_hal_i2c.c ****   *                the configuration information for the specified I2C.
 725:Drivers/STM32F0xx_HAL_Driver/Src/stm32f0xx_hal_i2c.c ****   * @param  CallbackID ID of the callback to be registered
 726:Drivers/STM32F0xx_HAL_Driver/Src/stm32f0xx_hal_i2c.c ****   *         This parameter can be one of the following values:
 727:Drivers/STM32F0xx_HAL_Driver/Src/stm32f0xx_hal_i2c.c ****   *          @arg @ref HAL_I2C_MASTER_TX_COMPLETE_CB_ID Master Tx Transfer completed callback ID
 728:Drivers/STM32F0xx_HAL_Driver/Src/stm32f0xx_hal_i2c.c ****   *          @arg @ref HAL_I2C_MASTER_RX_COMPLETE_CB_ID Master Rx Transfer completed callback ID
ARM GAS  C:\Users\mason\AppData\Local\Temp\ccsS7Myt.s 			page 21


 729:Drivers/STM32F0xx_HAL_Driver/Src/stm32f0xx_hal_i2c.c ****   *          @arg @ref HAL_I2C_SLAVE_TX_COMPLETE_CB_ID Slave Tx Transfer completed callback ID
 730:Drivers/STM32F0xx_HAL_Driver/Src/stm32f0xx_hal_i2c.c ****   *          @arg @ref HAL_I2C_SLAVE_RX_COMPLETE_CB_ID Slave Rx Transfer completed callback ID
 731:Drivers/STM32F0xx_HAL_Driver/Src/stm32f0xx_hal_i2c.c ****   *          @arg @ref HAL_I2C_LISTEN_COMPLETE_CB_ID Listen Complete callback ID
 732:Drivers/STM32F0xx_HAL_Driver/Src/stm32f0xx_hal_i2c.c ****   *          @arg @ref HAL_I2C_MEM_TX_COMPLETE_CB_ID Memory Tx Transfer callback ID
 733:Drivers/STM32F0xx_HAL_Driver/Src/stm32f0xx_hal_i2c.c ****   *          @arg @ref HAL_I2C_MEM_RX_COMPLETE_CB_ID Memory Rx Transfer completed callback ID
 734:Drivers/STM32F0xx_HAL_Driver/Src/stm32f0xx_hal_i2c.c ****   *          @arg @ref HAL_I2C_ERROR_CB_ID Error callback ID
 735:Drivers/STM32F0xx_HAL_Driver/Src/stm32f0xx_hal_i2c.c ****   *          @arg @ref HAL_I2C_ABORT_CB_ID Abort callback ID
 736:Drivers/STM32F0xx_HAL_Driver/Src/stm32f0xx_hal_i2c.c ****   *          @arg @ref HAL_I2C_MSPINIT_CB_ID MspInit callback ID
 737:Drivers/STM32F0xx_HAL_Driver/Src/stm32f0xx_hal_i2c.c ****   *          @arg @ref HAL_I2C_MSPDEINIT_CB_ID MspDeInit callback ID
 738:Drivers/STM32F0xx_HAL_Driver/Src/stm32f0xx_hal_i2c.c ****   * @param  pCallback pointer to the Callback function
 739:Drivers/STM32F0xx_HAL_Driver/Src/stm32f0xx_hal_i2c.c ****   * @retval HAL status
 740:Drivers/STM32F0xx_HAL_Driver/Src/stm32f0xx_hal_i2c.c ****   */
 741:Drivers/STM32F0xx_HAL_Driver/Src/stm32f0xx_hal_i2c.c **** HAL_StatusTypeDef HAL_I2C_RegisterCallback(I2C_HandleTypeDef *hi2c, HAL_I2C_CallbackIDTypeDef Callb
 742:Drivers/STM32F0xx_HAL_Driver/Src/stm32f0xx_hal_i2c.c ****                                            pI2C_CallbackTypeDef pCallback)
 743:Drivers/STM32F0xx_HAL_Driver/Src/stm32f0xx_hal_i2c.c **** {
 744:Drivers/STM32F0xx_HAL_Driver/Src/stm32f0xx_hal_i2c.c ****   HAL_StatusTypeDef status = HAL_OK;
 745:Drivers/STM32F0xx_HAL_Driver/Src/stm32f0xx_hal_i2c.c **** 
 746:Drivers/STM32F0xx_HAL_Driver/Src/stm32f0xx_hal_i2c.c ****   if (pCallback == NULL)
 747:Drivers/STM32F0xx_HAL_Driver/Src/stm32f0xx_hal_i2c.c ****   {
 748:Drivers/STM32F0xx_HAL_Driver/Src/stm32f0xx_hal_i2c.c ****     /* Update the error code */
 749:Drivers/STM32F0xx_HAL_Driver/Src/stm32f0xx_hal_i2c.c ****     hi2c->ErrorCode |= HAL_I2C_ERROR_INVALID_CALLBACK;
 750:Drivers/STM32F0xx_HAL_Driver/Src/stm32f0xx_hal_i2c.c **** 
 751:Drivers/STM32F0xx_HAL_Driver/Src/stm32f0xx_hal_i2c.c ****     return HAL_ERROR;
 752:Drivers/STM32F0xx_HAL_Driver/Src/stm32f0xx_hal_i2c.c ****   }
 753:Drivers/STM32F0xx_HAL_Driver/Src/stm32f0xx_hal_i2c.c **** 
 754:Drivers/STM32F0xx_HAL_Driver/Src/stm32f0xx_hal_i2c.c ****   if (HAL_I2C_STATE_READY == hi2c->State)
 755:Drivers/STM32F0xx_HAL_Driver/Src/stm32f0xx_hal_i2c.c ****   {
 756:Drivers/STM32F0xx_HAL_Driver/Src/stm32f0xx_hal_i2c.c ****     switch (CallbackID)
 757:Drivers/STM32F0xx_HAL_Driver/Src/stm32f0xx_hal_i2c.c ****     {
 758:Drivers/STM32F0xx_HAL_Driver/Src/stm32f0xx_hal_i2c.c ****       case HAL_I2C_MASTER_TX_COMPLETE_CB_ID :
 759:Drivers/STM32F0xx_HAL_Driver/Src/stm32f0xx_hal_i2c.c ****         hi2c->MasterTxCpltCallback = pCallback;
 760:Drivers/STM32F0xx_HAL_Driver/Src/stm32f0xx_hal_i2c.c ****         break;
 761:Drivers/STM32F0xx_HAL_Driver/Src/stm32f0xx_hal_i2c.c **** 
 762:Drivers/STM32F0xx_HAL_Driver/Src/stm32f0xx_hal_i2c.c ****       case HAL_I2C_MASTER_RX_COMPLETE_CB_ID :
 763:Drivers/STM32F0xx_HAL_Driver/Src/stm32f0xx_hal_i2c.c ****         hi2c->MasterRxCpltCallback = pCallback;
 764:Drivers/STM32F0xx_HAL_Driver/Src/stm32f0xx_hal_i2c.c ****         break;
 765:Drivers/STM32F0xx_HAL_Driver/Src/stm32f0xx_hal_i2c.c **** 
 766:Drivers/STM32F0xx_HAL_Driver/Src/stm32f0xx_hal_i2c.c ****       case HAL_I2C_SLAVE_TX_COMPLETE_CB_ID :
 767:Drivers/STM32F0xx_HAL_Driver/Src/stm32f0xx_hal_i2c.c ****         hi2c->SlaveTxCpltCallback = pCallback;
 768:Drivers/STM32F0xx_HAL_Driver/Src/stm32f0xx_hal_i2c.c ****         break;
 769:Drivers/STM32F0xx_HAL_Driver/Src/stm32f0xx_hal_i2c.c **** 
 770:Drivers/STM32F0xx_HAL_Driver/Src/stm32f0xx_hal_i2c.c ****       case HAL_I2C_SLAVE_RX_COMPLETE_CB_ID :
 771:Drivers/STM32F0xx_HAL_Driver/Src/stm32f0xx_hal_i2c.c ****         hi2c->SlaveRxCpltCallback = pCallback;
 772:Drivers/STM32F0xx_HAL_Driver/Src/stm32f0xx_hal_i2c.c ****         break;
 773:Drivers/STM32F0xx_HAL_Driver/Src/stm32f0xx_hal_i2c.c **** 
 774:Drivers/STM32F0xx_HAL_Driver/Src/stm32f0xx_hal_i2c.c ****       case HAL_I2C_LISTEN_COMPLETE_CB_ID :
 775:Drivers/STM32F0xx_HAL_Driver/Src/stm32f0xx_hal_i2c.c ****         hi2c->ListenCpltCallback = pCallback;
 776:Drivers/STM32F0xx_HAL_Driver/Src/stm32f0xx_hal_i2c.c ****         break;
 777:Drivers/STM32F0xx_HAL_Driver/Src/stm32f0xx_hal_i2c.c **** 
 778:Drivers/STM32F0xx_HAL_Driver/Src/stm32f0xx_hal_i2c.c ****       case HAL_I2C_MEM_TX_COMPLETE_CB_ID :
 779:Drivers/STM32F0xx_HAL_Driver/Src/stm32f0xx_hal_i2c.c ****         hi2c->MemTxCpltCallback = pCallback;
 780:Drivers/STM32F0xx_HAL_Driver/Src/stm32f0xx_hal_i2c.c ****         break;
 781:Drivers/STM32F0xx_HAL_Driver/Src/stm32f0xx_hal_i2c.c **** 
 782:Drivers/STM32F0xx_HAL_Driver/Src/stm32f0xx_hal_i2c.c ****       case HAL_I2C_MEM_RX_COMPLETE_CB_ID :
 783:Drivers/STM32F0xx_HAL_Driver/Src/stm32f0xx_hal_i2c.c ****         hi2c->MemRxCpltCallback = pCallback;
 784:Drivers/STM32F0xx_HAL_Driver/Src/stm32f0xx_hal_i2c.c ****         break;
 785:Drivers/STM32F0xx_HAL_Driver/Src/stm32f0xx_hal_i2c.c **** 
ARM GAS  C:\Users\mason\AppData\Local\Temp\ccsS7Myt.s 			page 22


 786:Drivers/STM32F0xx_HAL_Driver/Src/stm32f0xx_hal_i2c.c ****       case HAL_I2C_ERROR_CB_ID :
 787:Drivers/STM32F0xx_HAL_Driver/Src/stm32f0xx_hal_i2c.c ****         hi2c->ErrorCallback = pCallback;
 788:Drivers/STM32F0xx_HAL_Driver/Src/stm32f0xx_hal_i2c.c ****         break;
 789:Drivers/STM32F0xx_HAL_Driver/Src/stm32f0xx_hal_i2c.c **** 
 790:Drivers/STM32F0xx_HAL_Driver/Src/stm32f0xx_hal_i2c.c ****       case HAL_I2C_ABORT_CB_ID :
 791:Drivers/STM32F0xx_HAL_Driver/Src/stm32f0xx_hal_i2c.c ****         hi2c->AbortCpltCallback = pCallback;
 792:Drivers/STM32F0xx_HAL_Driver/Src/stm32f0xx_hal_i2c.c ****         break;
 793:Drivers/STM32F0xx_HAL_Driver/Src/stm32f0xx_hal_i2c.c **** 
 794:Drivers/STM32F0xx_HAL_Driver/Src/stm32f0xx_hal_i2c.c ****       case HAL_I2C_MSPINIT_CB_ID :
 795:Drivers/STM32F0xx_HAL_Driver/Src/stm32f0xx_hal_i2c.c ****         hi2c->MspInitCallback = pCallback;
 796:Drivers/STM32F0xx_HAL_Driver/Src/stm32f0xx_hal_i2c.c ****         break;
 797:Drivers/STM32F0xx_HAL_Driver/Src/stm32f0xx_hal_i2c.c **** 
 798:Drivers/STM32F0xx_HAL_Driver/Src/stm32f0xx_hal_i2c.c ****       case HAL_I2C_MSPDEINIT_CB_ID :
 799:Drivers/STM32F0xx_HAL_Driver/Src/stm32f0xx_hal_i2c.c ****         hi2c->MspDeInitCallback = pCallback;
 800:Drivers/STM32F0xx_HAL_Driver/Src/stm32f0xx_hal_i2c.c ****         break;
 801:Drivers/STM32F0xx_HAL_Driver/Src/stm32f0xx_hal_i2c.c **** 
 802:Drivers/STM32F0xx_HAL_Driver/Src/stm32f0xx_hal_i2c.c ****       default :
 803:Drivers/STM32F0xx_HAL_Driver/Src/stm32f0xx_hal_i2c.c ****         /* Update the error code */
 804:Drivers/STM32F0xx_HAL_Driver/Src/stm32f0xx_hal_i2c.c ****         hi2c->ErrorCode |= HAL_I2C_ERROR_INVALID_CALLBACK;
 805:Drivers/STM32F0xx_HAL_Driver/Src/stm32f0xx_hal_i2c.c **** 
 806:Drivers/STM32F0xx_HAL_Driver/Src/stm32f0xx_hal_i2c.c ****         /* Return error status */
 807:Drivers/STM32F0xx_HAL_Driver/Src/stm32f0xx_hal_i2c.c ****         status =  HAL_ERROR;
 808:Drivers/STM32F0xx_HAL_Driver/Src/stm32f0xx_hal_i2c.c ****         break;
 809:Drivers/STM32F0xx_HAL_Driver/Src/stm32f0xx_hal_i2c.c ****     }
 810:Drivers/STM32F0xx_HAL_Driver/Src/stm32f0xx_hal_i2c.c ****   }
 811:Drivers/STM32F0xx_HAL_Driver/Src/stm32f0xx_hal_i2c.c ****   else if (HAL_I2C_STATE_RESET == hi2c->State)
 812:Drivers/STM32F0xx_HAL_Driver/Src/stm32f0xx_hal_i2c.c ****   {
 813:Drivers/STM32F0xx_HAL_Driver/Src/stm32f0xx_hal_i2c.c ****     switch (CallbackID)
 814:Drivers/STM32F0xx_HAL_Driver/Src/stm32f0xx_hal_i2c.c ****     {
 815:Drivers/STM32F0xx_HAL_Driver/Src/stm32f0xx_hal_i2c.c ****       case HAL_I2C_MSPINIT_CB_ID :
 816:Drivers/STM32F0xx_HAL_Driver/Src/stm32f0xx_hal_i2c.c ****         hi2c->MspInitCallback = pCallback;
 817:Drivers/STM32F0xx_HAL_Driver/Src/stm32f0xx_hal_i2c.c ****         break;
 818:Drivers/STM32F0xx_HAL_Driver/Src/stm32f0xx_hal_i2c.c **** 
 819:Drivers/STM32F0xx_HAL_Driver/Src/stm32f0xx_hal_i2c.c ****       case HAL_I2C_MSPDEINIT_CB_ID :
 820:Drivers/STM32F0xx_HAL_Driver/Src/stm32f0xx_hal_i2c.c ****         hi2c->MspDeInitCallback = pCallback;
 821:Drivers/STM32F0xx_HAL_Driver/Src/stm32f0xx_hal_i2c.c ****         break;
 822:Drivers/STM32F0xx_HAL_Driver/Src/stm32f0xx_hal_i2c.c **** 
 823:Drivers/STM32F0xx_HAL_Driver/Src/stm32f0xx_hal_i2c.c ****       default :
 824:Drivers/STM32F0xx_HAL_Driver/Src/stm32f0xx_hal_i2c.c ****         /* Update the error code */
 825:Drivers/STM32F0xx_HAL_Driver/Src/stm32f0xx_hal_i2c.c ****         hi2c->ErrorCode |= HAL_I2C_ERROR_INVALID_CALLBACK;
 826:Drivers/STM32F0xx_HAL_Driver/Src/stm32f0xx_hal_i2c.c **** 
 827:Drivers/STM32F0xx_HAL_Driver/Src/stm32f0xx_hal_i2c.c ****         /* Return error status */
 828:Drivers/STM32F0xx_HAL_Driver/Src/stm32f0xx_hal_i2c.c ****         status =  HAL_ERROR;
 829:Drivers/STM32F0xx_HAL_Driver/Src/stm32f0xx_hal_i2c.c ****         break;
 830:Drivers/STM32F0xx_HAL_Driver/Src/stm32f0xx_hal_i2c.c ****     }
 831:Drivers/STM32F0xx_HAL_Driver/Src/stm32f0xx_hal_i2c.c ****   }
 832:Drivers/STM32F0xx_HAL_Driver/Src/stm32f0xx_hal_i2c.c ****   else
 833:Drivers/STM32F0xx_HAL_Driver/Src/stm32f0xx_hal_i2c.c ****   {
 834:Drivers/STM32F0xx_HAL_Driver/Src/stm32f0xx_hal_i2c.c ****     /* Update the error code */
 835:Drivers/STM32F0xx_HAL_Driver/Src/stm32f0xx_hal_i2c.c ****     hi2c->ErrorCode |= HAL_I2C_ERROR_INVALID_CALLBACK;
 836:Drivers/STM32F0xx_HAL_Driver/Src/stm32f0xx_hal_i2c.c **** 
 837:Drivers/STM32F0xx_HAL_Driver/Src/stm32f0xx_hal_i2c.c ****     /* Return error status */
 838:Drivers/STM32F0xx_HAL_Driver/Src/stm32f0xx_hal_i2c.c ****     status =  HAL_ERROR;
 839:Drivers/STM32F0xx_HAL_Driver/Src/stm32f0xx_hal_i2c.c ****   }
 840:Drivers/STM32F0xx_HAL_Driver/Src/stm32f0xx_hal_i2c.c **** 
 841:Drivers/STM32F0xx_HAL_Driver/Src/stm32f0xx_hal_i2c.c ****   return status;
 842:Drivers/STM32F0xx_HAL_Driver/Src/stm32f0xx_hal_i2c.c **** }
ARM GAS  C:\Users\mason\AppData\Local\Temp\ccsS7Myt.s 			page 23


 843:Drivers/STM32F0xx_HAL_Driver/Src/stm32f0xx_hal_i2c.c **** 
 844:Drivers/STM32F0xx_HAL_Driver/Src/stm32f0xx_hal_i2c.c **** /**
 845:Drivers/STM32F0xx_HAL_Driver/Src/stm32f0xx_hal_i2c.c ****   * @brief  Unregister an I2C Callback
 846:Drivers/STM32F0xx_HAL_Driver/Src/stm32f0xx_hal_i2c.c ****   *         I2C callback is redirected to the weak predefined callback
 847:Drivers/STM32F0xx_HAL_Driver/Src/stm32f0xx_hal_i2c.c ****   * @note   The HAL_I2C_UnRegisterCallback() may be called before HAL_I2C_Init() in HAL_I2C_STATE_R
 848:Drivers/STM32F0xx_HAL_Driver/Src/stm32f0xx_hal_i2c.c ****   *         to un-register callbacks for HAL_I2C_MSPINIT_CB_ID and HAL_I2C_MSPDEINIT_CB_ID.
 849:Drivers/STM32F0xx_HAL_Driver/Src/stm32f0xx_hal_i2c.c ****   * @param  hi2c Pointer to a I2C_HandleTypeDef structure that contains
 850:Drivers/STM32F0xx_HAL_Driver/Src/stm32f0xx_hal_i2c.c ****   *                the configuration information for the specified I2C.
 851:Drivers/STM32F0xx_HAL_Driver/Src/stm32f0xx_hal_i2c.c ****   * @param  CallbackID ID of the callback to be unregistered
 852:Drivers/STM32F0xx_HAL_Driver/Src/stm32f0xx_hal_i2c.c ****   *         This parameter can be one of the following values:
 853:Drivers/STM32F0xx_HAL_Driver/Src/stm32f0xx_hal_i2c.c ****   *         This parameter can be one of the following values:
 854:Drivers/STM32F0xx_HAL_Driver/Src/stm32f0xx_hal_i2c.c ****   *          @arg @ref HAL_I2C_MASTER_TX_COMPLETE_CB_ID Master Tx Transfer completed callback ID
 855:Drivers/STM32F0xx_HAL_Driver/Src/stm32f0xx_hal_i2c.c ****   *          @arg @ref HAL_I2C_MASTER_RX_COMPLETE_CB_ID Master Rx Transfer completed callback ID
 856:Drivers/STM32F0xx_HAL_Driver/Src/stm32f0xx_hal_i2c.c ****   *          @arg @ref HAL_I2C_SLAVE_TX_COMPLETE_CB_ID Slave Tx Transfer completed callback ID
 857:Drivers/STM32F0xx_HAL_Driver/Src/stm32f0xx_hal_i2c.c ****   *          @arg @ref HAL_I2C_SLAVE_RX_COMPLETE_CB_ID Slave Rx Transfer completed callback ID
 858:Drivers/STM32F0xx_HAL_Driver/Src/stm32f0xx_hal_i2c.c ****   *          @arg @ref HAL_I2C_LISTEN_COMPLETE_CB_ID Listen Complete callback ID
 859:Drivers/STM32F0xx_HAL_Driver/Src/stm32f0xx_hal_i2c.c ****   *          @arg @ref HAL_I2C_MEM_TX_COMPLETE_CB_ID Memory Tx Transfer callback ID
 860:Drivers/STM32F0xx_HAL_Driver/Src/stm32f0xx_hal_i2c.c ****   *          @arg @ref HAL_I2C_MEM_RX_COMPLETE_CB_ID Memory Rx Transfer completed callback ID
 861:Drivers/STM32F0xx_HAL_Driver/Src/stm32f0xx_hal_i2c.c ****   *          @arg @ref HAL_I2C_ERROR_CB_ID Error callback ID
 862:Drivers/STM32F0xx_HAL_Driver/Src/stm32f0xx_hal_i2c.c ****   *          @arg @ref HAL_I2C_ABORT_CB_ID Abort callback ID
 863:Drivers/STM32F0xx_HAL_Driver/Src/stm32f0xx_hal_i2c.c ****   *          @arg @ref HAL_I2C_MSPINIT_CB_ID MspInit callback ID
 864:Drivers/STM32F0xx_HAL_Driver/Src/stm32f0xx_hal_i2c.c ****   *          @arg @ref HAL_I2C_MSPDEINIT_CB_ID MspDeInit callback ID
 865:Drivers/STM32F0xx_HAL_Driver/Src/stm32f0xx_hal_i2c.c ****   * @retval HAL status
 866:Drivers/STM32F0xx_HAL_Driver/Src/stm32f0xx_hal_i2c.c ****   */
 867:Drivers/STM32F0xx_HAL_Driver/Src/stm32f0xx_hal_i2c.c **** HAL_StatusTypeDef HAL_I2C_UnRegisterCallback(I2C_HandleTypeDef *hi2c, HAL_I2C_CallbackIDTypeDef Cal
 868:Drivers/STM32F0xx_HAL_Driver/Src/stm32f0xx_hal_i2c.c **** {
 869:Drivers/STM32F0xx_HAL_Driver/Src/stm32f0xx_hal_i2c.c ****   HAL_StatusTypeDef status = HAL_OK;
 870:Drivers/STM32F0xx_HAL_Driver/Src/stm32f0xx_hal_i2c.c **** 
 871:Drivers/STM32F0xx_HAL_Driver/Src/stm32f0xx_hal_i2c.c ****   if (HAL_I2C_STATE_READY == hi2c->State)
 872:Drivers/STM32F0xx_HAL_Driver/Src/stm32f0xx_hal_i2c.c ****   {
 873:Drivers/STM32F0xx_HAL_Driver/Src/stm32f0xx_hal_i2c.c ****     switch (CallbackID)
 874:Drivers/STM32F0xx_HAL_Driver/Src/stm32f0xx_hal_i2c.c ****     {
 875:Drivers/STM32F0xx_HAL_Driver/Src/stm32f0xx_hal_i2c.c ****       case HAL_I2C_MASTER_TX_COMPLETE_CB_ID :
 876:Drivers/STM32F0xx_HAL_Driver/Src/stm32f0xx_hal_i2c.c ****         hi2c->MasterTxCpltCallback = HAL_I2C_MasterTxCpltCallback; /* Legacy weak MasterTxCpltCallb
 877:Drivers/STM32F0xx_HAL_Driver/Src/stm32f0xx_hal_i2c.c ****         break;
 878:Drivers/STM32F0xx_HAL_Driver/Src/stm32f0xx_hal_i2c.c **** 
 879:Drivers/STM32F0xx_HAL_Driver/Src/stm32f0xx_hal_i2c.c ****       case HAL_I2C_MASTER_RX_COMPLETE_CB_ID :
 880:Drivers/STM32F0xx_HAL_Driver/Src/stm32f0xx_hal_i2c.c ****         hi2c->MasterRxCpltCallback = HAL_I2C_MasterRxCpltCallback; /* Legacy weak MasterRxCpltCallb
 881:Drivers/STM32F0xx_HAL_Driver/Src/stm32f0xx_hal_i2c.c ****         break;
 882:Drivers/STM32F0xx_HAL_Driver/Src/stm32f0xx_hal_i2c.c **** 
 883:Drivers/STM32F0xx_HAL_Driver/Src/stm32f0xx_hal_i2c.c ****       case HAL_I2C_SLAVE_TX_COMPLETE_CB_ID :
 884:Drivers/STM32F0xx_HAL_Driver/Src/stm32f0xx_hal_i2c.c ****         hi2c->SlaveTxCpltCallback = HAL_I2C_SlaveTxCpltCallback;   /* Legacy weak SlaveTxCpltCallba
 885:Drivers/STM32F0xx_HAL_Driver/Src/stm32f0xx_hal_i2c.c ****         break;
 886:Drivers/STM32F0xx_HAL_Driver/Src/stm32f0xx_hal_i2c.c **** 
 887:Drivers/STM32F0xx_HAL_Driver/Src/stm32f0xx_hal_i2c.c ****       case HAL_I2C_SLAVE_RX_COMPLETE_CB_ID :
 888:Drivers/STM32F0xx_HAL_Driver/Src/stm32f0xx_hal_i2c.c ****         hi2c->SlaveRxCpltCallback = HAL_I2C_SlaveRxCpltCallback;   /* Legacy weak SlaveRxCpltCallba
 889:Drivers/STM32F0xx_HAL_Driver/Src/stm32f0xx_hal_i2c.c ****         break;
 890:Drivers/STM32F0xx_HAL_Driver/Src/stm32f0xx_hal_i2c.c **** 
 891:Drivers/STM32F0xx_HAL_Driver/Src/stm32f0xx_hal_i2c.c ****       case HAL_I2C_LISTEN_COMPLETE_CB_ID :
 892:Drivers/STM32F0xx_HAL_Driver/Src/stm32f0xx_hal_i2c.c ****         hi2c->ListenCpltCallback = HAL_I2C_ListenCpltCallback;     /* Legacy weak ListenCpltCallbac
 893:Drivers/STM32F0xx_HAL_Driver/Src/stm32f0xx_hal_i2c.c ****         break;
 894:Drivers/STM32F0xx_HAL_Driver/Src/stm32f0xx_hal_i2c.c **** 
 895:Drivers/STM32F0xx_HAL_Driver/Src/stm32f0xx_hal_i2c.c ****       case HAL_I2C_MEM_TX_COMPLETE_CB_ID :
 896:Drivers/STM32F0xx_HAL_Driver/Src/stm32f0xx_hal_i2c.c ****         hi2c->MemTxCpltCallback = HAL_I2C_MemTxCpltCallback;       /* Legacy weak MemTxCpltCallback
 897:Drivers/STM32F0xx_HAL_Driver/Src/stm32f0xx_hal_i2c.c ****         break;
 898:Drivers/STM32F0xx_HAL_Driver/Src/stm32f0xx_hal_i2c.c **** 
 899:Drivers/STM32F0xx_HAL_Driver/Src/stm32f0xx_hal_i2c.c ****       case HAL_I2C_MEM_RX_COMPLETE_CB_ID :
ARM GAS  C:\Users\mason\AppData\Local\Temp\ccsS7Myt.s 			page 24


 900:Drivers/STM32F0xx_HAL_Driver/Src/stm32f0xx_hal_i2c.c ****         hi2c->MemRxCpltCallback = HAL_I2C_MemRxCpltCallback;       /* Legacy weak MemRxCpltCallback
 901:Drivers/STM32F0xx_HAL_Driver/Src/stm32f0xx_hal_i2c.c ****         break;
 902:Drivers/STM32F0xx_HAL_Driver/Src/stm32f0xx_hal_i2c.c **** 
 903:Drivers/STM32F0xx_HAL_Driver/Src/stm32f0xx_hal_i2c.c ****       case HAL_I2C_ERROR_CB_ID :
 904:Drivers/STM32F0xx_HAL_Driver/Src/stm32f0xx_hal_i2c.c ****         hi2c->ErrorCallback = HAL_I2C_ErrorCallback;               /* Legacy weak ErrorCallback    
 905:Drivers/STM32F0xx_HAL_Driver/Src/stm32f0xx_hal_i2c.c ****         break;
 906:Drivers/STM32F0xx_HAL_Driver/Src/stm32f0xx_hal_i2c.c **** 
 907:Drivers/STM32F0xx_HAL_Driver/Src/stm32f0xx_hal_i2c.c ****       case HAL_I2C_ABORT_CB_ID :
 908:Drivers/STM32F0xx_HAL_Driver/Src/stm32f0xx_hal_i2c.c ****         hi2c->AbortCpltCallback = HAL_I2C_AbortCpltCallback;       /* Legacy weak AbortCpltCallback
 909:Drivers/STM32F0xx_HAL_Driver/Src/stm32f0xx_hal_i2c.c ****         break;
 910:Drivers/STM32F0xx_HAL_Driver/Src/stm32f0xx_hal_i2c.c **** 
 911:Drivers/STM32F0xx_HAL_Driver/Src/stm32f0xx_hal_i2c.c ****       case HAL_I2C_MSPINIT_CB_ID :
 912:Drivers/STM32F0xx_HAL_Driver/Src/stm32f0xx_hal_i2c.c ****         hi2c->MspInitCallback = HAL_I2C_MspInit;                   /* Legacy weak MspInit          
 913:Drivers/STM32F0xx_HAL_Driver/Src/stm32f0xx_hal_i2c.c ****         break;
 914:Drivers/STM32F0xx_HAL_Driver/Src/stm32f0xx_hal_i2c.c **** 
 915:Drivers/STM32F0xx_HAL_Driver/Src/stm32f0xx_hal_i2c.c ****       case HAL_I2C_MSPDEINIT_CB_ID :
 916:Drivers/STM32F0xx_HAL_Driver/Src/stm32f0xx_hal_i2c.c ****         hi2c->MspDeInitCallback = HAL_I2C_MspDeInit;               /* Legacy weak MspDeInit        
 917:Drivers/STM32F0xx_HAL_Driver/Src/stm32f0xx_hal_i2c.c ****         break;
 918:Drivers/STM32F0xx_HAL_Driver/Src/stm32f0xx_hal_i2c.c **** 
 919:Drivers/STM32F0xx_HAL_Driver/Src/stm32f0xx_hal_i2c.c ****       default :
 920:Drivers/STM32F0xx_HAL_Driver/Src/stm32f0xx_hal_i2c.c ****         /* Update the error code */
 921:Drivers/STM32F0xx_HAL_Driver/Src/stm32f0xx_hal_i2c.c ****         hi2c->ErrorCode |= HAL_I2C_ERROR_INVALID_CALLBACK;
 922:Drivers/STM32F0xx_HAL_Driver/Src/stm32f0xx_hal_i2c.c **** 
 923:Drivers/STM32F0xx_HAL_Driver/Src/stm32f0xx_hal_i2c.c ****         /* Return error status */
 924:Drivers/STM32F0xx_HAL_Driver/Src/stm32f0xx_hal_i2c.c ****         status =  HAL_ERROR;
 925:Drivers/STM32F0xx_HAL_Driver/Src/stm32f0xx_hal_i2c.c ****         break;
 926:Drivers/STM32F0xx_HAL_Driver/Src/stm32f0xx_hal_i2c.c ****     }
 927:Drivers/STM32F0xx_HAL_Driver/Src/stm32f0xx_hal_i2c.c ****   }
 928:Drivers/STM32F0xx_HAL_Driver/Src/stm32f0xx_hal_i2c.c ****   else if (HAL_I2C_STATE_RESET == hi2c->State)
 929:Drivers/STM32F0xx_HAL_Driver/Src/stm32f0xx_hal_i2c.c ****   {
 930:Drivers/STM32F0xx_HAL_Driver/Src/stm32f0xx_hal_i2c.c ****     switch (CallbackID)
 931:Drivers/STM32F0xx_HAL_Driver/Src/stm32f0xx_hal_i2c.c ****     {
 932:Drivers/STM32F0xx_HAL_Driver/Src/stm32f0xx_hal_i2c.c ****       case HAL_I2C_MSPINIT_CB_ID :
 933:Drivers/STM32F0xx_HAL_Driver/Src/stm32f0xx_hal_i2c.c ****         hi2c->MspInitCallback = HAL_I2C_MspInit;                   /* Legacy weak MspInit          
 934:Drivers/STM32F0xx_HAL_Driver/Src/stm32f0xx_hal_i2c.c ****         break;
 935:Drivers/STM32F0xx_HAL_Driver/Src/stm32f0xx_hal_i2c.c **** 
 936:Drivers/STM32F0xx_HAL_Driver/Src/stm32f0xx_hal_i2c.c ****       case HAL_I2C_MSPDEINIT_CB_ID :
 937:Drivers/STM32F0xx_HAL_Driver/Src/stm32f0xx_hal_i2c.c ****         hi2c->MspDeInitCallback = HAL_I2C_MspDeInit;               /* Legacy weak MspDeInit        
 938:Drivers/STM32F0xx_HAL_Driver/Src/stm32f0xx_hal_i2c.c ****         break;
 939:Drivers/STM32F0xx_HAL_Driver/Src/stm32f0xx_hal_i2c.c **** 
 940:Drivers/STM32F0xx_HAL_Driver/Src/stm32f0xx_hal_i2c.c ****       default :
 941:Drivers/STM32F0xx_HAL_Driver/Src/stm32f0xx_hal_i2c.c ****         /* Update the error code */
 942:Drivers/STM32F0xx_HAL_Driver/Src/stm32f0xx_hal_i2c.c ****         hi2c->ErrorCode |= HAL_I2C_ERROR_INVALID_CALLBACK;
 943:Drivers/STM32F0xx_HAL_Driver/Src/stm32f0xx_hal_i2c.c **** 
 944:Drivers/STM32F0xx_HAL_Driver/Src/stm32f0xx_hal_i2c.c ****         /* Return error status */
 945:Drivers/STM32F0xx_HAL_Driver/Src/stm32f0xx_hal_i2c.c ****         status =  HAL_ERROR;
 946:Drivers/STM32F0xx_HAL_Driver/Src/stm32f0xx_hal_i2c.c ****         break;
 947:Drivers/STM32F0xx_HAL_Driver/Src/stm32f0xx_hal_i2c.c ****     }
 948:Drivers/STM32F0xx_HAL_Driver/Src/stm32f0xx_hal_i2c.c ****   }
 949:Drivers/STM32F0xx_HAL_Driver/Src/stm32f0xx_hal_i2c.c ****   else
 950:Drivers/STM32F0xx_HAL_Driver/Src/stm32f0xx_hal_i2c.c ****   {
 951:Drivers/STM32F0xx_HAL_Driver/Src/stm32f0xx_hal_i2c.c ****     /* Update the error code */
 952:Drivers/STM32F0xx_HAL_Driver/Src/stm32f0xx_hal_i2c.c ****     hi2c->ErrorCode |= HAL_I2C_ERROR_INVALID_CALLBACK;
 953:Drivers/STM32F0xx_HAL_Driver/Src/stm32f0xx_hal_i2c.c **** 
 954:Drivers/STM32F0xx_HAL_Driver/Src/stm32f0xx_hal_i2c.c ****     /* Return error status */
 955:Drivers/STM32F0xx_HAL_Driver/Src/stm32f0xx_hal_i2c.c ****     status =  HAL_ERROR;
 956:Drivers/STM32F0xx_HAL_Driver/Src/stm32f0xx_hal_i2c.c ****   }
ARM GAS  C:\Users\mason\AppData\Local\Temp\ccsS7Myt.s 			page 25


 957:Drivers/STM32F0xx_HAL_Driver/Src/stm32f0xx_hal_i2c.c **** 
 958:Drivers/STM32F0xx_HAL_Driver/Src/stm32f0xx_hal_i2c.c ****   return status;
 959:Drivers/STM32F0xx_HAL_Driver/Src/stm32f0xx_hal_i2c.c **** }
 960:Drivers/STM32F0xx_HAL_Driver/Src/stm32f0xx_hal_i2c.c **** 
 961:Drivers/STM32F0xx_HAL_Driver/Src/stm32f0xx_hal_i2c.c **** /**
 962:Drivers/STM32F0xx_HAL_Driver/Src/stm32f0xx_hal_i2c.c ****   * @brief  Register the Slave Address Match I2C Callback
 963:Drivers/STM32F0xx_HAL_Driver/Src/stm32f0xx_hal_i2c.c ****   *         To be used instead of the weak HAL_I2C_AddrCallback() predefined callback
 964:Drivers/STM32F0xx_HAL_Driver/Src/stm32f0xx_hal_i2c.c ****   * @param  hi2c Pointer to a I2C_HandleTypeDef structure that contains
 965:Drivers/STM32F0xx_HAL_Driver/Src/stm32f0xx_hal_i2c.c ****   *                the configuration information for the specified I2C.
 966:Drivers/STM32F0xx_HAL_Driver/Src/stm32f0xx_hal_i2c.c ****   * @param  pCallback pointer to the Address Match Callback function
 967:Drivers/STM32F0xx_HAL_Driver/Src/stm32f0xx_hal_i2c.c ****   * @retval HAL status
 968:Drivers/STM32F0xx_HAL_Driver/Src/stm32f0xx_hal_i2c.c ****   */
 969:Drivers/STM32F0xx_HAL_Driver/Src/stm32f0xx_hal_i2c.c **** HAL_StatusTypeDef HAL_I2C_RegisterAddrCallback(I2C_HandleTypeDef *hi2c, pI2C_AddrCallbackTypeDef pC
 970:Drivers/STM32F0xx_HAL_Driver/Src/stm32f0xx_hal_i2c.c **** {
 971:Drivers/STM32F0xx_HAL_Driver/Src/stm32f0xx_hal_i2c.c ****   HAL_StatusTypeDef status = HAL_OK;
 972:Drivers/STM32F0xx_HAL_Driver/Src/stm32f0xx_hal_i2c.c **** 
 973:Drivers/STM32F0xx_HAL_Driver/Src/stm32f0xx_hal_i2c.c ****   if (pCallback == NULL)
 974:Drivers/STM32F0xx_HAL_Driver/Src/stm32f0xx_hal_i2c.c ****   {
 975:Drivers/STM32F0xx_HAL_Driver/Src/stm32f0xx_hal_i2c.c ****     /* Update the error code */
 976:Drivers/STM32F0xx_HAL_Driver/Src/stm32f0xx_hal_i2c.c ****     hi2c->ErrorCode |= HAL_I2C_ERROR_INVALID_CALLBACK;
 977:Drivers/STM32F0xx_HAL_Driver/Src/stm32f0xx_hal_i2c.c **** 
 978:Drivers/STM32F0xx_HAL_Driver/Src/stm32f0xx_hal_i2c.c ****     return HAL_ERROR;
 979:Drivers/STM32F0xx_HAL_Driver/Src/stm32f0xx_hal_i2c.c ****   }
 980:Drivers/STM32F0xx_HAL_Driver/Src/stm32f0xx_hal_i2c.c **** 
 981:Drivers/STM32F0xx_HAL_Driver/Src/stm32f0xx_hal_i2c.c ****   if (HAL_I2C_STATE_READY == hi2c->State)
 982:Drivers/STM32F0xx_HAL_Driver/Src/stm32f0xx_hal_i2c.c ****   {
 983:Drivers/STM32F0xx_HAL_Driver/Src/stm32f0xx_hal_i2c.c ****     hi2c->AddrCallback = pCallback;
 984:Drivers/STM32F0xx_HAL_Driver/Src/stm32f0xx_hal_i2c.c ****   }
 985:Drivers/STM32F0xx_HAL_Driver/Src/stm32f0xx_hal_i2c.c ****   else
 986:Drivers/STM32F0xx_HAL_Driver/Src/stm32f0xx_hal_i2c.c ****   {
 987:Drivers/STM32F0xx_HAL_Driver/Src/stm32f0xx_hal_i2c.c ****     /* Update the error code */
 988:Drivers/STM32F0xx_HAL_Driver/Src/stm32f0xx_hal_i2c.c ****     hi2c->ErrorCode |= HAL_I2C_ERROR_INVALID_CALLBACK;
 989:Drivers/STM32F0xx_HAL_Driver/Src/stm32f0xx_hal_i2c.c **** 
 990:Drivers/STM32F0xx_HAL_Driver/Src/stm32f0xx_hal_i2c.c ****     /* Return error status */
 991:Drivers/STM32F0xx_HAL_Driver/Src/stm32f0xx_hal_i2c.c ****     status =  HAL_ERROR;
 992:Drivers/STM32F0xx_HAL_Driver/Src/stm32f0xx_hal_i2c.c ****   }
 993:Drivers/STM32F0xx_HAL_Driver/Src/stm32f0xx_hal_i2c.c **** 
 994:Drivers/STM32F0xx_HAL_Driver/Src/stm32f0xx_hal_i2c.c ****   return status;
 995:Drivers/STM32F0xx_HAL_Driver/Src/stm32f0xx_hal_i2c.c **** }
 996:Drivers/STM32F0xx_HAL_Driver/Src/stm32f0xx_hal_i2c.c **** 
 997:Drivers/STM32F0xx_HAL_Driver/Src/stm32f0xx_hal_i2c.c **** /**
 998:Drivers/STM32F0xx_HAL_Driver/Src/stm32f0xx_hal_i2c.c ****   * @brief  UnRegister the Slave Address Match I2C Callback
 999:Drivers/STM32F0xx_HAL_Driver/Src/stm32f0xx_hal_i2c.c ****   *         Info Ready I2C Callback is redirected to the weak HAL_I2C_AddrCallback() predefined cal
1000:Drivers/STM32F0xx_HAL_Driver/Src/stm32f0xx_hal_i2c.c ****   * @param  hi2c Pointer to a I2C_HandleTypeDef structure that contains
1001:Drivers/STM32F0xx_HAL_Driver/Src/stm32f0xx_hal_i2c.c ****   *                the configuration information for the specified I2C.
1002:Drivers/STM32F0xx_HAL_Driver/Src/stm32f0xx_hal_i2c.c ****   * @retval HAL status
1003:Drivers/STM32F0xx_HAL_Driver/Src/stm32f0xx_hal_i2c.c ****   */
1004:Drivers/STM32F0xx_HAL_Driver/Src/stm32f0xx_hal_i2c.c **** HAL_StatusTypeDef HAL_I2C_UnRegisterAddrCallback(I2C_HandleTypeDef *hi2c)
1005:Drivers/STM32F0xx_HAL_Driver/Src/stm32f0xx_hal_i2c.c **** {
1006:Drivers/STM32F0xx_HAL_Driver/Src/stm32f0xx_hal_i2c.c ****   HAL_StatusTypeDef status = HAL_OK;
1007:Drivers/STM32F0xx_HAL_Driver/Src/stm32f0xx_hal_i2c.c **** 
1008:Drivers/STM32F0xx_HAL_Driver/Src/stm32f0xx_hal_i2c.c ****   if (HAL_I2C_STATE_READY == hi2c->State)
1009:Drivers/STM32F0xx_HAL_Driver/Src/stm32f0xx_hal_i2c.c ****   {
1010:Drivers/STM32F0xx_HAL_Driver/Src/stm32f0xx_hal_i2c.c ****     hi2c->AddrCallback = HAL_I2C_AddrCallback; /* Legacy weak AddrCallback  */
1011:Drivers/STM32F0xx_HAL_Driver/Src/stm32f0xx_hal_i2c.c ****   }
1012:Drivers/STM32F0xx_HAL_Driver/Src/stm32f0xx_hal_i2c.c ****   else
1013:Drivers/STM32F0xx_HAL_Driver/Src/stm32f0xx_hal_i2c.c ****   {
ARM GAS  C:\Users\mason\AppData\Local\Temp\ccsS7Myt.s 			page 26


1014:Drivers/STM32F0xx_HAL_Driver/Src/stm32f0xx_hal_i2c.c ****     /* Update the error code */
1015:Drivers/STM32F0xx_HAL_Driver/Src/stm32f0xx_hal_i2c.c ****     hi2c->ErrorCode |= HAL_I2C_ERROR_INVALID_CALLBACK;
1016:Drivers/STM32F0xx_HAL_Driver/Src/stm32f0xx_hal_i2c.c **** 
1017:Drivers/STM32F0xx_HAL_Driver/Src/stm32f0xx_hal_i2c.c ****     /* Return error status */
1018:Drivers/STM32F0xx_HAL_Driver/Src/stm32f0xx_hal_i2c.c ****     status =  HAL_ERROR;
1019:Drivers/STM32F0xx_HAL_Driver/Src/stm32f0xx_hal_i2c.c ****   }
1020:Drivers/STM32F0xx_HAL_Driver/Src/stm32f0xx_hal_i2c.c **** 
1021:Drivers/STM32F0xx_HAL_Driver/Src/stm32f0xx_hal_i2c.c ****   return status;
1022:Drivers/STM32F0xx_HAL_Driver/Src/stm32f0xx_hal_i2c.c **** }
1023:Drivers/STM32F0xx_HAL_Driver/Src/stm32f0xx_hal_i2c.c **** 
1024:Drivers/STM32F0xx_HAL_Driver/Src/stm32f0xx_hal_i2c.c **** #endif /* USE_HAL_I2C_REGISTER_CALLBACKS */
1025:Drivers/STM32F0xx_HAL_Driver/Src/stm32f0xx_hal_i2c.c **** 
1026:Drivers/STM32F0xx_HAL_Driver/Src/stm32f0xx_hal_i2c.c **** /**
1027:Drivers/STM32F0xx_HAL_Driver/Src/stm32f0xx_hal_i2c.c ****   * @}
1028:Drivers/STM32F0xx_HAL_Driver/Src/stm32f0xx_hal_i2c.c ****   */
1029:Drivers/STM32F0xx_HAL_Driver/Src/stm32f0xx_hal_i2c.c **** 
1030:Drivers/STM32F0xx_HAL_Driver/Src/stm32f0xx_hal_i2c.c **** /** @defgroup I2C_Exported_Functions_Group2 Input and Output operation functions
1031:Drivers/STM32F0xx_HAL_Driver/Src/stm32f0xx_hal_i2c.c ****   *  @brief   Data transfers functions
1032:Drivers/STM32F0xx_HAL_Driver/Src/stm32f0xx_hal_i2c.c ****   *
1033:Drivers/STM32F0xx_HAL_Driver/Src/stm32f0xx_hal_i2c.c **** @verbatim
1034:Drivers/STM32F0xx_HAL_Driver/Src/stm32f0xx_hal_i2c.c ****  ===============================================================================
1035:Drivers/STM32F0xx_HAL_Driver/Src/stm32f0xx_hal_i2c.c ****                       ##### IO operation functions #####
1036:Drivers/STM32F0xx_HAL_Driver/Src/stm32f0xx_hal_i2c.c ****  ===============================================================================
1037:Drivers/STM32F0xx_HAL_Driver/Src/stm32f0xx_hal_i2c.c ****     [..]
1038:Drivers/STM32F0xx_HAL_Driver/Src/stm32f0xx_hal_i2c.c ****     This subsection provides a set of functions allowing to manage the I2C data
1039:Drivers/STM32F0xx_HAL_Driver/Src/stm32f0xx_hal_i2c.c ****     transfers.
1040:Drivers/STM32F0xx_HAL_Driver/Src/stm32f0xx_hal_i2c.c **** 
1041:Drivers/STM32F0xx_HAL_Driver/Src/stm32f0xx_hal_i2c.c ****     (#) There are two modes of transfer:
1042:Drivers/STM32F0xx_HAL_Driver/Src/stm32f0xx_hal_i2c.c ****        (++) Blocking mode : The communication is performed in the polling mode.
1043:Drivers/STM32F0xx_HAL_Driver/Src/stm32f0xx_hal_i2c.c ****             The status of all data processing is returned by the same function
1044:Drivers/STM32F0xx_HAL_Driver/Src/stm32f0xx_hal_i2c.c ****             after finishing transfer.
1045:Drivers/STM32F0xx_HAL_Driver/Src/stm32f0xx_hal_i2c.c ****        (++) No-Blocking mode : The communication is performed using Interrupts
1046:Drivers/STM32F0xx_HAL_Driver/Src/stm32f0xx_hal_i2c.c ****             or DMA. These functions return the status of the transfer startup.
1047:Drivers/STM32F0xx_HAL_Driver/Src/stm32f0xx_hal_i2c.c ****             The end of the data processing will be indicated through the
1048:Drivers/STM32F0xx_HAL_Driver/Src/stm32f0xx_hal_i2c.c ****             dedicated I2C IRQ when using Interrupt mode or the DMA IRQ when
1049:Drivers/STM32F0xx_HAL_Driver/Src/stm32f0xx_hal_i2c.c ****             using DMA mode.
1050:Drivers/STM32F0xx_HAL_Driver/Src/stm32f0xx_hal_i2c.c **** 
1051:Drivers/STM32F0xx_HAL_Driver/Src/stm32f0xx_hal_i2c.c ****     (#) Blocking mode functions are :
1052:Drivers/STM32F0xx_HAL_Driver/Src/stm32f0xx_hal_i2c.c ****         (++) HAL_I2C_Master_Transmit()
1053:Drivers/STM32F0xx_HAL_Driver/Src/stm32f0xx_hal_i2c.c ****         (++) HAL_I2C_Master_Receive()
1054:Drivers/STM32F0xx_HAL_Driver/Src/stm32f0xx_hal_i2c.c ****         (++) HAL_I2C_Slave_Transmit()
1055:Drivers/STM32F0xx_HAL_Driver/Src/stm32f0xx_hal_i2c.c ****         (++) HAL_I2C_Slave_Receive()
1056:Drivers/STM32F0xx_HAL_Driver/Src/stm32f0xx_hal_i2c.c ****         (++) HAL_I2C_Mem_Write()
1057:Drivers/STM32F0xx_HAL_Driver/Src/stm32f0xx_hal_i2c.c ****         (++) HAL_I2C_Mem_Read()
1058:Drivers/STM32F0xx_HAL_Driver/Src/stm32f0xx_hal_i2c.c ****         (++) HAL_I2C_IsDeviceReady()
1059:Drivers/STM32F0xx_HAL_Driver/Src/stm32f0xx_hal_i2c.c **** 
1060:Drivers/STM32F0xx_HAL_Driver/Src/stm32f0xx_hal_i2c.c ****     (#) No-Blocking mode functions with Interrupt are :
1061:Drivers/STM32F0xx_HAL_Driver/Src/stm32f0xx_hal_i2c.c ****         (++) HAL_I2C_Master_Transmit_IT()
1062:Drivers/STM32F0xx_HAL_Driver/Src/stm32f0xx_hal_i2c.c ****         (++) HAL_I2C_Master_Receive_IT()
1063:Drivers/STM32F0xx_HAL_Driver/Src/stm32f0xx_hal_i2c.c ****         (++) HAL_I2C_Slave_Transmit_IT()
1064:Drivers/STM32F0xx_HAL_Driver/Src/stm32f0xx_hal_i2c.c ****         (++) HAL_I2C_Slave_Receive_IT()
1065:Drivers/STM32F0xx_HAL_Driver/Src/stm32f0xx_hal_i2c.c ****         (++) HAL_I2C_Mem_Write_IT()
1066:Drivers/STM32F0xx_HAL_Driver/Src/stm32f0xx_hal_i2c.c ****         (++) HAL_I2C_Mem_Read_IT()
1067:Drivers/STM32F0xx_HAL_Driver/Src/stm32f0xx_hal_i2c.c ****         (++) HAL_I2C_Master_Seq_Transmit_IT()
1068:Drivers/STM32F0xx_HAL_Driver/Src/stm32f0xx_hal_i2c.c ****         (++) HAL_I2C_Master_Seq_Receive_IT()
1069:Drivers/STM32F0xx_HAL_Driver/Src/stm32f0xx_hal_i2c.c ****         (++) HAL_I2C_Slave_Seq_Transmit_IT()
1070:Drivers/STM32F0xx_HAL_Driver/Src/stm32f0xx_hal_i2c.c ****         (++) HAL_I2C_Slave_Seq_Receive_IT()
ARM GAS  C:\Users\mason\AppData\Local\Temp\ccsS7Myt.s 			page 27


1071:Drivers/STM32F0xx_HAL_Driver/Src/stm32f0xx_hal_i2c.c ****         (++) HAL_I2C_EnableListen_IT()
1072:Drivers/STM32F0xx_HAL_Driver/Src/stm32f0xx_hal_i2c.c ****         (++) HAL_I2C_DisableListen_IT()
1073:Drivers/STM32F0xx_HAL_Driver/Src/stm32f0xx_hal_i2c.c ****         (++) HAL_I2C_Master_Abort_IT()
1074:Drivers/STM32F0xx_HAL_Driver/Src/stm32f0xx_hal_i2c.c **** 
1075:Drivers/STM32F0xx_HAL_Driver/Src/stm32f0xx_hal_i2c.c ****     (#) No-Blocking mode functions with DMA are :
1076:Drivers/STM32F0xx_HAL_Driver/Src/stm32f0xx_hal_i2c.c ****         (++) HAL_I2C_Master_Transmit_DMA()
1077:Drivers/STM32F0xx_HAL_Driver/Src/stm32f0xx_hal_i2c.c ****         (++) HAL_I2C_Master_Receive_DMA()
1078:Drivers/STM32F0xx_HAL_Driver/Src/stm32f0xx_hal_i2c.c ****         (++) HAL_I2C_Slave_Transmit_DMA()
1079:Drivers/STM32F0xx_HAL_Driver/Src/stm32f0xx_hal_i2c.c ****         (++) HAL_I2C_Slave_Receive_DMA()
1080:Drivers/STM32F0xx_HAL_Driver/Src/stm32f0xx_hal_i2c.c ****         (++) HAL_I2C_Mem_Write_DMA()
1081:Drivers/STM32F0xx_HAL_Driver/Src/stm32f0xx_hal_i2c.c ****         (++) HAL_I2C_Mem_Read_DMA()
1082:Drivers/STM32F0xx_HAL_Driver/Src/stm32f0xx_hal_i2c.c ****         (++) HAL_I2C_Master_Seq_Transmit_DMA()
1083:Drivers/STM32F0xx_HAL_Driver/Src/stm32f0xx_hal_i2c.c ****         (++) HAL_I2C_Master_Seq_Receive_DMA()
1084:Drivers/STM32F0xx_HAL_Driver/Src/stm32f0xx_hal_i2c.c ****         (++) HAL_I2C_Slave_Seq_Transmit_DMA()
1085:Drivers/STM32F0xx_HAL_Driver/Src/stm32f0xx_hal_i2c.c ****         (++) HAL_I2C_Slave_Seq_Receive_DMA()
1086:Drivers/STM32F0xx_HAL_Driver/Src/stm32f0xx_hal_i2c.c **** 
1087:Drivers/STM32F0xx_HAL_Driver/Src/stm32f0xx_hal_i2c.c ****     (#) A set of Transfer Complete Callbacks are provided in non Blocking mode:
1088:Drivers/STM32F0xx_HAL_Driver/Src/stm32f0xx_hal_i2c.c ****         (++) HAL_I2C_MasterTxCpltCallback()
1089:Drivers/STM32F0xx_HAL_Driver/Src/stm32f0xx_hal_i2c.c ****         (++) HAL_I2C_MasterRxCpltCallback()
1090:Drivers/STM32F0xx_HAL_Driver/Src/stm32f0xx_hal_i2c.c ****         (++) HAL_I2C_SlaveTxCpltCallback()
1091:Drivers/STM32F0xx_HAL_Driver/Src/stm32f0xx_hal_i2c.c ****         (++) HAL_I2C_SlaveRxCpltCallback()
1092:Drivers/STM32F0xx_HAL_Driver/Src/stm32f0xx_hal_i2c.c ****         (++) HAL_I2C_MemTxCpltCallback()
1093:Drivers/STM32F0xx_HAL_Driver/Src/stm32f0xx_hal_i2c.c ****         (++) HAL_I2C_MemRxCpltCallback()
1094:Drivers/STM32F0xx_HAL_Driver/Src/stm32f0xx_hal_i2c.c ****         (++) HAL_I2C_AddrCallback()
1095:Drivers/STM32F0xx_HAL_Driver/Src/stm32f0xx_hal_i2c.c ****         (++) HAL_I2C_ListenCpltCallback()
1096:Drivers/STM32F0xx_HAL_Driver/Src/stm32f0xx_hal_i2c.c ****         (++) HAL_I2C_ErrorCallback()
1097:Drivers/STM32F0xx_HAL_Driver/Src/stm32f0xx_hal_i2c.c ****         (++) HAL_I2C_AbortCpltCallback()
1098:Drivers/STM32F0xx_HAL_Driver/Src/stm32f0xx_hal_i2c.c **** 
1099:Drivers/STM32F0xx_HAL_Driver/Src/stm32f0xx_hal_i2c.c **** @endverbatim
1100:Drivers/STM32F0xx_HAL_Driver/Src/stm32f0xx_hal_i2c.c ****   * @{
1101:Drivers/STM32F0xx_HAL_Driver/Src/stm32f0xx_hal_i2c.c ****   */
1102:Drivers/STM32F0xx_HAL_Driver/Src/stm32f0xx_hal_i2c.c **** 
1103:Drivers/STM32F0xx_HAL_Driver/Src/stm32f0xx_hal_i2c.c **** /**
1104:Drivers/STM32F0xx_HAL_Driver/Src/stm32f0xx_hal_i2c.c ****   * @brief  Transmits in master mode an amount of data in blocking mode.
1105:Drivers/STM32F0xx_HAL_Driver/Src/stm32f0xx_hal_i2c.c ****   * @param  hi2c Pointer to a I2C_HandleTypeDef structure that contains
1106:Drivers/STM32F0xx_HAL_Driver/Src/stm32f0xx_hal_i2c.c ****   *                the configuration information for the specified I2C.
1107:Drivers/STM32F0xx_HAL_Driver/Src/stm32f0xx_hal_i2c.c ****   * @param  DevAddress Target device address: The device 7 bits address value
1108:Drivers/STM32F0xx_HAL_Driver/Src/stm32f0xx_hal_i2c.c ****   *         in datasheet must be shifted to the left before calling the interface
1109:Drivers/STM32F0xx_HAL_Driver/Src/stm32f0xx_hal_i2c.c ****   * @param  pData Pointer to data buffer
1110:Drivers/STM32F0xx_HAL_Driver/Src/stm32f0xx_hal_i2c.c ****   * @param  Size Amount of data to be sent
1111:Drivers/STM32F0xx_HAL_Driver/Src/stm32f0xx_hal_i2c.c ****   * @param  Timeout Timeout duration
1112:Drivers/STM32F0xx_HAL_Driver/Src/stm32f0xx_hal_i2c.c ****   * @retval HAL status
1113:Drivers/STM32F0xx_HAL_Driver/Src/stm32f0xx_hal_i2c.c ****   */
1114:Drivers/STM32F0xx_HAL_Driver/Src/stm32f0xx_hal_i2c.c **** HAL_StatusTypeDef HAL_I2C_Master_Transmit(I2C_HandleTypeDef *hi2c, uint16_t DevAddress, uint8_t *pD
1115:Drivers/STM32F0xx_HAL_Driver/Src/stm32f0xx_hal_i2c.c ****                                           uint16_t Size, uint32_t Timeout)
1116:Drivers/STM32F0xx_HAL_Driver/Src/stm32f0xx_hal_i2c.c **** {
 419              		.loc 1 1116 1
 420              		.cfi_startproc
 421              		@ args = 4, pretend = 0, frame = 24
 422              		@ frame_needed = 1, uses_anonymous_args = 0
 423 0000 90B5     		push	{r4, r7, lr}
 424              	.LCFI12:
 425              		.cfi_def_cfa_offset 12
 426              		.cfi_offset 4, -12
 427              		.cfi_offset 7, -8
 428              		.cfi_offset 14, -4
 429 0002 89B0     		sub	sp, sp, #36
ARM GAS  C:\Users\mason\AppData\Local\Temp\ccsS7Myt.s 			page 28


 430              	.LCFI13:
 431              		.cfi_def_cfa_offset 48
 432 0004 02AF     		add	r7, sp, #8
 433              	.LCFI14:
 434              		.cfi_def_cfa 7, 40
 435 0006 F860     		str	r0, [r7, #12]
 436 0008 0800     		movs	r0, r1
 437 000a 7A60     		str	r2, [r7, #4]
 438 000c 1900     		movs	r1, r3
 439 000e 0A23     		movs	r3, #10
 440 0010 FB18     		adds	r3, r7, r3
 441 0012 021C     		adds	r2, r0, #0
 442 0014 1A80     		strh	r2, [r3]
 443 0016 0823     		movs	r3, #8
 444 0018 FB18     		adds	r3, r7, r3
 445 001a 0A1C     		adds	r2, r1, #0
 446 001c 1A80     		strh	r2, [r3]
1117:Drivers/STM32F0xx_HAL_Driver/Src/stm32f0xx_hal_i2c.c ****   uint32_t tickstart;
1118:Drivers/STM32F0xx_HAL_Driver/Src/stm32f0xx_hal_i2c.c **** 
1119:Drivers/STM32F0xx_HAL_Driver/Src/stm32f0xx_hal_i2c.c ****   if (hi2c->State == HAL_I2C_STATE_READY)
 447              		.loc 1 1119 11
 448 001e FB68     		ldr	r3, [r7, #12]
 449 0020 4122     		movs	r2, #65
 450 0022 9B5C     		ldrb	r3, [r3, r2]
 451 0024 DBB2     		uxtb	r3, r3
 452              		.loc 1 1119 6
 453 0026 202B     		cmp	r3, #32
 454 0028 00D0     		beq	.LCB342
 455 002a E7E0     		b	.L16	@long jump
 456              	.LCB342:
1120:Drivers/STM32F0xx_HAL_Driver/Src/stm32f0xx_hal_i2c.c ****   {
1121:Drivers/STM32F0xx_HAL_Driver/Src/stm32f0xx_hal_i2c.c ****     /* Process Locked */
1122:Drivers/STM32F0xx_HAL_Driver/Src/stm32f0xx_hal_i2c.c ****     __HAL_LOCK(hi2c);
 457              		.loc 1 1122 5
 458 002c FB68     		ldr	r3, [r7, #12]
 459 002e 4022     		movs	r2, #64
 460 0030 9B5C     		ldrb	r3, [r3, r2]
 461 0032 012B     		cmp	r3, #1
 462 0034 01D1     		bne	.L17
 463              		.loc 1 1122 5 is_stmt 0 discriminator 1
 464 0036 0223     		movs	r3, #2
 465 0038 E1E0     		b	.L18
 466              	.L17:
 467              		.loc 1 1122 5 discriminator 2
 468 003a FB68     		ldr	r3, [r7, #12]
 469 003c 4022     		movs	r2, #64
 470 003e 0121     		movs	r1, #1
 471 0040 9954     		strb	r1, [r3, r2]
1123:Drivers/STM32F0xx_HAL_Driver/Src/stm32f0xx_hal_i2c.c **** 
1124:Drivers/STM32F0xx_HAL_Driver/Src/stm32f0xx_hal_i2c.c ****     /* Init tickstart for timeout management*/
1125:Drivers/STM32F0xx_HAL_Driver/Src/stm32f0xx_hal_i2c.c ****     tickstart = HAL_GetTick();
 472              		.loc 1 1125 17 is_stmt 1 discriminator 2
 473 0042 FFF7FEFF 		bl	HAL_GetTick
 474 0046 0300     		movs	r3, r0
 475 0048 7B61     		str	r3, [r7, #20]
1126:Drivers/STM32F0xx_HAL_Driver/Src/stm32f0xx_hal_i2c.c **** 
1127:Drivers/STM32F0xx_HAL_Driver/Src/stm32f0xx_hal_i2c.c ****     if (I2C_WaitOnFlagUntilTimeout(hi2c, I2C_FLAG_BUSY, SET, I2C_TIMEOUT_BUSY, tickstart) != HAL_OK
ARM GAS  C:\Users\mason\AppData\Local\Temp\ccsS7Myt.s 			page 29


 476              		.loc 1 1127 9 discriminator 2
 477 004a 8023     		movs	r3, #128
 478 004c 1902     		lsls	r1, r3, #8
 479 004e F868     		ldr	r0, [r7, #12]
 480 0050 7B69     		ldr	r3, [r7, #20]
 481 0052 0093     		str	r3, [sp]
 482 0054 1923     		movs	r3, #25
 483 0056 0122     		movs	r2, #1
 484 0058 FFF7FEFF 		bl	I2C_WaitOnFlagUntilTimeout
 485 005c 031E     		subs	r3, r0, #0
 486              		.loc 1 1127 8 discriminator 2
 487 005e 01D0     		beq	.L19
1128:Drivers/STM32F0xx_HAL_Driver/Src/stm32f0xx_hal_i2c.c ****     {
1129:Drivers/STM32F0xx_HAL_Driver/Src/stm32f0xx_hal_i2c.c ****       return HAL_ERROR;
 488              		.loc 1 1129 14
 489 0060 0123     		movs	r3, #1
 490 0062 CCE0     		b	.L18
 491              	.L19:
1130:Drivers/STM32F0xx_HAL_Driver/Src/stm32f0xx_hal_i2c.c ****     }
1131:Drivers/STM32F0xx_HAL_Driver/Src/stm32f0xx_hal_i2c.c **** 
1132:Drivers/STM32F0xx_HAL_Driver/Src/stm32f0xx_hal_i2c.c ****     hi2c->State     = HAL_I2C_STATE_BUSY_TX;
 492              		.loc 1 1132 21
 493 0064 FB68     		ldr	r3, [r7, #12]
 494 0066 4122     		movs	r2, #65
 495 0068 2121     		movs	r1, #33
 496 006a 9954     		strb	r1, [r3, r2]
1133:Drivers/STM32F0xx_HAL_Driver/Src/stm32f0xx_hal_i2c.c ****     hi2c->Mode      = HAL_I2C_MODE_MASTER;
 497              		.loc 1 1133 21
 498 006c FB68     		ldr	r3, [r7, #12]
 499 006e 4222     		movs	r2, #66
 500 0070 1021     		movs	r1, #16
 501 0072 9954     		strb	r1, [r3, r2]
1134:Drivers/STM32F0xx_HAL_Driver/Src/stm32f0xx_hal_i2c.c ****     hi2c->ErrorCode = HAL_I2C_ERROR_NONE;
 502              		.loc 1 1134 21
 503 0074 FB68     		ldr	r3, [r7, #12]
 504 0076 0022     		movs	r2, #0
 505 0078 5A64     		str	r2, [r3, #68]
1135:Drivers/STM32F0xx_HAL_Driver/Src/stm32f0xx_hal_i2c.c **** 
1136:Drivers/STM32F0xx_HAL_Driver/Src/stm32f0xx_hal_i2c.c ****     /* Prepare transfer parameters */
1137:Drivers/STM32F0xx_HAL_Driver/Src/stm32f0xx_hal_i2c.c ****     hi2c->pBuffPtr  = pData;
 506              		.loc 1 1137 21
 507 007a FB68     		ldr	r3, [r7, #12]
 508 007c 7A68     		ldr	r2, [r7, #4]
 509 007e 5A62     		str	r2, [r3, #36]
1138:Drivers/STM32F0xx_HAL_Driver/Src/stm32f0xx_hal_i2c.c ****     hi2c->XferCount = Size;
 510              		.loc 1 1138 21
 511 0080 FB68     		ldr	r3, [r7, #12]
 512 0082 0822     		movs	r2, #8
 513 0084 BA18     		adds	r2, r7, r2
 514 0086 1288     		ldrh	r2, [r2]
 515 0088 5A85     		strh	r2, [r3, #42]
1139:Drivers/STM32F0xx_HAL_Driver/Src/stm32f0xx_hal_i2c.c ****     hi2c->XferISR   = NULL;
 516              		.loc 1 1139 21
 517 008a FB68     		ldr	r3, [r7, #12]
 518 008c 0022     		movs	r2, #0
 519 008e 5A63     		str	r2, [r3, #52]
1140:Drivers/STM32F0xx_HAL_Driver/Src/stm32f0xx_hal_i2c.c **** 
ARM GAS  C:\Users\mason\AppData\Local\Temp\ccsS7Myt.s 			page 30


1141:Drivers/STM32F0xx_HAL_Driver/Src/stm32f0xx_hal_i2c.c ****     /* Send Slave Address */
1142:Drivers/STM32F0xx_HAL_Driver/Src/stm32f0xx_hal_i2c.c ****     /* Set NBYTES to write and reload if hi2c->XferCount > MAX_NBYTE_SIZE and generate RESTART */
1143:Drivers/STM32F0xx_HAL_Driver/Src/stm32f0xx_hal_i2c.c ****     if (hi2c->XferCount > MAX_NBYTE_SIZE)
 520              		.loc 1 1143 13
 521 0090 FB68     		ldr	r3, [r7, #12]
 522 0092 5B8D     		ldrh	r3, [r3, #42]
 523 0094 9BB2     		uxth	r3, r3
 524              		.loc 1 1143 8
 525 0096 FF2B     		cmp	r3, #255
 526 0098 11D9     		bls	.L20
1144:Drivers/STM32F0xx_HAL_Driver/Src/stm32f0xx_hal_i2c.c ****     {
1145:Drivers/STM32F0xx_HAL_Driver/Src/stm32f0xx_hal_i2c.c ****       hi2c->XferSize = MAX_NBYTE_SIZE;
 527              		.loc 1 1145 22
 528 009a FB68     		ldr	r3, [r7, #12]
 529 009c FF22     		movs	r2, #255
 530 009e 1A85     		strh	r2, [r3, #40]
1146:Drivers/STM32F0xx_HAL_Driver/Src/stm32f0xx_hal_i2c.c ****       I2C_TransferConfig(hi2c, DevAddress, (uint8_t)hi2c->XferSize, I2C_RELOAD_MODE,
 531              		.loc 1 1146 57
 532 00a0 FB68     		ldr	r3, [r7, #12]
 533 00a2 1B8D     		ldrh	r3, [r3, #40]
 534              		.loc 1 1146 7
 535 00a4 DAB2     		uxtb	r2, r3
 536 00a6 8023     		movs	r3, #128
 537 00a8 5C04     		lsls	r4, r3, #17
 538 00aa 0A23     		movs	r3, #10
 539 00ac FB18     		adds	r3, r7, r3
 540 00ae 1988     		ldrh	r1, [r3]
 541 00b0 F868     		ldr	r0, [r7, #12]
 542 00b2 554B     		ldr	r3, .L28
 543 00b4 0093     		str	r3, [sp]
 544 00b6 2300     		movs	r3, r4
 545 00b8 FFF7FEFF 		bl	I2C_TransferConfig
 546 00bc 75E0     		b	.L22
 547              	.L20:
1147:Drivers/STM32F0xx_HAL_Driver/Src/stm32f0xx_hal_i2c.c ****                          I2C_GENERATE_START_WRITE);
1148:Drivers/STM32F0xx_HAL_Driver/Src/stm32f0xx_hal_i2c.c ****     }
1149:Drivers/STM32F0xx_HAL_Driver/Src/stm32f0xx_hal_i2c.c ****     else
1150:Drivers/STM32F0xx_HAL_Driver/Src/stm32f0xx_hal_i2c.c ****     {
1151:Drivers/STM32F0xx_HAL_Driver/Src/stm32f0xx_hal_i2c.c ****       hi2c->XferSize = hi2c->XferCount;
 548              		.loc 1 1151 28
 549 00be FB68     		ldr	r3, [r7, #12]
 550 00c0 5B8D     		ldrh	r3, [r3, #42]
 551 00c2 9AB2     		uxth	r2, r3
 552              		.loc 1 1151 22
 553 00c4 FB68     		ldr	r3, [r7, #12]
 554 00c6 1A85     		strh	r2, [r3, #40]
1152:Drivers/STM32F0xx_HAL_Driver/Src/stm32f0xx_hal_i2c.c ****       I2C_TransferConfig(hi2c, DevAddress, (uint8_t)hi2c->XferSize, I2C_AUTOEND_MODE,
 555              		.loc 1 1152 57
 556 00c8 FB68     		ldr	r3, [r7, #12]
 557 00ca 1B8D     		ldrh	r3, [r3, #40]
 558              		.loc 1 1152 7
 559 00cc DAB2     		uxtb	r2, r3
 560 00ce 8023     		movs	r3, #128
 561 00d0 9C04     		lsls	r4, r3, #18
 562 00d2 0A23     		movs	r3, #10
 563 00d4 FB18     		adds	r3, r7, r3
 564 00d6 1988     		ldrh	r1, [r3]
ARM GAS  C:\Users\mason\AppData\Local\Temp\ccsS7Myt.s 			page 31


 565 00d8 F868     		ldr	r0, [r7, #12]
 566 00da 4B4B     		ldr	r3, .L28
 567 00dc 0093     		str	r3, [sp]
 568 00de 2300     		movs	r3, r4
 569 00e0 FFF7FEFF 		bl	I2C_TransferConfig
1153:Drivers/STM32F0xx_HAL_Driver/Src/stm32f0xx_hal_i2c.c ****                          I2C_GENERATE_START_WRITE);
1154:Drivers/STM32F0xx_HAL_Driver/Src/stm32f0xx_hal_i2c.c ****     }
1155:Drivers/STM32F0xx_HAL_Driver/Src/stm32f0xx_hal_i2c.c **** 
1156:Drivers/STM32F0xx_HAL_Driver/Src/stm32f0xx_hal_i2c.c ****     while (hi2c->XferCount > 0U)
 570              		.loc 1 1156 11
 571 00e4 61E0     		b	.L22
 572              	.L26:
1157:Drivers/STM32F0xx_HAL_Driver/Src/stm32f0xx_hal_i2c.c ****     {
1158:Drivers/STM32F0xx_HAL_Driver/Src/stm32f0xx_hal_i2c.c ****       /* Wait until TXIS flag is set */
1159:Drivers/STM32F0xx_HAL_Driver/Src/stm32f0xx_hal_i2c.c ****       if (I2C_WaitOnTXISFlagUntilTimeout(hi2c, Timeout, tickstart) != HAL_OK)
 573              		.loc 1 1159 11
 574 00e6 7A69     		ldr	r2, [r7, #20]
 575 00e8 B96A     		ldr	r1, [r7, #40]
 576 00ea FB68     		ldr	r3, [r7, #12]
 577 00ec 1800     		movs	r0, r3
 578 00ee FFF7FEFF 		bl	I2C_WaitOnTXISFlagUntilTimeout
 579 00f2 031E     		subs	r3, r0, #0
 580              		.loc 1 1159 10
 581 00f4 01D0     		beq	.L23
1160:Drivers/STM32F0xx_HAL_Driver/Src/stm32f0xx_hal_i2c.c ****       {
1161:Drivers/STM32F0xx_HAL_Driver/Src/stm32f0xx_hal_i2c.c ****         return HAL_ERROR;
 582              		.loc 1 1161 16
 583 00f6 0123     		movs	r3, #1
 584 00f8 81E0     		b	.L18
 585              	.L23:
1162:Drivers/STM32F0xx_HAL_Driver/Src/stm32f0xx_hal_i2c.c ****       }
1163:Drivers/STM32F0xx_HAL_Driver/Src/stm32f0xx_hal_i2c.c ****       /* Write data to TXDR */
1164:Drivers/STM32F0xx_HAL_Driver/Src/stm32f0xx_hal_i2c.c ****       hi2c->Instance->TXDR = *hi2c->pBuffPtr;
 586              		.loc 1 1164 35
 587 00fa FB68     		ldr	r3, [r7, #12]
 588 00fc 5B6A     		ldr	r3, [r3, #36]
 589              		.loc 1 1164 30
 590 00fe 1A78     		ldrb	r2, [r3]
 591              		.loc 1 1164 11
 592 0100 FB68     		ldr	r3, [r7, #12]
 593 0102 1B68     		ldr	r3, [r3]
 594              		.loc 1 1164 28
 595 0104 9A62     		str	r2, [r3, #40]
1165:Drivers/STM32F0xx_HAL_Driver/Src/stm32f0xx_hal_i2c.c **** 
1166:Drivers/STM32F0xx_HAL_Driver/Src/stm32f0xx_hal_i2c.c ****       /* Increment Buffer pointer */
1167:Drivers/STM32F0xx_HAL_Driver/Src/stm32f0xx_hal_i2c.c ****       hi2c->pBuffPtr++;
 596              		.loc 1 1167 11
 597 0106 FB68     		ldr	r3, [r7, #12]
 598 0108 5B6A     		ldr	r3, [r3, #36]
 599              		.loc 1 1167 21
 600 010a 5A1C     		adds	r2, r3, #1
 601 010c FB68     		ldr	r3, [r7, #12]
 602 010e 5A62     		str	r2, [r3, #36]
1168:Drivers/STM32F0xx_HAL_Driver/Src/stm32f0xx_hal_i2c.c **** 
1169:Drivers/STM32F0xx_HAL_Driver/Src/stm32f0xx_hal_i2c.c ****       hi2c->XferCount--;
 603              		.loc 1 1169 11
 604 0110 FB68     		ldr	r3, [r7, #12]
ARM GAS  C:\Users\mason\AppData\Local\Temp\ccsS7Myt.s 			page 32


 605 0112 5B8D     		ldrh	r3, [r3, #42]
 606 0114 9BB2     		uxth	r3, r3
 607              		.loc 1 1169 22
 608 0116 013B     		subs	r3, r3, #1
 609 0118 9AB2     		uxth	r2, r3
 610 011a FB68     		ldr	r3, [r7, #12]
 611 011c 5A85     		strh	r2, [r3, #42]
1170:Drivers/STM32F0xx_HAL_Driver/Src/stm32f0xx_hal_i2c.c ****       hi2c->XferSize--;
 612              		.loc 1 1170 11
 613 011e FB68     		ldr	r3, [r7, #12]
 614 0120 1B8D     		ldrh	r3, [r3, #40]
 615              		.loc 1 1170 21
 616 0122 013B     		subs	r3, r3, #1
 617 0124 9AB2     		uxth	r2, r3
 618 0126 FB68     		ldr	r3, [r7, #12]
 619 0128 1A85     		strh	r2, [r3, #40]
1171:Drivers/STM32F0xx_HAL_Driver/Src/stm32f0xx_hal_i2c.c **** 
1172:Drivers/STM32F0xx_HAL_Driver/Src/stm32f0xx_hal_i2c.c ****       if ((hi2c->XferCount != 0U) && (hi2c->XferSize == 0U))
 620              		.loc 1 1172 16
 621 012a FB68     		ldr	r3, [r7, #12]
 622 012c 5B8D     		ldrh	r3, [r3, #42]
 623 012e 9BB2     		uxth	r3, r3
 624              		.loc 1 1172 10
 625 0130 002B     		cmp	r3, #0
 626 0132 3AD0     		beq	.L22
 627              		.loc 1 1172 43 discriminator 1
 628 0134 FB68     		ldr	r3, [r7, #12]
 629 0136 1B8D     		ldrh	r3, [r3, #40]
 630              		.loc 1 1172 35 discriminator 1
 631 0138 002B     		cmp	r3, #0
 632 013a 36D1     		bne	.L22
1173:Drivers/STM32F0xx_HAL_Driver/Src/stm32f0xx_hal_i2c.c ****       {
1174:Drivers/STM32F0xx_HAL_Driver/Src/stm32f0xx_hal_i2c.c ****         /* Wait until TCR flag is set */
1175:Drivers/STM32F0xx_HAL_Driver/Src/stm32f0xx_hal_i2c.c ****         if (I2C_WaitOnFlagUntilTimeout(hi2c, I2C_FLAG_TCR, RESET, Timeout, tickstart) != HAL_OK)
 633              		.loc 1 1175 13
 634 013c BA6A     		ldr	r2, [r7, #40]
 635 013e F868     		ldr	r0, [r7, #12]
 636 0140 7B69     		ldr	r3, [r7, #20]
 637 0142 0093     		str	r3, [sp]
 638 0144 1300     		movs	r3, r2
 639 0146 0022     		movs	r2, #0
 640 0148 8021     		movs	r1, #128
 641 014a FFF7FEFF 		bl	I2C_WaitOnFlagUntilTimeout
 642 014e 031E     		subs	r3, r0, #0
 643              		.loc 1 1175 12
 644 0150 01D0     		beq	.L24
1176:Drivers/STM32F0xx_HAL_Driver/Src/stm32f0xx_hal_i2c.c ****         {
1177:Drivers/STM32F0xx_HAL_Driver/Src/stm32f0xx_hal_i2c.c ****           return HAL_ERROR;
 645              		.loc 1 1177 18
 646 0152 0123     		movs	r3, #1
 647 0154 53E0     		b	.L18
 648              	.L24:
1178:Drivers/STM32F0xx_HAL_Driver/Src/stm32f0xx_hal_i2c.c ****         }
1179:Drivers/STM32F0xx_HAL_Driver/Src/stm32f0xx_hal_i2c.c **** 
1180:Drivers/STM32F0xx_HAL_Driver/Src/stm32f0xx_hal_i2c.c ****         if (hi2c->XferCount > MAX_NBYTE_SIZE)
 649              		.loc 1 1180 17
 650 0156 FB68     		ldr	r3, [r7, #12]
ARM GAS  C:\Users\mason\AppData\Local\Temp\ccsS7Myt.s 			page 33


 651 0158 5B8D     		ldrh	r3, [r3, #42]
 652 015a 9BB2     		uxth	r3, r3
 653              		.loc 1 1180 12
 654 015c FF2B     		cmp	r3, #255
 655 015e 11D9     		bls	.L25
1181:Drivers/STM32F0xx_HAL_Driver/Src/stm32f0xx_hal_i2c.c ****         {
1182:Drivers/STM32F0xx_HAL_Driver/Src/stm32f0xx_hal_i2c.c ****           hi2c->XferSize = MAX_NBYTE_SIZE;
 656              		.loc 1 1182 26
 657 0160 FB68     		ldr	r3, [r7, #12]
 658 0162 FF22     		movs	r2, #255
 659 0164 1A85     		strh	r2, [r3, #40]
1183:Drivers/STM32F0xx_HAL_Driver/Src/stm32f0xx_hal_i2c.c ****           I2C_TransferConfig(hi2c, DevAddress, (uint8_t)hi2c->XferSize, I2C_RELOAD_MODE,
 660              		.loc 1 1183 61
 661 0166 FB68     		ldr	r3, [r7, #12]
 662 0168 1B8D     		ldrh	r3, [r3, #40]
 663              		.loc 1 1183 11
 664 016a DAB2     		uxtb	r2, r3
 665 016c 8023     		movs	r3, #128
 666 016e 5C04     		lsls	r4, r3, #17
 667 0170 0A23     		movs	r3, #10
 668 0172 FB18     		adds	r3, r7, r3
 669 0174 1988     		ldrh	r1, [r3]
 670 0176 F868     		ldr	r0, [r7, #12]
 671 0178 0023     		movs	r3, #0
 672 017a 0093     		str	r3, [sp]
 673 017c 2300     		movs	r3, r4
 674 017e FFF7FEFF 		bl	I2C_TransferConfig
 675 0182 12E0     		b	.L22
 676              	.L25:
1184:Drivers/STM32F0xx_HAL_Driver/Src/stm32f0xx_hal_i2c.c ****                              I2C_NO_STARTSTOP);
1185:Drivers/STM32F0xx_HAL_Driver/Src/stm32f0xx_hal_i2c.c ****         }
1186:Drivers/STM32F0xx_HAL_Driver/Src/stm32f0xx_hal_i2c.c ****         else
1187:Drivers/STM32F0xx_HAL_Driver/Src/stm32f0xx_hal_i2c.c ****         {
1188:Drivers/STM32F0xx_HAL_Driver/Src/stm32f0xx_hal_i2c.c ****           hi2c->XferSize = hi2c->XferCount;
 677              		.loc 1 1188 32
 678 0184 FB68     		ldr	r3, [r7, #12]
 679 0186 5B8D     		ldrh	r3, [r3, #42]
 680 0188 9AB2     		uxth	r2, r3
 681              		.loc 1 1188 26
 682 018a FB68     		ldr	r3, [r7, #12]
 683 018c 1A85     		strh	r2, [r3, #40]
1189:Drivers/STM32F0xx_HAL_Driver/Src/stm32f0xx_hal_i2c.c ****           I2C_TransferConfig(hi2c, DevAddress, (uint8_t)hi2c->XferSize, I2C_AUTOEND_MODE,
 684              		.loc 1 1189 61
 685 018e FB68     		ldr	r3, [r7, #12]
 686 0190 1B8D     		ldrh	r3, [r3, #40]
 687              		.loc 1 1189 11
 688 0192 DAB2     		uxtb	r2, r3
 689 0194 8023     		movs	r3, #128
 690 0196 9C04     		lsls	r4, r3, #18
 691 0198 0A23     		movs	r3, #10
 692 019a FB18     		adds	r3, r7, r3
 693 019c 1988     		ldrh	r1, [r3]
 694 019e F868     		ldr	r0, [r7, #12]
 695 01a0 0023     		movs	r3, #0
 696 01a2 0093     		str	r3, [sp]
 697 01a4 2300     		movs	r3, r4
 698 01a6 FFF7FEFF 		bl	I2C_TransferConfig
ARM GAS  C:\Users\mason\AppData\Local\Temp\ccsS7Myt.s 			page 34


 699              	.L22:
1156:Drivers/STM32F0xx_HAL_Driver/Src/stm32f0xx_hal_i2c.c ****     {
 700              		.loc 1 1156 16
 701 01aa FB68     		ldr	r3, [r7, #12]
 702 01ac 5B8D     		ldrh	r3, [r3, #42]
 703 01ae 9BB2     		uxth	r3, r3
1156:Drivers/STM32F0xx_HAL_Driver/Src/stm32f0xx_hal_i2c.c ****     {
 704              		.loc 1 1156 11
 705 01b0 002B     		cmp	r3, #0
 706 01b2 98D1     		bne	.L26
1190:Drivers/STM32F0xx_HAL_Driver/Src/stm32f0xx_hal_i2c.c ****                              I2C_NO_STARTSTOP);
1191:Drivers/STM32F0xx_HAL_Driver/Src/stm32f0xx_hal_i2c.c ****         }
1192:Drivers/STM32F0xx_HAL_Driver/Src/stm32f0xx_hal_i2c.c ****       }
1193:Drivers/STM32F0xx_HAL_Driver/Src/stm32f0xx_hal_i2c.c ****     }
1194:Drivers/STM32F0xx_HAL_Driver/Src/stm32f0xx_hal_i2c.c **** 
1195:Drivers/STM32F0xx_HAL_Driver/Src/stm32f0xx_hal_i2c.c ****     /* No need to Check TC flag, with AUTOEND mode the stop is automatically generated */
1196:Drivers/STM32F0xx_HAL_Driver/Src/stm32f0xx_hal_i2c.c ****     /* Wait until STOPF flag is set */
1197:Drivers/STM32F0xx_HAL_Driver/Src/stm32f0xx_hal_i2c.c ****     if (I2C_WaitOnSTOPFlagUntilTimeout(hi2c, Timeout, tickstart) != HAL_OK)
 707              		.loc 1 1197 9
 708 01b4 7A69     		ldr	r2, [r7, #20]
 709 01b6 B96A     		ldr	r1, [r7, #40]
 710 01b8 FB68     		ldr	r3, [r7, #12]
 711 01ba 1800     		movs	r0, r3
 712 01bc FFF7FEFF 		bl	I2C_WaitOnSTOPFlagUntilTimeout
 713 01c0 031E     		subs	r3, r0, #0
 714              		.loc 1 1197 8
 715 01c2 01D0     		beq	.L27
1198:Drivers/STM32F0xx_HAL_Driver/Src/stm32f0xx_hal_i2c.c ****     {
1199:Drivers/STM32F0xx_HAL_Driver/Src/stm32f0xx_hal_i2c.c ****       return HAL_ERROR;
 716              		.loc 1 1199 14
 717 01c4 0123     		movs	r3, #1
 718 01c6 1AE0     		b	.L18
 719              	.L27:
1200:Drivers/STM32F0xx_HAL_Driver/Src/stm32f0xx_hal_i2c.c ****     }
1201:Drivers/STM32F0xx_HAL_Driver/Src/stm32f0xx_hal_i2c.c **** 
1202:Drivers/STM32F0xx_HAL_Driver/Src/stm32f0xx_hal_i2c.c ****     /* Clear STOP Flag */
1203:Drivers/STM32F0xx_HAL_Driver/Src/stm32f0xx_hal_i2c.c ****     __HAL_I2C_CLEAR_FLAG(hi2c, I2C_FLAG_STOPF);
 720              		.loc 1 1203 5
 721 01c8 FB68     		ldr	r3, [r7, #12]
 722 01ca 1B68     		ldr	r3, [r3]
 723 01cc 2022     		movs	r2, #32
 724 01ce DA61     		str	r2, [r3, #28]
1204:Drivers/STM32F0xx_HAL_Driver/Src/stm32f0xx_hal_i2c.c **** 
1205:Drivers/STM32F0xx_HAL_Driver/Src/stm32f0xx_hal_i2c.c ****     /* Clear Configuration Register 2 */
1206:Drivers/STM32F0xx_HAL_Driver/Src/stm32f0xx_hal_i2c.c ****     I2C_RESET_CR2(hi2c);
 725              		.loc 1 1206 5
 726 01d0 FB68     		ldr	r3, [r7, #12]
 727 01d2 1B68     		ldr	r3, [r3]
 728 01d4 5A68     		ldr	r2, [r3, #4]
 729 01d6 FB68     		ldr	r3, [r7, #12]
 730 01d8 1B68     		ldr	r3, [r3]
 731 01da 0C49     		ldr	r1, .L28+4
 732 01dc 0A40     		ands	r2, r1
 733 01de 5A60     		str	r2, [r3, #4]
1207:Drivers/STM32F0xx_HAL_Driver/Src/stm32f0xx_hal_i2c.c **** 
1208:Drivers/STM32F0xx_HAL_Driver/Src/stm32f0xx_hal_i2c.c ****     hi2c->State = HAL_I2C_STATE_READY;
 734              		.loc 1 1208 17
ARM GAS  C:\Users\mason\AppData\Local\Temp\ccsS7Myt.s 			page 35


 735 01e0 FB68     		ldr	r3, [r7, #12]
 736 01e2 4122     		movs	r2, #65
 737 01e4 2021     		movs	r1, #32
 738 01e6 9954     		strb	r1, [r3, r2]
1209:Drivers/STM32F0xx_HAL_Driver/Src/stm32f0xx_hal_i2c.c ****     hi2c->Mode  = HAL_I2C_MODE_NONE;
 739              		.loc 1 1209 17
 740 01e8 FB68     		ldr	r3, [r7, #12]
 741 01ea 4222     		movs	r2, #66
 742 01ec 0021     		movs	r1, #0
 743 01ee 9954     		strb	r1, [r3, r2]
1210:Drivers/STM32F0xx_HAL_Driver/Src/stm32f0xx_hal_i2c.c **** 
1211:Drivers/STM32F0xx_HAL_Driver/Src/stm32f0xx_hal_i2c.c ****     /* Process Unlocked */
1212:Drivers/STM32F0xx_HAL_Driver/Src/stm32f0xx_hal_i2c.c ****     __HAL_UNLOCK(hi2c);
 744              		.loc 1 1212 5
 745 01f0 FB68     		ldr	r3, [r7, #12]
 746 01f2 4022     		movs	r2, #64
 747 01f4 0021     		movs	r1, #0
 748 01f6 9954     		strb	r1, [r3, r2]
1213:Drivers/STM32F0xx_HAL_Driver/Src/stm32f0xx_hal_i2c.c **** 
1214:Drivers/STM32F0xx_HAL_Driver/Src/stm32f0xx_hal_i2c.c ****     return HAL_OK;
 749              		.loc 1 1214 12
 750 01f8 0023     		movs	r3, #0
 751 01fa 00E0     		b	.L18
 752              	.L16:
1215:Drivers/STM32F0xx_HAL_Driver/Src/stm32f0xx_hal_i2c.c ****   }
1216:Drivers/STM32F0xx_HAL_Driver/Src/stm32f0xx_hal_i2c.c ****   else
1217:Drivers/STM32F0xx_HAL_Driver/Src/stm32f0xx_hal_i2c.c ****   {
1218:Drivers/STM32F0xx_HAL_Driver/Src/stm32f0xx_hal_i2c.c ****     return HAL_BUSY;
 753              		.loc 1 1218 12
 754 01fc 0223     		movs	r3, #2
 755              	.L18:
1219:Drivers/STM32F0xx_HAL_Driver/Src/stm32f0xx_hal_i2c.c ****   }
1220:Drivers/STM32F0xx_HAL_Driver/Src/stm32f0xx_hal_i2c.c **** }
 756              		.loc 1 1220 1
 757 01fe 1800     		movs	r0, r3
 758 0200 BD46     		mov	sp, r7
 759 0202 07B0     		add	sp, sp, #28
 760              		@ sp needed
 761 0204 90BD     		pop	{r4, r7, pc}
 762              	.L29:
 763 0206 C046     		.align	2
 764              	.L28:
 765 0208 00200080 		.word	-2147475456
 766 020c 00E800FE 		.word	-33495040
 767              		.cfi_endproc
 768              	.LFE44:
 770              		.section	.text.HAL_I2C_Master_Receive,"ax",%progbits
 771              		.align	1
 772              		.global	HAL_I2C_Master_Receive
 773              		.syntax unified
 774              		.code	16
 775              		.thumb_func
 777              	HAL_I2C_Master_Receive:
 778              	.LFB45:
1221:Drivers/STM32F0xx_HAL_Driver/Src/stm32f0xx_hal_i2c.c **** 
1222:Drivers/STM32F0xx_HAL_Driver/Src/stm32f0xx_hal_i2c.c **** /**
1223:Drivers/STM32F0xx_HAL_Driver/Src/stm32f0xx_hal_i2c.c ****   * @brief  Receives in master mode an amount of data in blocking mode.
ARM GAS  C:\Users\mason\AppData\Local\Temp\ccsS7Myt.s 			page 36


1224:Drivers/STM32F0xx_HAL_Driver/Src/stm32f0xx_hal_i2c.c ****   * @param  hi2c Pointer to a I2C_HandleTypeDef structure that contains
1225:Drivers/STM32F0xx_HAL_Driver/Src/stm32f0xx_hal_i2c.c ****   *                the configuration information for the specified I2C.
1226:Drivers/STM32F0xx_HAL_Driver/Src/stm32f0xx_hal_i2c.c ****   * @param  DevAddress Target device address: The device 7 bits address value
1227:Drivers/STM32F0xx_HAL_Driver/Src/stm32f0xx_hal_i2c.c ****   *         in datasheet must be shifted to the left before calling the interface
1228:Drivers/STM32F0xx_HAL_Driver/Src/stm32f0xx_hal_i2c.c ****   * @param  pData Pointer to data buffer
1229:Drivers/STM32F0xx_HAL_Driver/Src/stm32f0xx_hal_i2c.c ****   * @param  Size Amount of data to be sent
1230:Drivers/STM32F0xx_HAL_Driver/Src/stm32f0xx_hal_i2c.c ****   * @param  Timeout Timeout duration
1231:Drivers/STM32F0xx_HAL_Driver/Src/stm32f0xx_hal_i2c.c ****   * @retval HAL status
1232:Drivers/STM32F0xx_HAL_Driver/Src/stm32f0xx_hal_i2c.c ****   */
1233:Drivers/STM32F0xx_HAL_Driver/Src/stm32f0xx_hal_i2c.c **** HAL_StatusTypeDef HAL_I2C_Master_Receive(I2C_HandleTypeDef *hi2c, uint16_t DevAddress, uint8_t *pDa
1234:Drivers/STM32F0xx_HAL_Driver/Src/stm32f0xx_hal_i2c.c ****                                          uint16_t Size, uint32_t Timeout)
1235:Drivers/STM32F0xx_HAL_Driver/Src/stm32f0xx_hal_i2c.c **** {
 779              		.loc 1 1235 1
 780              		.cfi_startproc
 781              		@ args = 4, pretend = 0, frame = 24
 782              		@ frame_needed = 1, uses_anonymous_args = 0
 783 0000 90B5     		push	{r4, r7, lr}
 784              	.LCFI15:
 785              		.cfi_def_cfa_offset 12
 786              		.cfi_offset 4, -12
 787              		.cfi_offset 7, -8
 788              		.cfi_offset 14, -4
 789 0002 89B0     		sub	sp, sp, #36
 790              	.LCFI16:
 791              		.cfi_def_cfa_offset 48
 792 0004 02AF     		add	r7, sp, #8
 793              	.LCFI17:
 794              		.cfi_def_cfa 7, 40
 795 0006 F860     		str	r0, [r7, #12]
 796 0008 0800     		movs	r0, r1
 797 000a 7A60     		str	r2, [r7, #4]
 798 000c 1900     		movs	r1, r3
 799 000e 0A23     		movs	r3, #10
 800 0010 FB18     		adds	r3, r7, r3
 801 0012 021C     		adds	r2, r0, #0
 802 0014 1A80     		strh	r2, [r3]
 803 0016 0823     		movs	r3, #8
 804 0018 FB18     		adds	r3, r7, r3
 805 001a 0A1C     		adds	r2, r1, #0
 806 001c 1A80     		strh	r2, [r3]
1236:Drivers/STM32F0xx_HAL_Driver/Src/stm32f0xx_hal_i2c.c ****   uint32_t tickstart;
1237:Drivers/STM32F0xx_HAL_Driver/Src/stm32f0xx_hal_i2c.c **** 
1238:Drivers/STM32F0xx_HAL_Driver/Src/stm32f0xx_hal_i2c.c ****   if (hi2c->State == HAL_I2C_STATE_READY)
 807              		.loc 1 1238 11
 808 001e FB68     		ldr	r3, [r7, #12]
 809 0020 4122     		movs	r2, #65
 810 0022 9B5C     		ldrb	r3, [r3, r2]
 811 0024 DBB2     		uxtb	r3, r3
 812              		.loc 1 1238 6
 813 0026 202B     		cmp	r3, #32
 814 0028 00D0     		beq	.LCB654
 815 002a E8E0     		b	.L31	@long jump
 816              	.LCB654:
1239:Drivers/STM32F0xx_HAL_Driver/Src/stm32f0xx_hal_i2c.c ****   {
1240:Drivers/STM32F0xx_HAL_Driver/Src/stm32f0xx_hal_i2c.c ****     /* Process Locked */
1241:Drivers/STM32F0xx_HAL_Driver/Src/stm32f0xx_hal_i2c.c ****     __HAL_LOCK(hi2c);
 817              		.loc 1 1241 5
ARM GAS  C:\Users\mason\AppData\Local\Temp\ccsS7Myt.s 			page 37


 818 002c FB68     		ldr	r3, [r7, #12]
 819 002e 4022     		movs	r2, #64
 820 0030 9B5C     		ldrb	r3, [r3, r2]
 821 0032 012B     		cmp	r3, #1
 822 0034 01D1     		bne	.L32
 823              		.loc 1 1241 5 is_stmt 0 discriminator 1
 824 0036 0223     		movs	r3, #2
 825 0038 E2E0     		b	.L33
 826              	.L32:
 827              		.loc 1 1241 5 discriminator 2
 828 003a FB68     		ldr	r3, [r7, #12]
 829 003c 4022     		movs	r2, #64
 830 003e 0121     		movs	r1, #1
 831 0040 9954     		strb	r1, [r3, r2]
1242:Drivers/STM32F0xx_HAL_Driver/Src/stm32f0xx_hal_i2c.c **** 
1243:Drivers/STM32F0xx_HAL_Driver/Src/stm32f0xx_hal_i2c.c ****     /* Init tickstart for timeout management*/
1244:Drivers/STM32F0xx_HAL_Driver/Src/stm32f0xx_hal_i2c.c ****     tickstart = HAL_GetTick();
 832              		.loc 1 1244 17 is_stmt 1 discriminator 2
 833 0042 FFF7FEFF 		bl	HAL_GetTick
 834 0046 0300     		movs	r3, r0
 835 0048 7B61     		str	r3, [r7, #20]
1245:Drivers/STM32F0xx_HAL_Driver/Src/stm32f0xx_hal_i2c.c **** 
1246:Drivers/STM32F0xx_HAL_Driver/Src/stm32f0xx_hal_i2c.c ****     if (I2C_WaitOnFlagUntilTimeout(hi2c, I2C_FLAG_BUSY, SET, I2C_TIMEOUT_BUSY, tickstart) != HAL_OK
 836              		.loc 1 1246 9 discriminator 2
 837 004a 8023     		movs	r3, #128
 838 004c 1902     		lsls	r1, r3, #8
 839 004e F868     		ldr	r0, [r7, #12]
 840 0050 7B69     		ldr	r3, [r7, #20]
 841 0052 0093     		str	r3, [sp]
 842 0054 1923     		movs	r3, #25
 843 0056 0122     		movs	r2, #1
 844 0058 FFF7FEFF 		bl	I2C_WaitOnFlagUntilTimeout
 845 005c 031E     		subs	r3, r0, #0
 846              		.loc 1 1246 8 discriminator 2
 847 005e 01D0     		beq	.L34
1247:Drivers/STM32F0xx_HAL_Driver/Src/stm32f0xx_hal_i2c.c ****     {
1248:Drivers/STM32F0xx_HAL_Driver/Src/stm32f0xx_hal_i2c.c ****       return HAL_ERROR;
 848              		.loc 1 1248 14
 849 0060 0123     		movs	r3, #1
 850 0062 CDE0     		b	.L33
 851              	.L34:
1249:Drivers/STM32F0xx_HAL_Driver/Src/stm32f0xx_hal_i2c.c ****     }
1250:Drivers/STM32F0xx_HAL_Driver/Src/stm32f0xx_hal_i2c.c **** 
1251:Drivers/STM32F0xx_HAL_Driver/Src/stm32f0xx_hal_i2c.c ****     hi2c->State     = HAL_I2C_STATE_BUSY_RX;
 852              		.loc 1 1251 21
 853 0064 FB68     		ldr	r3, [r7, #12]
 854 0066 4122     		movs	r2, #65
 855 0068 2221     		movs	r1, #34
 856 006a 9954     		strb	r1, [r3, r2]
1252:Drivers/STM32F0xx_HAL_Driver/Src/stm32f0xx_hal_i2c.c ****     hi2c->Mode      = HAL_I2C_MODE_MASTER;
 857              		.loc 1 1252 21
 858 006c FB68     		ldr	r3, [r7, #12]
 859 006e 4222     		movs	r2, #66
 860 0070 1021     		movs	r1, #16
 861 0072 9954     		strb	r1, [r3, r2]
1253:Drivers/STM32F0xx_HAL_Driver/Src/stm32f0xx_hal_i2c.c ****     hi2c->ErrorCode = HAL_I2C_ERROR_NONE;
 862              		.loc 1 1253 21
ARM GAS  C:\Users\mason\AppData\Local\Temp\ccsS7Myt.s 			page 38


 863 0074 FB68     		ldr	r3, [r7, #12]
 864 0076 0022     		movs	r2, #0
 865 0078 5A64     		str	r2, [r3, #68]
1254:Drivers/STM32F0xx_HAL_Driver/Src/stm32f0xx_hal_i2c.c **** 
1255:Drivers/STM32F0xx_HAL_Driver/Src/stm32f0xx_hal_i2c.c ****     /* Prepare transfer parameters */
1256:Drivers/STM32F0xx_HAL_Driver/Src/stm32f0xx_hal_i2c.c ****     hi2c->pBuffPtr  = pData;
 866              		.loc 1 1256 21
 867 007a FB68     		ldr	r3, [r7, #12]
 868 007c 7A68     		ldr	r2, [r7, #4]
 869 007e 5A62     		str	r2, [r3, #36]
1257:Drivers/STM32F0xx_HAL_Driver/Src/stm32f0xx_hal_i2c.c ****     hi2c->XferCount = Size;
 870              		.loc 1 1257 21
 871 0080 FB68     		ldr	r3, [r7, #12]
 872 0082 0822     		movs	r2, #8
 873 0084 BA18     		adds	r2, r7, r2
 874 0086 1288     		ldrh	r2, [r2]
 875 0088 5A85     		strh	r2, [r3, #42]
1258:Drivers/STM32F0xx_HAL_Driver/Src/stm32f0xx_hal_i2c.c ****     hi2c->XferISR   = NULL;
 876              		.loc 1 1258 21
 877 008a FB68     		ldr	r3, [r7, #12]
 878 008c 0022     		movs	r2, #0
 879 008e 5A63     		str	r2, [r3, #52]
1259:Drivers/STM32F0xx_HAL_Driver/Src/stm32f0xx_hal_i2c.c **** 
1260:Drivers/STM32F0xx_HAL_Driver/Src/stm32f0xx_hal_i2c.c ****     /* Send Slave Address */
1261:Drivers/STM32F0xx_HAL_Driver/Src/stm32f0xx_hal_i2c.c ****     /* Set NBYTES to write and reload if hi2c->XferCount > MAX_NBYTE_SIZE and generate RESTART */
1262:Drivers/STM32F0xx_HAL_Driver/Src/stm32f0xx_hal_i2c.c ****     if (hi2c->XferCount > MAX_NBYTE_SIZE)
 880              		.loc 1 1262 13
 881 0090 FB68     		ldr	r3, [r7, #12]
 882 0092 5B8D     		ldrh	r3, [r3, #42]
 883 0094 9BB2     		uxth	r3, r3
 884              		.loc 1 1262 8
 885 0096 FF2B     		cmp	r3, #255
 886 0098 11D9     		bls	.L35
1263:Drivers/STM32F0xx_HAL_Driver/Src/stm32f0xx_hal_i2c.c ****     {
1264:Drivers/STM32F0xx_HAL_Driver/Src/stm32f0xx_hal_i2c.c ****       hi2c->XferSize = MAX_NBYTE_SIZE;
 887              		.loc 1 1264 22
 888 009a FB68     		ldr	r3, [r7, #12]
 889 009c FF22     		movs	r2, #255
 890 009e 1A85     		strh	r2, [r3, #40]
1265:Drivers/STM32F0xx_HAL_Driver/Src/stm32f0xx_hal_i2c.c ****       I2C_TransferConfig(hi2c, DevAddress, (uint8_t)hi2c->XferSize, I2C_RELOAD_MODE,
 891              		.loc 1 1265 57
 892 00a0 FB68     		ldr	r3, [r7, #12]
 893 00a2 1B8D     		ldrh	r3, [r3, #40]
 894              		.loc 1 1265 7
 895 00a4 DAB2     		uxtb	r2, r3
 896 00a6 8023     		movs	r3, #128
 897 00a8 5C04     		lsls	r4, r3, #17
 898 00aa 0A23     		movs	r3, #10
 899 00ac FB18     		adds	r3, r7, r3
 900 00ae 1988     		ldrh	r1, [r3]
 901 00b0 F868     		ldr	r0, [r7, #12]
 902 00b2 554B     		ldr	r3, .L43
 903 00b4 0093     		str	r3, [sp]
 904 00b6 2300     		movs	r3, r4
 905 00b8 FFF7FEFF 		bl	I2C_TransferConfig
 906 00bc 76E0     		b	.L37
 907              	.L35:
ARM GAS  C:\Users\mason\AppData\Local\Temp\ccsS7Myt.s 			page 39


1266:Drivers/STM32F0xx_HAL_Driver/Src/stm32f0xx_hal_i2c.c ****                          I2C_GENERATE_START_READ);
1267:Drivers/STM32F0xx_HAL_Driver/Src/stm32f0xx_hal_i2c.c ****     }
1268:Drivers/STM32F0xx_HAL_Driver/Src/stm32f0xx_hal_i2c.c ****     else
1269:Drivers/STM32F0xx_HAL_Driver/Src/stm32f0xx_hal_i2c.c ****     {
1270:Drivers/STM32F0xx_HAL_Driver/Src/stm32f0xx_hal_i2c.c ****       hi2c->XferSize = hi2c->XferCount;
 908              		.loc 1 1270 28
 909 00be FB68     		ldr	r3, [r7, #12]
 910 00c0 5B8D     		ldrh	r3, [r3, #42]
 911 00c2 9AB2     		uxth	r2, r3
 912              		.loc 1 1270 22
 913 00c4 FB68     		ldr	r3, [r7, #12]
 914 00c6 1A85     		strh	r2, [r3, #40]
1271:Drivers/STM32F0xx_HAL_Driver/Src/stm32f0xx_hal_i2c.c ****       I2C_TransferConfig(hi2c, DevAddress, (uint8_t)hi2c->XferSize, I2C_AUTOEND_MODE,
 915              		.loc 1 1271 57
 916 00c8 FB68     		ldr	r3, [r7, #12]
 917 00ca 1B8D     		ldrh	r3, [r3, #40]
 918              		.loc 1 1271 7
 919 00cc DAB2     		uxtb	r2, r3
 920 00ce 8023     		movs	r3, #128
 921 00d0 9C04     		lsls	r4, r3, #18
 922 00d2 0A23     		movs	r3, #10
 923 00d4 FB18     		adds	r3, r7, r3
 924 00d6 1988     		ldrh	r1, [r3]
 925 00d8 F868     		ldr	r0, [r7, #12]
 926 00da 4B4B     		ldr	r3, .L43
 927 00dc 0093     		str	r3, [sp]
 928 00de 2300     		movs	r3, r4
 929 00e0 FFF7FEFF 		bl	I2C_TransferConfig
1272:Drivers/STM32F0xx_HAL_Driver/Src/stm32f0xx_hal_i2c.c ****                          I2C_GENERATE_START_READ);
1273:Drivers/STM32F0xx_HAL_Driver/Src/stm32f0xx_hal_i2c.c ****     }
1274:Drivers/STM32F0xx_HAL_Driver/Src/stm32f0xx_hal_i2c.c **** 
1275:Drivers/STM32F0xx_HAL_Driver/Src/stm32f0xx_hal_i2c.c ****     while (hi2c->XferCount > 0U)
 930              		.loc 1 1275 11
 931 00e4 62E0     		b	.L37
 932              	.L41:
1276:Drivers/STM32F0xx_HAL_Driver/Src/stm32f0xx_hal_i2c.c ****     {
1277:Drivers/STM32F0xx_HAL_Driver/Src/stm32f0xx_hal_i2c.c ****       /* Wait until RXNE flag is set */
1278:Drivers/STM32F0xx_HAL_Driver/Src/stm32f0xx_hal_i2c.c ****       if (I2C_WaitOnRXNEFlagUntilTimeout(hi2c, Timeout, tickstart) != HAL_OK)
 933              		.loc 1 1278 11
 934 00e6 7A69     		ldr	r2, [r7, #20]
 935 00e8 B96A     		ldr	r1, [r7, #40]
 936 00ea FB68     		ldr	r3, [r7, #12]
 937 00ec 1800     		movs	r0, r3
 938 00ee FFF7FEFF 		bl	I2C_WaitOnRXNEFlagUntilTimeout
 939 00f2 031E     		subs	r3, r0, #0
 940              		.loc 1 1278 10
 941 00f4 01D0     		beq	.L38
1279:Drivers/STM32F0xx_HAL_Driver/Src/stm32f0xx_hal_i2c.c ****       {
1280:Drivers/STM32F0xx_HAL_Driver/Src/stm32f0xx_hal_i2c.c ****         return HAL_ERROR;
 942              		.loc 1 1280 16
 943 00f6 0123     		movs	r3, #1
 944 00f8 82E0     		b	.L33
 945              	.L38:
1281:Drivers/STM32F0xx_HAL_Driver/Src/stm32f0xx_hal_i2c.c ****       }
1282:Drivers/STM32F0xx_HAL_Driver/Src/stm32f0xx_hal_i2c.c **** 
1283:Drivers/STM32F0xx_HAL_Driver/Src/stm32f0xx_hal_i2c.c ****       /* Read data from RXDR */
1284:Drivers/STM32F0xx_HAL_Driver/Src/stm32f0xx_hal_i2c.c ****       *hi2c->pBuffPtr = (uint8_t)hi2c->Instance->RXDR;
ARM GAS  C:\Users\mason\AppData\Local\Temp\ccsS7Myt.s 			page 40


 946              		.loc 1 1284 38
 947 00fa FB68     		ldr	r3, [r7, #12]
 948 00fc 1B68     		ldr	r3, [r3]
 949              		.loc 1 1284 48
 950 00fe 5A6A     		ldr	r2, [r3, #36]
 951              		.loc 1 1284 12
 952 0100 FB68     		ldr	r3, [r7, #12]
 953 0102 5B6A     		ldr	r3, [r3, #36]
 954              		.loc 1 1284 25
 955 0104 D2B2     		uxtb	r2, r2
 956              		.loc 1 1284 23
 957 0106 1A70     		strb	r2, [r3]
1285:Drivers/STM32F0xx_HAL_Driver/Src/stm32f0xx_hal_i2c.c **** 
1286:Drivers/STM32F0xx_HAL_Driver/Src/stm32f0xx_hal_i2c.c ****       /* Increment Buffer pointer */
1287:Drivers/STM32F0xx_HAL_Driver/Src/stm32f0xx_hal_i2c.c ****       hi2c->pBuffPtr++;
 958              		.loc 1 1287 11
 959 0108 FB68     		ldr	r3, [r7, #12]
 960 010a 5B6A     		ldr	r3, [r3, #36]
 961              		.loc 1 1287 21
 962 010c 5A1C     		adds	r2, r3, #1
 963 010e FB68     		ldr	r3, [r7, #12]
 964 0110 5A62     		str	r2, [r3, #36]
1288:Drivers/STM32F0xx_HAL_Driver/Src/stm32f0xx_hal_i2c.c **** 
1289:Drivers/STM32F0xx_HAL_Driver/Src/stm32f0xx_hal_i2c.c ****       hi2c->XferSize--;
 965              		.loc 1 1289 11
 966 0112 FB68     		ldr	r3, [r7, #12]
 967 0114 1B8D     		ldrh	r3, [r3, #40]
 968              		.loc 1 1289 21
 969 0116 013B     		subs	r3, r3, #1
 970 0118 9AB2     		uxth	r2, r3
 971 011a FB68     		ldr	r3, [r7, #12]
 972 011c 1A85     		strh	r2, [r3, #40]
1290:Drivers/STM32F0xx_HAL_Driver/Src/stm32f0xx_hal_i2c.c ****       hi2c->XferCount--;
 973              		.loc 1 1290 11
 974 011e FB68     		ldr	r3, [r7, #12]
 975 0120 5B8D     		ldrh	r3, [r3, #42]
 976 0122 9BB2     		uxth	r3, r3
 977              		.loc 1 1290 22
 978 0124 013B     		subs	r3, r3, #1
 979 0126 9AB2     		uxth	r2, r3
 980 0128 FB68     		ldr	r3, [r7, #12]
 981 012a 5A85     		strh	r2, [r3, #42]
1291:Drivers/STM32F0xx_HAL_Driver/Src/stm32f0xx_hal_i2c.c **** 
1292:Drivers/STM32F0xx_HAL_Driver/Src/stm32f0xx_hal_i2c.c ****       if ((hi2c->XferCount != 0U) && (hi2c->XferSize == 0U))
 982              		.loc 1 1292 16
 983 012c FB68     		ldr	r3, [r7, #12]
 984 012e 5B8D     		ldrh	r3, [r3, #42]
 985 0130 9BB2     		uxth	r3, r3
 986              		.loc 1 1292 10
 987 0132 002B     		cmp	r3, #0
 988 0134 3AD0     		beq	.L37
 989              		.loc 1 1292 43 discriminator 1
 990 0136 FB68     		ldr	r3, [r7, #12]
 991 0138 1B8D     		ldrh	r3, [r3, #40]
 992              		.loc 1 1292 35 discriminator 1
 993 013a 002B     		cmp	r3, #0
 994 013c 36D1     		bne	.L37
ARM GAS  C:\Users\mason\AppData\Local\Temp\ccsS7Myt.s 			page 41


1293:Drivers/STM32F0xx_HAL_Driver/Src/stm32f0xx_hal_i2c.c ****       {
1294:Drivers/STM32F0xx_HAL_Driver/Src/stm32f0xx_hal_i2c.c ****         /* Wait until TCR flag is set */
1295:Drivers/STM32F0xx_HAL_Driver/Src/stm32f0xx_hal_i2c.c ****         if (I2C_WaitOnFlagUntilTimeout(hi2c, I2C_FLAG_TCR, RESET, Timeout, tickstart) != HAL_OK)
 995              		.loc 1 1295 13
 996 013e BA6A     		ldr	r2, [r7, #40]
 997 0140 F868     		ldr	r0, [r7, #12]
 998 0142 7B69     		ldr	r3, [r7, #20]
 999 0144 0093     		str	r3, [sp]
 1000 0146 1300     		movs	r3, r2
 1001 0148 0022     		movs	r2, #0
 1002 014a 8021     		movs	r1, #128
 1003 014c FFF7FEFF 		bl	I2C_WaitOnFlagUntilTimeout
 1004 0150 031E     		subs	r3, r0, #0
 1005              		.loc 1 1295 12
 1006 0152 01D0     		beq	.L39
1296:Drivers/STM32F0xx_HAL_Driver/Src/stm32f0xx_hal_i2c.c ****         {
1297:Drivers/STM32F0xx_HAL_Driver/Src/stm32f0xx_hal_i2c.c ****           return HAL_ERROR;
 1007              		.loc 1 1297 18
 1008 0154 0123     		movs	r3, #1
 1009 0156 53E0     		b	.L33
 1010              	.L39:
1298:Drivers/STM32F0xx_HAL_Driver/Src/stm32f0xx_hal_i2c.c ****         }
1299:Drivers/STM32F0xx_HAL_Driver/Src/stm32f0xx_hal_i2c.c **** 
1300:Drivers/STM32F0xx_HAL_Driver/Src/stm32f0xx_hal_i2c.c ****         if (hi2c->XferCount > MAX_NBYTE_SIZE)
 1011              		.loc 1 1300 17
 1012 0158 FB68     		ldr	r3, [r7, #12]
 1013 015a 5B8D     		ldrh	r3, [r3, #42]
 1014 015c 9BB2     		uxth	r3, r3
 1015              		.loc 1 1300 12
 1016 015e FF2B     		cmp	r3, #255
 1017 0160 11D9     		bls	.L40
1301:Drivers/STM32F0xx_HAL_Driver/Src/stm32f0xx_hal_i2c.c ****         {
1302:Drivers/STM32F0xx_HAL_Driver/Src/stm32f0xx_hal_i2c.c ****           hi2c->XferSize = MAX_NBYTE_SIZE;
 1018              		.loc 1 1302 26
 1019 0162 FB68     		ldr	r3, [r7, #12]
 1020 0164 FF22     		movs	r2, #255
 1021 0166 1A85     		strh	r2, [r3, #40]
1303:Drivers/STM32F0xx_HAL_Driver/Src/stm32f0xx_hal_i2c.c ****           I2C_TransferConfig(hi2c, DevAddress, (uint8_t)hi2c->XferSize, I2C_RELOAD_MODE,
 1022              		.loc 1 1303 61
 1023 0168 FB68     		ldr	r3, [r7, #12]
 1024 016a 1B8D     		ldrh	r3, [r3, #40]
 1025              		.loc 1 1303 11
 1026 016c DAB2     		uxtb	r2, r3
 1027 016e 8023     		movs	r3, #128
 1028 0170 5C04     		lsls	r4, r3, #17
 1029 0172 0A23     		movs	r3, #10
 1030 0174 FB18     		adds	r3, r7, r3
 1031 0176 1988     		ldrh	r1, [r3]
 1032 0178 F868     		ldr	r0, [r7, #12]
 1033 017a 0023     		movs	r3, #0
 1034 017c 0093     		str	r3, [sp]
 1035 017e 2300     		movs	r3, r4
 1036 0180 FFF7FEFF 		bl	I2C_TransferConfig
 1037 0184 12E0     		b	.L37
 1038              	.L40:
1304:Drivers/STM32F0xx_HAL_Driver/Src/stm32f0xx_hal_i2c.c ****                              I2C_NO_STARTSTOP);
1305:Drivers/STM32F0xx_HAL_Driver/Src/stm32f0xx_hal_i2c.c ****         }
ARM GAS  C:\Users\mason\AppData\Local\Temp\ccsS7Myt.s 			page 42


1306:Drivers/STM32F0xx_HAL_Driver/Src/stm32f0xx_hal_i2c.c ****         else
1307:Drivers/STM32F0xx_HAL_Driver/Src/stm32f0xx_hal_i2c.c ****         {
1308:Drivers/STM32F0xx_HAL_Driver/Src/stm32f0xx_hal_i2c.c ****           hi2c->XferSize = hi2c->XferCount;
 1039              		.loc 1 1308 32
 1040 0186 FB68     		ldr	r3, [r7, #12]
 1041 0188 5B8D     		ldrh	r3, [r3, #42]
 1042 018a 9AB2     		uxth	r2, r3
 1043              		.loc 1 1308 26
 1044 018c FB68     		ldr	r3, [r7, #12]
 1045 018e 1A85     		strh	r2, [r3, #40]
1309:Drivers/STM32F0xx_HAL_Driver/Src/stm32f0xx_hal_i2c.c ****           I2C_TransferConfig(hi2c, DevAddress, (uint8_t)hi2c->XferSize, I2C_AUTOEND_MODE,
 1046              		.loc 1 1309 61
 1047 0190 FB68     		ldr	r3, [r7, #12]
 1048 0192 1B8D     		ldrh	r3, [r3, #40]
 1049              		.loc 1 1309 11
 1050 0194 DAB2     		uxtb	r2, r3
 1051 0196 8023     		movs	r3, #128
 1052 0198 9C04     		lsls	r4, r3, #18
 1053 019a 0A23     		movs	r3, #10
 1054 019c FB18     		adds	r3, r7, r3
 1055 019e 1988     		ldrh	r1, [r3]
 1056 01a0 F868     		ldr	r0, [r7, #12]
 1057 01a2 0023     		movs	r3, #0
 1058 01a4 0093     		str	r3, [sp]
 1059 01a6 2300     		movs	r3, r4
 1060 01a8 FFF7FEFF 		bl	I2C_TransferConfig
 1061              	.L37:
1275:Drivers/STM32F0xx_HAL_Driver/Src/stm32f0xx_hal_i2c.c ****     {
 1062              		.loc 1 1275 16
 1063 01ac FB68     		ldr	r3, [r7, #12]
 1064 01ae 5B8D     		ldrh	r3, [r3, #42]
 1065 01b0 9BB2     		uxth	r3, r3
1275:Drivers/STM32F0xx_HAL_Driver/Src/stm32f0xx_hal_i2c.c ****     {
 1066              		.loc 1 1275 11
 1067 01b2 002B     		cmp	r3, #0
 1068 01b4 97D1     		bne	.L41
1310:Drivers/STM32F0xx_HAL_Driver/Src/stm32f0xx_hal_i2c.c ****                              I2C_NO_STARTSTOP);
1311:Drivers/STM32F0xx_HAL_Driver/Src/stm32f0xx_hal_i2c.c ****         }
1312:Drivers/STM32F0xx_HAL_Driver/Src/stm32f0xx_hal_i2c.c ****       }
1313:Drivers/STM32F0xx_HAL_Driver/Src/stm32f0xx_hal_i2c.c ****     }
1314:Drivers/STM32F0xx_HAL_Driver/Src/stm32f0xx_hal_i2c.c **** 
1315:Drivers/STM32F0xx_HAL_Driver/Src/stm32f0xx_hal_i2c.c ****     /* No need to Check TC flag, with AUTOEND mode the stop is automatically generated */
1316:Drivers/STM32F0xx_HAL_Driver/Src/stm32f0xx_hal_i2c.c ****     /* Wait until STOPF flag is set */
1317:Drivers/STM32F0xx_HAL_Driver/Src/stm32f0xx_hal_i2c.c ****     if (I2C_WaitOnSTOPFlagUntilTimeout(hi2c, Timeout, tickstart) != HAL_OK)
 1069              		.loc 1 1317 9
 1070 01b6 7A69     		ldr	r2, [r7, #20]
 1071 01b8 B96A     		ldr	r1, [r7, #40]
 1072 01ba FB68     		ldr	r3, [r7, #12]
 1073 01bc 1800     		movs	r0, r3
 1074 01be FFF7FEFF 		bl	I2C_WaitOnSTOPFlagUntilTimeout
 1075 01c2 031E     		subs	r3, r0, #0
 1076              		.loc 1 1317 8
 1077 01c4 01D0     		beq	.L42
1318:Drivers/STM32F0xx_HAL_Driver/Src/stm32f0xx_hal_i2c.c ****     {
1319:Drivers/STM32F0xx_HAL_Driver/Src/stm32f0xx_hal_i2c.c ****       return HAL_ERROR;
 1078              		.loc 1 1319 14
 1079 01c6 0123     		movs	r3, #1
ARM GAS  C:\Users\mason\AppData\Local\Temp\ccsS7Myt.s 			page 43


 1080 01c8 1AE0     		b	.L33
 1081              	.L42:
1320:Drivers/STM32F0xx_HAL_Driver/Src/stm32f0xx_hal_i2c.c ****     }
1321:Drivers/STM32F0xx_HAL_Driver/Src/stm32f0xx_hal_i2c.c **** 
1322:Drivers/STM32F0xx_HAL_Driver/Src/stm32f0xx_hal_i2c.c ****     /* Clear STOP Flag */
1323:Drivers/STM32F0xx_HAL_Driver/Src/stm32f0xx_hal_i2c.c ****     __HAL_I2C_CLEAR_FLAG(hi2c, I2C_FLAG_STOPF);
 1082              		.loc 1 1323 5
 1083 01ca FB68     		ldr	r3, [r7, #12]
 1084 01cc 1B68     		ldr	r3, [r3]
 1085 01ce 2022     		movs	r2, #32
 1086 01d0 DA61     		str	r2, [r3, #28]
1324:Drivers/STM32F0xx_HAL_Driver/Src/stm32f0xx_hal_i2c.c **** 
1325:Drivers/STM32F0xx_HAL_Driver/Src/stm32f0xx_hal_i2c.c ****     /* Clear Configuration Register 2 */
1326:Drivers/STM32F0xx_HAL_Driver/Src/stm32f0xx_hal_i2c.c ****     I2C_RESET_CR2(hi2c);
 1087              		.loc 1 1326 5
 1088 01d2 FB68     		ldr	r3, [r7, #12]
 1089 01d4 1B68     		ldr	r3, [r3]
 1090 01d6 5A68     		ldr	r2, [r3, #4]
 1091 01d8 FB68     		ldr	r3, [r7, #12]
 1092 01da 1B68     		ldr	r3, [r3]
 1093 01dc 0B49     		ldr	r1, .L43+4
 1094 01de 0A40     		ands	r2, r1
 1095 01e0 5A60     		str	r2, [r3, #4]
1327:Drivers/STM32F0xx_HAL_Driver/Src/stm32f0xx_hal_i2c.c **** 
1328:Drivers/STM32F0xx_HAL_Driver/Src/stm32f0xx_hal_i2c.c ****     hi2c->State = HAL_I2C_STATE_READY;
 1096              		.loc 1 1328 17
 1097 01e2 FB68     		ldr	r3, [r7, #12]
 1098 01e4 4122     		movs	r2, #65
 1099 01e6 2021     		movs	r1, #32
 1100 01e8 9954     		strb	r1, [r3, r2]
1329:Drivers/STM32F0xx_HAL_Driver/Src/stm32f0xx_hal_i2c.c ****     hi2c->Mode  = HAL_I2C_MODE_NONE;
 1101              		.loc 1 1329 17
 1102 01ea FB68     		ldr	r3, [r7, #12]
 1103 01ec 4222     		movs	r2, #66
 1104 01ee 0021     		movs	r1, #0
 1105 01f0 9954     		strb	r1, [r3, r2]
1330:Drivers/STM32F0xx_HAL_Driver/Src/stm32f0xx_hal_i2c.c **** 
1331:Drivers/STM32F0xx_HAL_Driver/Src/stm32f0xx_hal_i2c.c ****     /* Process Unlocked */
1332:Drivers/STM32F0xx_HAL_Driver/Src/stm32f0xx_hal_i2c.c ****     __HAL_UNLOCK(hi2c);
 1106              		.loc 1 1332 5
 1107 01f2 FB68     		ldr	r3, [r7, #12]
 1108 01f4 4022     		movs	r2, #64
 1109 01f6 0021     		movs	r1, #0
 1110 01f8 9954     		strb	r1, [r3, r2]
1333:Drivers/STM32F0xx_HAL_Driver/Src/stm32f0xx_hal_i2c.c **** 
1334:Drivers/STM32F0xx_HAL_Driver/Src/stm32f0xx_hal_i2c.c ****     return HAL_OK;
 1111              		.loc 1 1334 12
 1112 01fa 0023     		movs	r3, #0
 1113 01fc 00E0     		b	.L33
 1114              	.L31:
1335:Drivers/STM32F0xx_HAL_Driver/Src/stm32f0xx_hal_i2c.c ****   }
1336:Drivers/STM32F0xx_HAL_Driver/Src/stm32f0xx_hal_i2c.c ****   else
1337:Drivers/STM32F0xx_HAL_Driver/Src/stm32f0xx_hal_i2c.c ****   {
1338:Drivers/STM32F0xx_HAL_Driver/Src/stm32f0xx_hal_i2c.c ****     return HAL_BUSY;
 1115              		.loc 1 1338 12
 1116 01fe 0223     		movs	r3, #2
 1117              	.L33:
ARM GAS  C:\Users\mason\AppData\Local\Temp\ccsS7Myt.s 			page 44


1339:Drivers/STM32F0xx_HAL_Driver/Src/stm32f0xx_hal_i2c.c ****   }
1340:Drivers/STM32F0xx_HAL_Driver/Src/stm32f0xx_hal_i2c.c **** }
 1118              		.loc 1 1340 1
 1119 0200 1800     		movs	r0, r3
 1120 0202 BD46     		mov	sp, r7
 1121 0204 07B0     		add	sp, sp, #28
 1122              		@ sp needed
 1123 0206 90BD     		pop	{r4, r7, pc}
 1124              	.L44:
 1125              		.align	2
 1126              	.L43:
 1127 0208 00240080 		.word	-2147474432
 1128 020c 00E800FE 		.word	-33495040
 1129              		.cfi_endproc
 1130              	.LFE45:
 1132              		.section	.text.HAL_I2C_Slave_Transmit,"ax",%progbits
 1133              		.align	1
 1134              		.global	HAL_I2C_Slave_Transmit
 1135              		.syntax unified
 1136              		.code	16
 1137              		.thumb_func
 1139              	HAL_I2C_Slave_Transmit:
 1140              	.LFB46:
1341:Drivers/STM32F0xx_HAL_Driver/Src/stm32f0xx_hal_i2c.c **** 
1342:Drivers/STM32F0xx_HAL_Driver/Src/stm32f0xx_hal_i2c.c **** /**
1343:Drivers/STM32F0xx_HAL_Driver/Src/stm32f0xx_hal_i2c.c ****   * @brief  Transmits in slave mode an amount of data in blocking mode.
1344:Drivers/STM32F0xx_HAL_Driver/Src/stm32f0xx_hal_i2c.c ****   * @param  hi2c Pointer to a I2C_HandleTypeDef structure that contains
1345:Drivers/STM32F0xx_HAL_Driver/Src/stm32f0xx_hal_i2c.c ****   *                the configuration information for the specified I2C.
1346:Drivers/STM32F0xx_HAL_Driver/Src/stm32f0xx_hal_i2c.c ****   * @param  pData Pointer to data buffer
1347:Drivers/STM32F0xx_HAL_Driver/Src/stm32f0xx_hal_i2c.c ****   * @param  Size Amount of data to be sent
1348:Drivers/STM32F0xx_HAL_Driver/Src/stm32f0xx_hal_i2c.c ****   * @param  Timeout Timeout duration
1349:Drivers/STM32F0xx_HAL_Driver/Src/stm32f0xx_hal_i2c.c ****   * @retval HAL status
1350:Drivers/STM32F0xx_HAL_Driver/Src/stm32f0xx_hal_i2c.c ****   */
1351:Drivers/STM32F0xx_HAL_Driver/Src/stm32f0xx_hal_i2c.c **** HAL_StatusTypeDef HAL_I2C_Slave_Transmit(I2C_HandleTypeDef *hi2c, uint8_t *pData, uint16_t Size,
1352:Drivers/STM32F0xx_HAL_Driver/Src/stm32f0xx_hal_i2c.c ****                                          uint32_t Timeout)
1353:Drivers/STM32F0xx_HAL_Driver/Src/stm32f0xx_hal_i2c.c **** {
 1141              		.loc 1 1353 1
 1142              		.cfi_startproc
 1143              		@ args = 0, pretend = 0, frame = 24
 1144              		@ frame_needed = 1, uses_anonymous_args = 0
 1145 0000 80B5     		push	{r7, lr}
 1146              	.LCFI18:
 1147              		.cfi_def_cfa_offset 8
 1148              		.cfi_offset 7, -8
 1149              		.cfi_offset 14, -4
 1150 0002 88B0     		sub	sp, sp, #32
 1151              	.LCFI19:
 1152              		.cfi_def_cfa_offset 40
 1153 0004 02AF     		add	r7, sp, #8
 1154              	.LCFI20:
 1155              		.cfi_def_cfa 7, 32
 1156 0006 F860     		str	r0, [r7, #12]
 1157 0008 B960     		str	r1, [r7, #8]
 1158 000a 3B60     		str	r3, [r7]
 1159 000c BB1D     		adds	r3, r7, #6
 1160 000e 1A80     		strh	r2, [r3]
1354:Drivers/STM32F0xx_HAL_Driver/Src/stm32f0xx_hal_i2c.c ****   uint32_t tickstart;
ARM GAS  C:\Users\mason\AppData\Local\Temp\ccsS7Myt.s 			page 45


1355:Drivers/STM32F0xx_HAL_Driver/Src/stm32f0xx_hal_i2c.c **** 
1356:Drivers/STM32F0xx_HAL_Driver/Src/stm32f0xx_hal_i2c.c ****   if (hi2c->State == HAL_I2C_STATE_READY)
 1161              		.loc 1 1356 11
 1162 0010 FB68     		ldr	r3, [r7, #12]
 1163 0012 4122     		movs	r2, #65
 1164 0014 9B5C     		ldrb	r3, [r3, r2]
 1165 0016 DBB2     		uxtb	r3, r3
 1166              		.loc 1 1356 6
 1167 0018 202B     		cmp	r3, #32
 1168 001a 00D0     		beq	.LCB959
 1169 001c 2CE1     		b	.L46	@long jump
 1170              	.LCB959:
1357:Drivers/STM32F0xx_HAL_Driver/Src/stm32f0xx_hal_i2c.c ****   {
1358:Drivers/STM32F0xx_HAL_Driver/Src/stm32f0xx_hal_i2c.c ****     if ((pData == NULL) || (Size == 0U))
 1171              		.loc 1 1358 8
 1172 001e BB68     		ldr	r3, [r7, #8]
 1173 0020 002B     		cmp	r3, #0
 1174 0022 03D0     		beq	.L47
 1175              		.loc 1 1358 25 discriminator 1
 1176 0024 BB1D     		adds	r3, r7, #6
 1177 0026 1B88     		ldrh	r3, [r3]
 1178 0028 002B     		cmp	r3, #0
 1179 002a 05D1     		bne	.L48
 1180              	.L47:
1359:Drivers/STM32F0xx_HAL_Driver/Src/stm32f0xx_hal_i2c.c ****     {
1360:Drivers/STM32F0xx_HAL_Driver/Src/stm32f0xx_hal_i2c.c ****       hi2c->ErrorCode = HAL_I2C_ERROR_INVALID_PARAM;
 1181              		.loc 1 1360 23
 1182 002c FB68     		ldr	r3, [r7, #12]
 1183 002e 8022     		movs	r2, #128
 1184 0030 9200     		lsls	r2, r2, #2
 1185 0032 5A64     		str	r2, [r3, #68]
1361:Drivers/STM32F0xx_HAL_Driver/Src/stm32f0xx_hal_i2c.c ****       return  HAL_ERROR;
 1186              		.loc 1 1361 15
 1187 0034 0123     		movs	r3, #1
 1188 0036 20E1     		b	.L49
 1189              	.L48:
1362:Drivers/STM32F0xx_HAL_Driver/Src/stm32f0xx_hal_i2c.c ****     }
1363:Drivers/STM32F0xx_HAL_Driver/Src/stm32f0xx_hal_i2c.c ****     /* Process Locked */
1364:Drivers/STM32F0xx_HAL_Driver/Src/stm32f0xx_hal_i2c.c ****     __HAL_LOCK(hi2c);
 1190              		.loc 1 1364 5
 1191 0038 FB68     		ldr	r3, [r7, #12]
 1192 003a 4022     		movs	r2, #64
 1193 003c 9B5C     		ldrb	r3, [r3, r2]
 1194 003e 012B     		cmp	r3, #1
 1195 0040 01D1     		bne	.L50
 1196              		.loc 1 1364 5 is_stmt 0 discriminator 1
 1197 0042 0223     		movs	r3, #2
 1198 0044 19E1     		b	.L49
 1199              	.L50:
 1200              		.loc 1 1364 5 discriminator 2
 1201 0046 FB68     		ldr	r3, [r7, #12]
 1202 0048 4022     		movs	r2, #64
 1203 004a 0121     		movs	r1, #1
 1204 004c 9954     		strb	r1, [r3, r2]
1365:Drivers/STM32F0xx_HAL_Driver/Src/stm32f0xx_hal_i2c.c **** 
1366:Drivers/STM32F0xx_HAL_Driver/Src/stm32f0xx_hal_i2c.c ****     /* Init tickstart for timeout management*/
1367:Drivers/STM32F0xx_HAL_Driver/Src/stm32f0xx_hal_i2c.c ****     tickstart = HAL_GetTick();
ARM GAS  C:\Users\mason\AppData\Local\Temp\ccsS7Myt.s 			page 46


 1205              		.loc 1 1367 17 is_stmt 1 discriminator 2
 1206 004e FFF7FEFF 		bl	HAL_GetTick
 1207 0052 0300     		movs	r3, r0
 1208 0054 7B61     		str	r3, [r7, #20]
1368:Drivers/STM32F0xx_HAL_Driver/Src/stm32f0xx_hal_i2c.c **** 
1369:Drivers/STM32F0xx_HAL_Driver/Src/stm32f0xx_hal_i2c.c ****     hi2c->State     = HAL_I2C_STATE_BUSY_TX;
 1209              		.loc 1 1369 21 discriminator 2
 1210 0056 FB68     		ldr	r3, [r7, #12]
 1211 0058 4122     		movs	r2, #65
 1212 005a 2121     		movs	r1, #33
 1213 005c 9954     		strb	r1, [r3, r2]
1370:Drivers/STM32F0xx_HAL_Driver/Src/stm32f0xx_hal_i2c.c ****     hi2c->Mode      = HAL_I2C_MODE_SLAVE;
 1214              		.loc 1 1370 21 discriminator 2
 1215 005e FB68     		ldr	r3, [r7, #12]
 1216 0060 4222     		movs	r2, #66
 1217 0062 2021     		movs	r1, #32
 1218 0064 9954     		strb	r1, [r3, r2]
1371:Drivers/STM32F0xx_HAL_Driver/Src/stm32f0xx_hal_i2c.c ****     hi2c->ErrorCode = HAL_I2C_ERROR_NONE;
 1219              		.loc 1 1371 21 discriminator 2
 1220 0066 FB68     		ldr	r3, [r7, #12]
 1221 0068 0022     		movs	r2, #0
 1222 006a 5A64     		str	r2, [r3, #68]
1372:Drivers/STM32F0xx_HAL_Driver/Src/stm32f0xx_hal_i2c.c **** 
1373:Drivers/STM32F0xx_HAL_Driver/Src/stm32f0xx_hal_i2c.c ****     /* Prepare transfer parameters */
1374:Drivers/STM32F0xx_HAL_Driver/Src/stm32f0xx_hal_i2c.c ****     hi2c->pBuffPtr  = pData;
 1223              		.loc 1 1374 21 discriminator 2
 1224 006c FB68     		ldr	r3, [r7, #12]
 1225 006e BA68     		ldr	r2, [r7, #8]
 1226 0070 5A62     		str	r2, [r3, #36]
1375:Drivers/STM32F0xx_HAL_Driver/Src/stm32f0xx_hal_i2c.c ****     hi2c->XferCount = Size;
 1227              		.loc 1 1375 21 discriminator 2
 1228 0072 FB68     		ldr	r3, [r7, #12]
 1229 0074 BA1D     		adds	r2, r7, #6
 1230 0076 1288     		ldrh	r2, [r2]
 1231 0078 5A85     		strh	r2, [r3, #42]
1376:Drivers/STM32F0xx_HAL_Driver/Src/stm32f0xx_hal_i2c.c ****     hi2c->XferISR   = NULL;
 1232              		.loc 1 1376 21 discriminator 2
 1233 007a FB68     		ldr	r3, [r7, #12]
 1234 007c 0022     		movs	r2, #0
 1235 007e 5A63     		str	r2, [r3, #52]
1377:Drivers/STM32F0xx_HAL_Driver/Src/stm32f0xx_hal_i2c.c **** 
1378:Drivers/STM32F0xx_HAL_Driver/Src/stm32f0xx_hal_i2c.c ****     /* Enable Address Acknowledge */
1379:Drivers/STM32F0xx_HAL_Driver/Src/stm32f0xx_hal_i2c.c ****     hi2c->Instance->CR2 &= ~I2C_CR2_NACK;
 1236              		.loc 1 1379 9 discriminator 2
 1237 0080 FB68     		ldr	r3, [r7, #12]
 1238 0082 1B68     		ldr	r3, [r3]
 1239              		.loc 1 1379 25 discriminator 2
 1240 0084 5A68     		ldr	r2, [r3, #4]
 1241              		.loc 1 1379 9 discriminator 2
 1242 0086 FB68     		ldr	r3, [r7, #12]
 1243 0088 1B68     		ldr	r3, [r3]
 1244              		.loc 1 1379 25 discriminator 2
 1245 008a 7E49     		ldr	r1, .L62
 1246 008c 0A40     		ands	r2, r1
 1247 008e 5A60     		str	r2, [r3, #4]
1380:Drivers/STM32F0xx_HAL_Driver/Src/stm32f0xx_hal_i2c.c **** 
1381:Drivers/STM32F0xx_HAL_Driver/Src/stm32f0xx_hal_i2c.c ****     /* Wait until ADDR flag is set */
ARM GAS  C:\Users\mason\AppData\Local\Temp\ccsS7Myt.s 			page 47


1382:Drivers/STM32F0xx_HAL_Driver/Src/stm32f0xx_hal_i2c.c ****     if (I2C_WaitOnFlagUntilTimeout(hi2c, I2C_FLAG_ADDR, RESET, Timeout, tickstart) != HAL_OK)
 1248              		.loc 1 1382 9 discriminator 2
 1249 0090 3A68     		ldr	r2, [r7]
 1250 0092 F868     		ldr	r0, [r7, #12]
 1251 0094 7B69     		ldr	r3, [r7, #20]
 1252 0096 0093     		str	r3, [sp]
 1253 0098 1300     		movs	r3, r2
 1254 009a 0022     		movs	r2, #0
 1255 009c 0821     		movs	r1, #8
 1256 009e FFF7FEFF 		bl	I2C_WaitOnFlagUntilTimeout
 1257 00a2 031E     		subs	r3, r0, #0
 1258              		.loc 1 1382 8 discriminator 2
 1259 00a4 0AD0     		beq	.L51
1383:Drivers/STM32F0xx_HAL_Driver/Src/stm32f0xx_hal_i2c.c ****     {
1384:Drivers/STM32F0xx_HAL_Driver/Src/stm32f0xx_hal_i2c.c ****       /* Disable Address Acknowledge */
1385:Drivers/STM32F0xx_HAL_Driver/Src/stm32f0xx_hal_i2c.c ****       hi2c->Instance->CR2 |= I2C_CR2_NACK;
 1260              		.loc 1 1385 11
 1261 00a6 FB68     		ldr	r3, [r7, #12]
 1262 00a8 1B68     		ldr	r3, [r3]
 1263              		.loc 1 1385 27
 1264 00aa 5A68     		ldr	r2, [r3, #4]
 1265              		.loc 1 1385 11
 1266 00ac FB68     		ldr	r3, [r7, #12]
 1267 00ae 1B68     		ldr	r3, [r3]
 1268              		.loc 1 1385 27
 1269 00b0 8021     		movs	r1, #128
 1270 00b2 0902     		lsls	r1, r1, #8
 1271 00b4 0A43     		orrs	r2, r1
 1272 00b6 5A60     		str	r2, [r3, #4]
1386:Drivers/STM32F0xx_HAL_Driver/Src/stm32f0xx_hal_i2c.c ****       return HAL_ERROR;
 1273              		.loc 1 1386 14
 1274 00b8 0123     		movs	r3, #1
 1275 00ba DEE0     		b	.L49
 1276              	.L51:
1387:Drivers/STM32F0xx_HAL_Driver/Src/stm32f0xx_hal_i2c.c ****     }
1388:Drivers/STM32F0xx_HAL_Driver/Src/stm32f0xx_hal_i2c.c **** 
1389:Drivers/STM32F0xx_HAL_Driver/Src/stm32f0xx_hal_i2c.c ****     /* Preload TX data if no stretch enable */
1390:Drivers/STM32F0xx_HAL_Driver/Src/stm32f0xx_hal_i2c.c ****     if (hi2c->Init.NoStretchMode == I2C_NOSTRETCH_ENABLE)
 1277              		.loc 1 1390 19
 1278 00bc FB68     		ldr	r3, [r7, #12]
 1279 00be 1A6A     		ldr	r2, [r3, #32]
 1280              		.loc 1 1390 8
 1281 00c0 8023     		movs	r3, #128
 1282 00c2 9B02     		lsls	r3, r3, #10
 1283 00c4 9A42     		cmp	r2, r3
 1284 00c6 11D1     		bne	.L52
1391:Drivers/STM32F0xx_HAL_Driver/Src/stm32f0xx_hal_i2c.c ****     {
1392:Drivers/STM32F0xx_HAL_Driver/Src/stm32f0xx_hal_i2c.c ****       /* Preload TX register */
1393:Drivers/STM32F0xx_HAL_Driver/Src/stm32f0xx_hal_i2c.c ****       /* Write data to TXDR */
1394:Drivers/STM32F0xx_HAL_Driver/Src/stm32f0xx_hal_i2c.c ****       hi2c->Instance->TXDR = *hi2c->pBuffPtr;
 1285              		.loc 1 1394 35
 1286 00c8 FB68     		ldr	r3, [r7, #12]
 1287 00ca 5B6A     		ldr	r3, [r3, #36]
 1288              		.loc 1 1394 30
 1289 00cc 1A78     		ldrb	r2, [r3]
 1290              		.loc 1 1394 11
 1291 00ce FB68     		ldr	r3, [r7, #12]
ARM GAS  C:\Users\mason\AppData\Local\Temp\ccsS7Myt.s 			page 48


 1292 00d0 1B68     		ldr	r3, [r3]
 1293              		.loc 1 1394 28
 1294 00d2 9A62     		str	r2, [r3, #40]
1395:Drivers/STM32F0xx_HAL_Driver/Src/stm32f0xx_hal_i2c.c **** 
1396:Drivers/STM32F0xx_HAL_Driver/Src/stm32f0xx_hal_i2c.c ****       /* Increment Buffer pointer */
1397:Drivers/STM32F0xx_HAL_Driver/Src/stm32f0xx_hal_i2c.c ****       hi2c->pBuffPtr++;
 1295              		.loc 1 1397 11
 1296 00d4 FB68     		ldr	r3, [r7, #12]
 1297 00d6 5B6A     		ldr	r3, [r3, #36]
 1298              		.loc 1 1397 21
 1299 00d8 5A1C     		adds	r2, r3, #1
 1300 00da FB68     		ldr	r3, [r7, #12]
 1301 00dc 5A62     		str	r2, [r3, #36]
1398:Drivers/STM32F0xx_HAL_Driver/Src/stm32f0xx_hal_i2c.c **** 
1399:Drivers/STM32F0xx_HAL_Driver/Src/stm32f0xx_hal_i2c.c ****       hi2c->XferCount--;
 1302              		.loc 1 1399 11
 1303 00de FB68     		ldr	r3, [r7, #12]
 1304 00e0 5B8D     		ldrh	r3, [r3, #42]
 1305 00e2 9BB2     		uxth	r3, r3
 1306              		.loc 1 1399 22
 1307 00e4 013B     		subs	r3, r3, #1
 1308 00e6 9AB2     		uxth	r2, r3
 1309 00e8 FB68     		ldr	r3, [r7, #12]
 1310 00ea 5A85     		strh	r2, [r3, #42]
 1311              	.L52:
1400:Drivers/STM32F0xx_HAL_Driver/Src/stm32f0xx_hal_i2c.c ****     }
1401:Drivers/STM32F0xx_HAL_Driver/Src/stm32f0xx_hal_i2c.c **** 
1402:Drivers/STM32F0xx_HAL_Driver/Src/stm32f0xx_hal_i2c.c ****     /* Clear ADDR flag */
1403:Drivers/STM32F0xx_HAL_Driver/Src/stm32f0xx_hal_i2c.c ****     __HAL_I2C_CLEAR_FLAG(hi2c, I2C_FLAG_ADDR);
 1312              		.loc 1 1403 5
 1313 00ec FB68     		ldr	r3, [r7, #12]
 1314 00ee 1B68     		ldr	r3, [r3]
 1315 00f0 0822     		movs	r2, #8
 1316 00f2 DA61     		str	r2, [r3, #28]
1404:Drivers/STM32F0xx_HAL_Driver/Src/stm32f0xx_hal_i2c.c **** 
1405:Drivers/STM32F0xx_HAL_Driver/Src/stm32f0xx_hal_i2c.c ****     /* If 10bit addressing mode is selected */
1406:Drivers/STM32F0xx_HAL_Driver/Src/stm32f0xx_hal_i2c.c ****     if (hi2c->Init.AddressingMode == I2C_ADDRESSINGMODE_10BIT)
 1317              		.loc 1 1406 19
 1318 00f4 FB68     		ldr	r3, [r7, #12]
 1319 00f6 DB68     		ldr	r3, [r3, #12]
 1320              		.loc 1 1406 8
 1321 00f8 022B     		cmp	r3, #2
 1322 00fa 19D1     		bne	.L53
1407:Drivers/STM32F0xx_HAL_Driver/Src/stm32f0xx_hal_i2c.c ****     {
1408:Drivers/STM32F0xx_HAL_Driver/Src/stm32f0xx_hal_i2c.c ****       /* Wait until ADDR flag is set */
1409:Drivers/STM32F0xx_HAL_Driver/Src/stm32f0xx_hal_i2c.c ****       if (I2C_WaitOnFlagUntilTimeout(hi2c, I2C_FLAG_ADDR, RESET, Timeout, tickstart) != HAL_OK)
 1323              		.loc 1 1409 11
 1324 00fc 3A68     		ldr	r2, [r7]
 1325 00fe F868     		ldr	r0, [r7, #12]
 1326 0100 7B69     		ldr	r3, [r7, #20]
 1327 0102 0093     		str	r3, [sp]
 1328 0104 1300     		movs	r3, r2
 1329 0106 0022     		movs	r2, #0
 1330 0108 0821     		movs	r1, #8
 1331 010a FFF7FEFF 		bl	I2C_WaitOnFlagUntilTimeout
 1332 010e 031E     		subs	r3, r0, #0
 1333              		.loc 1 1409 10
ARM GAS  C:\Users\mason\AppData\Local\Temp\ccsS7Myt.s 			page 49


 1334 0110 0AD0     		beq	.L54
1410:Drivers/STM32F0xx_HAL_Driver/Src/stm32f0xx_hal_i2c.c ****       {
1411:Drivers/STM32F0xx_HAL_Driver/Src/stm32f0xx_hal_i2c.c ****         /* Disable Address Acknowledge */
1412:Drivers/STM32F0xx_HAL_Driver/Src/stm32f0xx_hal_i2c.c ****         hi2c->Instance->CR2 |= I2C_CR2_NACK;
 1335              		.loc 1 1412 13
 1336 0112 FB68     		ldr	r3, [r7, #12]
 1337 0114 1B68     		ldr	r3, [r3]
 1338              		.loc 1 1412 29
 1339 0116 5A68     		ldr	r2, [r3, #4]
 1340              		.loc 1 1412 13
 1341 0118 FB68     		ldr	r3, [r7, #12]
 1342 011a 1B68     		ldr	r3, [r3]
 1343              		.loc 1 1412 29
 1344 011c 8021     		movs	r1, #128
 1345 011e 0902     		lsls	r1, r1, #8
 1346 0120 0A43     		orrs	r2, r1
 1347 0122 5A60     		str	r2, [r3, #4]
1413:Drivers/STM32F0xx_HAL_Driver/Src/stm32f0xx_hal_i2c.c ****         return HAL_ERROR;
 1348              		.loc 1 1413 16
 1349 0124 0123     		movs	r3, #1
 1350 0126 A8E0     		b	.L49
 1351              	.L54:
1414:Drivers/STM32F0xx_HAL_Driver/Src/stm32f0xx_hal_i2c.c ****       }
1415:Drivers/STM32F0xx_HAL_Driver/Src/stm32f0xx_hal_i2c.c **** 
1416:Drivers/STM32F0xx_HAL_Driver/Src/stm32f0xx_hal_i2c.c ****       /* Clear ADDR flag */
1417:Drivers/STM32F0xx_HAL_Driver/Src/stm32f0xx_hal_i2c.c ****       __HAL_I2C_CLEAR_FLAG(hi2c, I2C_FLAG_ADDR);
 1352              		.loc 1 1417 7
 1353 0128 FB68     		ldr	r3, [r7, #12]
 1354 012a 1B68     		ldr	r3, [r3]
 1355 012c 0822     		movs	r2, #8
 1356 012e DA61     		str	r2, [r3, #28]
 1357              	.L53:
1418:Drivers/STM32F0xx_HAL_Driver/Src/stm32f0xx_hal_i2c.c ****     }
1419:Drivers/STM32F0xx_HAL_Driver/Src/stm32f0xx_hal_i2c.c **** 
1420:Drivers/STM32F0xx_HAL_Driver/Src/stm32f0xx_hal_i2c.c ****     /* Wait until DIR flag is set Transmitter mode */
1421:Drivers/STM32F0xx_HAL_Driver/Src/stm32f0xx_hal_i2c.c ****     if (I2C_WaitOnFlagUntilTimeout(hi2c, I2C_FLAG_DIR, RESET, Timeout, tickstart) != HAL_OK)
 1358              		.loc 1 1421 9
 1359 0130 3A68     		ldr	r2, [r7]
 1360 0132 8023     		movs	r3, #128
 1361 0134 5902     		lsls	r1, r3, #9
 1362 0136 F868     		ldr	r0, [r7, #12]
 1363 0138 7B69     		ldr	r3, [r7, #20]
 1364 013a 0093     		str	r3, [sp]
 1365 013c 1300     		movs	r3, r2
 1366 013e 0022     		movs	r2, #0
 1367 0140 FFF7FEFF 		bl	I2C_WaitOnFlagUntilTimeout
 1368 0144 031E     		subs	r3, r0, #0
 1369              		.loc 1 1421 8
 1370 0146 2FD0     		beq	.L56
1422:Drivers/STM32F0xx_HAL_Driver/Src/stm32f0xx_hal_i2c.c ****     {
1423:Drivers/STM32F0xx_HAL_Driver/Src/stm32f0xx_hal_i2c.c ****       /* Disable Address Acknowledge */
1424:Drivers/STM32F0xx_HAL_Driver/Src/stm32f0xx_hal_i2c.c ****       hi2c->Instance->CR2 |= I2C_CR2_NACK;
 1371              		.loc 1 1424 11
 1372 0148 FB68     		ldr	r3, [r7, #12]
 1373 014a 1B68     		ldr	r3, [r3]
 1374              		.loc 1 1424 27
 1375 014c 5A68     		ldr	r2, [r3, #4]
ARM GAS  C:\Users\mason\AppData\Local\Temp\ccsS7Myt.s 			page 50


 1376              		.loc 1 1424 11
 1377 014e FB68     		ldr	r3, [r7, #12]
 1378 0150 1B68     		ldr	r3, [r3]
 1379              		.loc 1 1424 27
 1380 0152 8021     		movs	r1, #128
 1381 0154 0902     		lsls	r1, r1, #8
 1382 0156 0A43     		orrs	r2, r1
 1383 0158 5A60     		str	r2, [r3, #4]
1425:Drivers/STM32F0xx_HAL_Driver/Src/stm32f0xx_hal_i2c.c ****       return HAL_ERROR;
 1384              		.loc 1 1425 14
 1385 015a 0123     		movs	r3, #1
 1386 015c 8DE0     		b	.L49
 1387              	.L58:
1426:Drivers/STM32F0xx_HAL_Driver/Src/stm32f0xx_hal_i2c.c ****     }
1427:Drivers/STM32F0xx_HAL_Driver/Src/stm32f0xx_hal_i2c.c **** 
1428:Drivers/STM32F0xx_HAL_Driver/Src/stm32f0xx_hal_i2c.c ****     while (hi2c->XferCount > 0U)
1429:Drivers/STM32F0xx_HAL_Driver/Src/stm32f0xx_hal_i2c.c ****     {
1430:Drivers/STM32F0xx_HAL_Driver/Src/stm32f0xx_hal_i2c.c ****       /* Wait until TXIS flag is set */
1431:Drivers/STM32F0xx_HAL_Driver/Src/stm32f0xx_hal_i2c.c ****       if (I2C_WaitOnTXISFlagUntilTimeout(hi2c, Timeout, tickstart) != HAL_OK)
 1388              		.loc 1 1431 11
 1389 015e 7A69     		ldr	r2, [r7, #20]
 1390 0160 3968     		ldr	r1, [r7]
 1391 0162 FB68     		ldr	r3, [r7, #12]
 1392 0164 1800     		movs	r0, r3
 1393 0166 FFF7FEFF 		bl	I2C_WaitOnTXISFlagUntilTimeout
 1394 016a 031E     		subs	r3, r0, #0
 1395              		.loc 1 1431 10
 1396 016c 0AD0     		beq	.L57
1432:Drivers/STM32F0xx_HAL_Driver/Src/stm32f0xx_hal_i2c.c ****       {
1433:Drivers/STM32F0xx_HAL_Driver/Src/stm32f0xx_hal_i2c.c ****         /* Disable Address Acknowledge */
1434:Drivers/STM32F0xx_HAL_Driver/Src/stm32f0xx_hal_i2c.c ****         hi2c->Instance->CR2 |= I2C_CR2_NACK;
 1397              		.loc 1 1434 13
 1398 016e FB68     		ldr	r3, [r7, #12]
 1399 0170 1B68     		ldr	r3, [r3]
 1400              		.loc 1 1434 29
 1401 0172 5A68     		ldr	r2, [r3, #4]
 1402              		.loc 1 1434 13
 1403 0174 FB68     		ldr	r3, [r7, #12]
 1404 0176 1B68     		ldr	r3, [r3]
 1405              		.loc 1 1434 29
 1406 0178 8021     		movs	r1, #128
 1407 017a 0902     		lsls	r1, r1, #8
 1408 017c 0A43     		orrs	r2, r1
 1409 017e 5A60     		str	r2, [r3, #4]
1435:Drivers/STM32F0xx_HAL_Driver/Src/stm32f0xx_hal_i2c.c ****         return HAL_ERROR;
 1410              		.loc 1 1435 16
 1411 0180 0123     		movs	r3, #1
 1412 0182 7AE0     		b	.L49
 1413              	.L57:
1436:Drivers/STM32F0xx_HAL_Driver/Src/stm32f0xx_hal_i2c.c ****       }
1437:Drivers/STM32F0xx_HAL_Driver/Src/stm32f0xx_hal_i2c.c **** 
1438:Drivers/STM32F0xx_HAL_Driver/Src/stm32f0xx_hal_i2c.c ****       /* Write data to TXDR */
1439:Drivers/STM32F0xx_HAL_Driver/Src/stm32f0xx_hal_i2c.c ****       hi2c->Instance->TXDR = *hi2c->pBuffPtr;
 1414              		.loc 1 1439 35
 1415 0184 FB68     		ldr	r3, [r7, #12]
 1416 0186 5B6A     		ldr	r3, [r3, #36]
 1417              		.loc 1 1439 30
ARM GAS  C:\Users\mason\AppData\Local\Temp\ccsS7Myt.s 			page 51


 1418 0188 1A78     		ldrb	r2, [r3]
 1419              		.loc 1 1439 11
 1420 018a FB68     		ldr	r3, [r7, #12]
 1421 018c 1B68     		ldr	r3, [r3]
 1422              		.loc 1 1439 28
 1423 018e 9A62     		str	r2, [r3, #40]
1440:Drivers/STM32F0xx_HAL_Driver/Src/stm32f0xx_hal_i2c.c **** 
1441:Drivers/STM32F0xx_HAL_Driver/Src/stm32f0xx_hal_i2c.c ****       /* Increment Buffer pointer */
1442:Drivers/STM32F0xx_HAL_Driver/Src/stm32f0xx_hal_i2c.c ****       hi2c->pBuffPtr++;
 1424              		.loc 1 1442 11
 1425 0190 FB68     		ldr	r3, [r7, #12]
 1426 0192 5B6A     		ldr	r3, [r3, #36]
 1427              		.loc 1 1442 21
 1428 0194 5A1C     		adds	r2, r3, #1
 1429 0196 FB68     		ldr	r3, [r7, #12]
 1430 0198 5A62     		str	r2, [r3, #36]
1443:Drivers/STM32F0xx_HAL_Driver/Src/stm32f0xx_hal_i2c.c **** 
1444:Drivers/STM32F0xx_HAL_Driver/Src/stm32f0xx_hal_i2c.c ****       hi2c->XferCount--;
 1431              		.loc 1 1444 11
 1432 019a FB68     		ldr	r3, [r7, #12]
 1433 019c 5B8D     		ldrh	r3, [r3, #42]
 1434 019e 9BB2     		uxth	r3, r3
 1435              		.loc 1 1444 22
 1436 01a0 013B     		subs	r3, r3, #1
 1437 01a2 9AB2     		uxth	r2, r3
 1438 01a4 FB68     		ldr	r3, [r7, #12]
 1439 01a6 5A85     		strh	r2, [r3, #42]
 1440              	.L56:
1428:Drivers/STM32F0xx_HAL_Driver/Src/stm32f0xx_hal_i2c.c ****     {
 1441              		.loc 1 1428 16
 1442 01a8 FB68     		ldr	r3, [r7, #12]
 1443 01aa 5B8D     		ldrh	r3, [r3, #42]
 1444 01ac 9BB2     		uxth	r3, r3
1428:Drivers/STM32F0xx_HAL_Driver/Src/stm32f0xx_hal_i2c.c ****     {
 1445              		.loc 1 1428 11
 1446 01ae 002B     		cmp	r3, #0
 1447 01b0 D5D1     		bne	.L58
1445:Drivers/STM32F0xx_HAL_Driver/Src/stm32f0xx_hal_i2c.c ****     }
1446:Drivers/STM32F0xx_HAL_Driver/Src/stm32f0xx_hal_i2c.c **** 
1447:Drivers/STM32F0xx_HAL_Driver/Src/stm32f0xx_hal_i2c.c ****     /* Wait until AF flag is set */
1448:Drivers/STM32F0xx_HAL_Driver/Src/stm32f0xx_hal_i2c.c ****     if (I2C_WaitOnFlagUntilTimeout(hi2c, I2C_FLAG_AF, RESET, Timeout, tickstart) != HAL_OK)
 1448              		.loc 1 1448 9
 1449 01b2 3A68     		ldr	r2, [r7]
 1450 01b4 F868     		ldr	r0, [r7, #12]
 1451 01b6 7B69     		ldr	r3, [r7, #20]
 1452 01b8 0093     		str	r3, [sp]
 1453 01ba 1300     		movs	r3, r2
 1454 01bc 0022     		movs	r2, #0
 1455 01be 1021     		movs	r1, #16
 1456 01c0 FFF7FEFF 		bl	I2C_WaitOnFlagUntilTimeout
 1457 01c4 031E     		subs	r3, r0, #0
 1458              		.loc 1 1448 8
 1459 01c6 0AD0     		beq	.L59
1449:Drivers/STM32F0xx_HAL_Driver/Src/stm32f0xx_hal_i2c.c ****     {
1450:Drivers/STM32F0xx_HAL_Driver/Src/stm32f0xx_hal_i2c.c ****       /* Disable Address Acknowledge */
1451:Drivers/STM32F0xx_HAL_Driver/Src/stm32f0xx_hal_i2c.c ****       hi2c->Instance->CR2 |= I2C_CR2_NACK;
 1460              		.loc 1 1451 11
ARM GAS  C:\Users\mason\AppData\Local\Temp\ccsS7Myt.s 			page 52


 1461 01c8 FB68     		ldr	r3, [r7, #12]
 1462 01ca 1B68     		ldr	r3, [r3]
 1463              		.loc 1 1451 27
 1464 01cc 5A68     		ldr	r2, [r3, #4]
 1465              		.loc 1 1451 11
 1466 01ce FB68     		ldr	r3, [r7, #12]
 1467 01d0 1B68     		ldr	r3, [r3]
 1468              		.loc 1 1451 27
 1469 01d2 8021     		movs	r1, #128
 1470 01d4 0902     		lsls	r1, r1, #8
 1471 01d6 0A43     		orrs	r2, r1
 1472 01d8 5A60     		str	r2, [r3, #4]
1452:Drivers/STM32F0xx_HAL_Driver/Src/stm32f0xx_hal_i2c.c ****       return HAL_ERROR;
 1473              		.loc 1 1452 14
 1474 01da 0123     		movs	r3, #1
 1475 01dc 4DE0     		b	.L49
 1476              	.L59:
1453:Drivers/STM32F0xx_HAL_Driver/Src/stm32f0xx_hal_i2c.c ****     }
1454:Drivers/STM32F0xx_HAL_Driver/Src/stm32f0xx_hal_i2c.c **** 
1455:Drivers/STM32F0xx_HAL_Driver/Src/stm32f0xx_hal_i2c.c ****     /* Flush TX register */
1456:Drivers/STM32F0xx_HAL_Driver/Src/stm32f0xx_hal_i2c.c ****     I2C_Flush_TXDR(hi2c);
 1477              		.loc 1 1456 5
 1478 01de FB68     		ldr	r3, [r7, #12]
 1479 01e0 1800     		movs	r0, r3
 1480 01e2 FFF7FEFF 		bl	I2C_Flush_TXDR
1457:Drivers/STM32F0xx_HAL_Driver/Src/stm32f0xx_hal_i2c.c **** 
1458:Drivers/STM32F0xx_HAL_Driver/Src/stm32f0xx_hal_i2c.c ****     /* Clear AF flag */
1459:Drivers/STM32F0xx_HAL_Driver/Src/stm32f0xx_hal_i2c.c ****     __HAL_I2C_CLEAR_FLAG(hi2c, I2C_FLAG_AF);
 1481              		.loc 1 1459 5
 1482 01e6 FB68     		ldr	r3, [r7, #12]
 1483 01e8 1B68     		ldr	r3, [r3]
 1484 01ea 1022     		movs	r2, #16
 1485 01ec DA61     		str	r2, [r3, #28]
1460:Drivers/STM32F0xx_HAL_Driver/Src/stm32f0xx_hal_i2c.c **** 
1461:Drivers/STM32F0xx_HAL_Driver/Src/stm32f0xx_hal_i2c.c ****     /* Wait until STOP flag is set */
1462:Drivers/STM32F0xx_HAL_Driver/Src/stm32f0xx_hal_i2c.c ****     if (I2C_WaitOnSTOPFlagUntilTimeout(hi2c, Timeout, tickstart) != HAL_OK)
 1486              		.loc 1 1462 9
 1487 01ee 7A69     		ldr	r2, [r7, #20]
 1488 01f0 3968     		ldr	r1, [r7]
 1489 01f2 FB68     		ldr	r3, [r7, #12]
 1490 01f4 1800     		movs	r0, r3
 1491 01f6 FFF7FEFF 		bl	I2C_WaitOnSTOPFlagUntilTimeout
 1492 01fa 031E     		subs	r3, r0, #0
 1493              		.loc 1 1462 8
 1494 01fc 0AD0     		beq	.L60
1463:Drivers/STM32F0xx_HAL_Driver/Src/stm32f0xx_hal_i2c.c ****     {
1464:Drivers/STM32F0xx_HAL_Driver/Src/stm32f0xx_hal_i2c.c ****       /* Disable Address Acknowledge */
1465:Drivers/STM32F0xx_HAL_Driver/Src/stm32f0xx_hal_i2c.c ****       hi2c->Instance->CR2 |= I2C_CR2_NACK;
 1495              		.loc 1 1465 11
 1496 01fe FB68     		ldr	r3, [r7, #12]
 1497 0200 1B68     		ldr	r3, [r3]
 1498              		.loc 1 1465 27
 1499 0202 5A68     		ldr	r2, [r3, #4]
 1500              		.loc 1 1465 11
 1501 0204 FB68     		ldr	r3, [r7, #12]
 1502 0206 1B68     		ldr	r3, [r3]
 1503              		.loc 1 1465 27
ARM GAS  C:\Users\mason\AppData\Local\Temp\ccsS7Myt.s 			page 53


 1504 0208 8021     		movs	r1, #128
 1505 020a 0902     		lsls	r1, r1, #8
 1506 020c 0A43     		orrs	r2, r1
 1507 020e 5A60     		str	r2, [r3, #4]
1466:Drivers/STM32F0xx_HAL_Driver/Src/stm32f0xx_hal_i2c.c **** 
1467:Drivers/STM32F0xx_HAL_Driver/Src/stm32f0xx_hal_i2c.c ****       return HAL_ERROR;
 1508              		.loc 1 1467 14
 1509 0210 0123     		movs	r3, #1
 1510 0212 32E0     		b	.L49
 1511              	.L60:
1468:Drivers/STM32F0xx_HAL_Driver/Src/stm32f0xx_hal_i2c.c ****     }
1469:Drivers/STM32F0xx_HAL_Driver/Src/stm32f0xx_hal_i2c.c **** 
1470:Drivers/STM32F0xx_HAL_Driver/Src/stm32f0xx_hal_i2c.c ****     /* Clear STOP flag */
1471:Drivers/STM32F0xx_HAL_Driver/Src/stm32f0xx_hal_i2c.c ****     __HAL_I2C_CLEAR_FLAG(hi2c, I2C_FLAG_STOPF);
 1512              		.loc 1 1471 5
 1513 0214 FB68     		ldr	r3, [r7, #12]
 1514 0216 1B68     		ldr	r3, [r3]
 1515 0218 2022     		movs	r2, #32
 1516 021a DA61     		str	r2, [r3, #28]
1472:Drivers/STM32F0xx_HAL_Driver/Src/stm32f0xx_hal_i2c.c **** 
1473:Drivers/STM32F0xx_HAL_Driver/Src/stm32f0xx_hal_i2c.c ****     /* Wait until BUSY flag is reset */
1474:Drivers/STM32F0xx_HAL_Driver/Src/stm32f0xx_hal_i2c.c ****     if (I2C_WaitOnFlagUntilTimeout(hi2c, I2C_FLAG_BUSY, SET, Timeout, tickstart) != HAL_OK)
 1517              		.loc 1 1474 9
 1518 021c 3A68     		ldr	r2, [r7]
 1519 021e 8023     		movs	r3, #128
 1520 0220 1902     		lsls	r1, r3, #8
 1521 0222 F868     		ldr	r0, [r7, #12]
 1522 0224 7B69     		ldr	r3, [r7, #20]
 1523 0226 0093     		str	r3, [sp]
 1524 0228 1300     		movs	r3, r2
 1525 022a 0122     		movs	r2, #1
 1526 022c FFF7FEFF 		bl	I2C_WaitOnFlagUntilTimeout
 1527 0230 031E     		subs	r3, r0, #0
 1528              		.loc 1 1474 8
 1529 0232 0AD0     		beq	.L61
1475:Drivers/STM32F0xx_HAL_Driver/Src/stm32f0xx_hal_i2c.c ****     {
1476:Drivers/STM32F0xx_HAL_Driver/Src/stm32f0xx_hal_i2c.c ****       /* Disable Address Acknowledge */
1477:Drivers/STM32F0xx_HAL_Driver/Src/stm32f0xx_hal_i2c.c ****       hi2c->Instance->CR2 |= I2C_CR2_NACK;
 1530              		.loc 1 1477 11
 1531 0234 FB68     		ldr	r3, [r7, #12]
 1532 0236 1B68     		ldr	r3, [r3]
 1533              		.loc 1 1477 27
 1534 0238 5A68     		ldr	r2, [r3, #4]
 1535              		.loc 1 1477 11
 1536 023a FB68     		ldr	r3, [r7, #12]
 1537 023c 1B68     		ldr	r3, [r3]
 1538              		.loc 1 1477 27
 1539 023e 8021     		movs	r1, #128
 1540 0240 0902     		lsls	r1, r1, #8
 1541 0242 0A43     		orrs	r2, r1
 1542 0244 5A60     		str	r2, [r3, #4]
1478:Drivers/STM32F0xx_HAL_Driver/Src/stm32f0xx_hal_i2c.c ****       return HAL_ERROR;
 1543              		.loc 1 1478 14
 1544 0246 0123     		movs	r3, #1
 1545 0248 17E0     		b	.L49
 1546              	.L61:
1479:Drivers/STM32F0xx_HAL_Driver/Src/stm32f0xx_hal_i2c.c ****     }
ARM GAS  C:\Users\mason\AppData\Local\Temp\ccsS7Myt.s 			page 54


1480:Drivers/STM32F0xx_HAL_Driver/Src/stm32f0xx_hal_i2c.c **** 
1481:Drivers/STM32F0xx_HAL_Driver/Src/stm32f0xx_hal_i2c.c ****     /* Disable Address Acknowledge */
1482:Drivers/STM32F0xx_HAL_Driver/Src/stm32f0xx_hal_i2c.c ****     hi2c->Instance->CR2 |= I2C_CR2_NACK;
 1547              		.loc 1 1482 9
 1548 024a FB68     		ldr	r3, [r7, #12]
 1549 024c 1B68     		ldr	r3, [r3]
 1550              		.loc 1 1482 25
 1551 024e 5A68     		ldr	r2, [r3, #4]
 1552              		.loc 1 1482 9
 1553 0250 FB68     		ldr	r3, [r7, #12]
 1554 0252 1B68     		ldr	r3, [r3]
 1555              		.loc 1 1482 25
 1556 0254 8021     		movs	r1, #128
 1557 0256 0902     		lsls	r1, r1, #8
 1558 0258 0A43     		orrs	r2, r1
 1559 025a 5A60     		str	r2, [r3, #4]
1483:Drivers/STM32F0xx_HAL_Driver/Src/stm32f0xx_hal_i2c.c **** 
1484:Drivers/STM32F0xx_HAL_Driver/Src/stm32f0xx_hal_i2c.c ****     hi2c->State = HAL_I2C_STATE_READY;
 1560              		.loc 1 1484 17
 1561 025c FB68     		ldr	r3, [r7, #12]
 1562 025e 4122     		movs	r2, #65
 1563 0260 2021     		movs	r1, #32
 1564 0262 9954     		strb	r1, [r3, r2]
1485:Drivers/STM32F0xx_HAL_Driver/Src/stm32f0xx_hal_i2c.c ****     hi2c->Mode  = HAL_I2C_MODE_NONE;
 1565              		.loc 1 1485 17
 1566 0264 FB68     		ldr	r3, [r7, #12]
 1567 0266 4222     		movs	r2, #66
 1568 0268 0021     		movs	r1, #0
 1569 026a 9954     		strb	r1, [r3, r2]
1486:Drivers/STM32F0xx_HAL_Driver/Src/stm32f0xx_hal_i2c.c **** 
1487:Drivers/STM32F0xx_HAL_Driver/Src/stm32f0xx_hal_i2c.c ****     /* Process Unlocked */
1488:Drivers/STM32F0xx_HAL_Driver/Src/stm32f0xx_hal_i2c.c ****     __HAL_UNLOCK(hi2c);
 1570              		.loc 1 1488 5
 1571 026c FB68     		ldr	r3, [r7, #12]
 1572 026e 4022     		movs	r2, #64
 1573 0270 0021     		movs	r1, #0
 1574 0272 9954     		strb	r1, [r3, r2]
1489:Drivers/STM32F0xx_HAL_Driver/Src/stm32f0xx_hal_i2c.c **** 
1490:Drivers/STM32F0xx_HAL_Driver/Src/stm32f0xx_hal_i2c.c ****     return HAL_OK;
 1575              		.loc 1 1490 12
 1576 0274 0023     		movs	r3, #0
 1577 0276 00E0     		b	.L49
 1578              	.L46:
1491:Drivers/STM32F0xx_HAL_Driver/Src/stm32f0xx_hal_i2c.c ****   }
1492:Drivers/STM32F0xx_HAL_Driver/Src/stm32f0xx_hal_i2c.c ****   else
1493:Drivers/STM32F0xx_HAL_Driver/Src/stm32f0xx_hal_i2c.c ****   {
1494:Drivers/STM32F0xx_HAL_Driver/Src/stm32f0xx_hal_i2c.c ****     return HAL_BUSY;
 1579              		.loc 1 1494 12
 1580 0278 0223     		movs	r3, #2
 1581              	.L49:
1495:Drivers/STM32F0xx_HAL_Driver/Src/stm32f0xx_hal_i2c.c ****   }
1496:Drivers/STM32F0xx_HAL_Driver/Src/stm32f0xx_hal_i2c.c **** }
 1582              		.loc 1 1496 1
 1583 027a 1800     		movs	r0, r3
 1584 027c BD46     		mov	sp, r7
 1585 027e 06B0     		add	sp, sp, #24
 1586              		@ sp needed
ARM GAS  C:\Users\mason\AppData\Local\Temp\ccsS7Myt.s 			page 55


 1587 0280 80BD     		pop	{r7, pc}
 1588              	.L63:
 1589 0282 C046     		.align	2
 1590              	.L62:
 1591 0284 FF7FFFFF 		.word	-32769
 1592              		.cfi_endproc
 1593              	.LFE46:
 1595              		.section	.text.HAL_I2C_Slave_Receive,"ax",%progbits
 1596              		.align	1
 1597              		.global	HAL_I2C_Slave_Receive
 1598              		.syntax unified
 1599              		.code	16
 1600              		.thumb_func
 1602              	HAL_I2C_Slave_Receive:
 1603              	.LFB47:
1497:Drivers/STM32F0xx_HAL_Driver/Src/stm32f0xx_hal_i2c.c **** 
1498:Drivers/STM32F0xx_HAL_Driver/Src/stm32f0xx_hal_i2c.c **** /**
1499:Drivers/STM32F0xx_HAL_Driver/Src/stm32f0xx_hal_i2c.c ****   * @brief  Receive in slave mode an amount of data in blocking mode
1500:Drivers/STM32F0xx_HAL_Driver/Src/stm32f0xx_hal_i2c.c ****   * @param  hi2c Pointer to a I2C_HandleTypeDef structure that contains
1501:Drivers/STM32F0xx_HAL_Driver/Src/stm32f0xx_hal_i2c.c ****   *                the configuration information for the specified I2C.
1502:Drivers/STM32F0xx_HAL_Driver/Src/stm32f0xx_hal_i2c.c ****   * @param  pData Pointer to data buffer
1503:Drivers/STM32F0xx_HAL_Driver/Src/stm32f0xx_hal_i2c.c ****   * @param  Size Amount of data to be sent
1504:Drivers/STM32F0xx_HAL_Driver/Src/stm32f0xx_hal_i2c.c ****   * @param  Timeout Timeout duration
1505:Drivers/STM32F0xx_HAL_Driver/Src/stm32f0xx_hal_i2c.c ****   * @retval HAL status
1506:Drivers/STM32F0xx_HAL_Driver/Src/stm32f0xx_hal_i2c.c ****   */
1507:Drivers/STM32F0xx_HAL_Driver/Src/stm32f0xx_hal_i2c.c **** HAL_StatusTypeDef HAL_I2C_Slave_Receive(I2C_HandleTypeDef *hi2c, uint8_t *pData, uint16_t Size,
1508:Drivers/STM32F0xx_HAL_Driver/Src/stm32f0xx_hal_i2c.c ****                                         uint32_t Timeout)
1509:Drivers/STM32F0xx_HAL_Driver/Src/stm32f0xx_hal_i2c.c **** {
 1604              		.loc 1 1509 1
 1605              		.cfi_startproc
 1606              		@ args = 0, pretend = 0, frame = 24
 1607              		@ frame_needed = 1, uses_anonymous_args = 0
 1608 0000 80B5     		push	{r7, lr}
 1609              	.LCFI21:
 1610              		.cfi_def_cfa_offset 8
 1611              		.cfi_offset 7, -8
 1612              		.cfi_offset 14, -4
 1613 0002 88B0     		sub	sp, sp, #32
 1614              	.LCFI22:
 1615              		.cfi_def_cfa_offset 40
 1616 0004 02AF     		add	r7, sp, #8
 1617              	.LCFI23:
 1618              		.cfi_def_cfa 7, 32
 1619 0006 F860     		str	r0, [r7, #12]
 1620 0008 B960     		str	r1, [r7, #8]
 1621 000a 3B60     		str	r3, [r7]
 1622 000c BB1D     		adds	r3, r7, #6
 1623 000e 1A80     		strh	r2, [r3]
1510:Drivers/STM32F0xx_HAL_Driver/Src/stm32f0xx_hal_i2c.c ****   uint32_t tickstart;
1511:Drivers/STM32F0xx_HAL_Driver/Src/stm32f0xx_hal_i2c.c **** 
1512:Drivers/STM32F0xx_HAL_Driver/Src/stm32f0xx_hal_i2c.c ****   if (hi2c->State == HAL_I2C_STATE_READY)
 1624              		.loc 1 1512 11
 1625 0010 FB68     		ldr	r3, [r7, #12]
 1626 0012 4122     		movs	r2, #65
 1627 0014 9B5C     		ldrb	r3, [r3, r2]
 1628 0016 DBB2     		uxtb	r3, r3
 1629              		.loc 1 1512 6
ARM GAS  C:\Users\mason\AppData\Local\Temp\ccsS7Myt.s 			page 56


 1630 0018 202B     		cmp	r3, #32
 1631 001a 00D0     		beq	.LCB1341
 1632 001c 04E1     		b	.L65	@long jump
 1633              	.LCB1341:
1513:Drivers/STM32F0xx_HAL_Driver/Src/stm32f0xx_hal_i2c.c ****   {
1514:Drivers/STM32F0xx_HAL_Driver/Src/stm32f0xx_hal_i2c.c ****     if ((pData == NULL) || (Size == 0U))
 1634              		.loc 1 1514 8
 1635 001e BB68     		ldr	r3, [r7, #8]
 1636 0020 002B     		cmp	r3, #0
 1637 0022 03D0     		beq	.L66
 1638              		.loc 1 1514 25 discriminator 1
 1639 0024 BB1D     		adds	r3, r7, #6
 1640 0026 1B88     		ldrh	r3, [r3]
 1641 0028 002B     		cmp	r3, #0
 1642 002a 05D1     		bne	.L67
 1643              	.L66:
1515:Drivers/STM32F0xx_HAL_Driver/Src/stm32f0xx_hal_i2c.c ****     {
1516:Drivers/STM32F0xx_HAL_Driver/Src/stm32f0xx_hal_i2c.c ****       hi2c->ErrorCode = HAL_I2C_ERROR_INVALID_PARAM;
 1644              		.loc 1 1516 23
 1645 002c FB68     		ldr	r3, [r7, #12]
 1646 002e 8022     		movs	r2, #128
 1647 0030 9200     		lsls	r2, r2, #2
 1648 0032 5A64     		str	r2, [r3, #68]
1517:Drivers/STM32F0xx_HAL_Driver/Src/stm32f0xx_hal_i2c.c ****       return  HAL_ERROR;
 1649              		.loc 1 1517 15
 1650 0034 0123     		movs	r3, #1
 1651 0036 F8E0     		b	.L68
 1652              	.L67:
1518:Drivers/STM32F0xx_HAL_Driver/Src/stm32f0xx_hal_i2c.c ****     }
1519:Drivers/STM32F0xx_HAL_Driver/Src/stm32f0xx_hal_i2c.c ****     /* Process Locked */
1520:Drivers/STM32F0xx_HAL_Driver/Src/stm32f0xx_hal_i2c.c ****     __HAL_LOCK(hi2c);
 1653              		.loc 1 1520 5
 1654 0038 FB68     		ldr	r3, [r7, #12]
 1655 003a 4022     		movs	r2, #64
 1656 003c 9B5C     		ldrb	r3, [r3, r2]
 1657 003e 012B     		cmp	r3, #1
 1658 0040 01D1     		bne	.L69
 1659              		.loc 1 1520 5 is_stmt 0 discriminator 1
 1660 0042 0223     		movs	r3, #2
 1661 0044 F1E0     		b	.L68
 1662              	.L69:
 1663              		.loc 1 1520 5 discriminator 2
 1664 0046 FB68     		ldr	r3, [r7, #12]
 1665 0048 4022     		movs	r2, #64
 1666 004a 0121     		movs	r1, #1
 1667 004c 9954     		strb	r1, [r3, r2]
1521:Drivers/STM32F0xx_HAL_Driver/Src/stm32f0xx_hal_i2c.c **** 
1522:Drivers/STM32F0xx_HAL_Driver/Src/stm32f0xx_hal_i2c.c ****     /* Init tickstart for timeout management*/
1523:Drivers/STM32F0xx_HAL_Driver/Src/stm32f0xx_hal_i2c.c ****     tickstart = HAL_GetTick();
 1668              		.loc 1 1523 17 is_stmt 1 discriminator 2
 1669 004e FFF7FEFF 		bl	HAL_GetTick
 1670 0052 0300     		movs	r3, r0
 1671 0054 7B61     		str	r3, [r7, #20]
1524:Drivers/STM32F0xx_HAL_Driver/Src/stm32f0xx_hal_i2c.c **** 
1525:Drivers/STM32F0xx_HAL_Driver/Src/stm32f0xx_hal_i2c.c ****     hi2c->State     = HAL_I2C_STATE_BUSY_RX;
 1672              		.loc 1 1525 21 discriminator 2
 1673 0056 FB68     		ldr	r3, [r7, #12]
ARM GAS  C:\Users\mason\AppData\Local\Temp\ccsS7Myt.s 			page 57


 1674 0058 4122     		movs	r2, #65
 1675 005a 2221     		movs	r1, #34
 1676 005c 9954     		strb	r1, [r3, r2]
1526:Drivers/STM32F0xx_HAL_Driver/Src/stm32f0xx_hal_i2c.c ****     hi2c->Mode      = HAL_I2C_MODE_SLAVE;
 1677              		.loc 1 1526 21 discriminator 2
 1678 005e FB68     		ldr	r3, [r7, #12]
 1679 0060 4222     		movs	r2, #66
 1680 0062 2021     		movs	r1, #32
 1681 0064 9954     		strb	r1, [r3, r2]
1527:Drivers/STM32F0xx_HAL_Driver/Src/stm32f0xx_hal_i2c.c ****     hi2c->ErrorCode = HAL_I2C_ERROR_NONE;
 1682              		.loc 1 1527 21 discriminator 2
 1683 0066 FB68     		ldr	r3, [r7, #12]
 1684 0068 0022     		movs	r2, #0
 1685 006a 5A64     		str	r2, [r3, #68]
1528:Drivers/STM32F0xx_HAL_Driver/Src/stm32f0xx_hal_i2c.c **** 
1529:Drivers/STM32F0xx_HAL_Driver/Src/stm32f0xx_hal_i2c.c ****     /* Prepare transfer parameters */
1530:Drivers/STM32F0xx_HAL_Driver/Src/stm32f0xx_hal_i2c.c ****     hi2c->pBuffPtr  = pData;
 1686              		.loc 1 1530 21 discriminator 2
 1687 006c FB68     		ldr	r3, [r7, #12]
 1688 006e BA68     		ldr	r2, [r7, #8]
 1689 0070 5A62     		str	r2, [r3, #36]
1531:Drivers/STM32F0xx_HAL_Driver/Src/stm32f0xx_hal_i2c.c ****     hi2c->XferCount = Size;
 1690              		.loc 1 1531 21 discriminator 2
 1691 0072 FB68     		ldr	r3, [r7, #12]
 1692 0074 BA1D     		adds	r2, r7, #6
 1693 0076 1288     		ldrh	r2, [r2]
 1694 0078 5A85     		strh	r2, [r3, #42]
1532:Drivers/STM32F0xx_HAL_Driver/Src/stm32f0xx_hal_i2c.c ****     hi2c->XferSize = hi2c->XferCount;
 1695              		.loc 1 1532 26 discriminator 2
 1696 007a FB68     		ldr	r3, [r7, #12]
 1697 007c 5B8D     		ldrh	r3, [r3, #42]
 1698 007e 9AB2     		uxth	r2, r3
 1699              		.loc 1 1532 20 discriminator 2
 1700 0080 FB68     		ldr	r3, [r7, #12]
 1701 0082 1A85     		strh	r2, [r3, #40]
1533:Drivers/STM32F0xx_HAL_Driver/Src/stm32f0xx_hal_i2c.c ****     hi2c->XferISR   = NULL;
 1702              		.loc 1 1533 21 discriminator 2
 1703 0084 FB68     		ldr	r3, [r7, #12]
 1704 0086 0022     		movs	r2, #0
 1705 0088 5A63     		str	r2, [r3, #52]
1534:Drivers/STM32F0xx_HAL_Driver/Src/stm32f0xx_hal_i2c.c **** 
1535:Drivers/STM32F0xx_HAL_Driver/Src/stm32f0xx_hal_i2c.c ****     /* Enable Address Acknowledge */
1536:Drivers/STM32F0xx_HAL_Driver/Src/stm32f0xx_hal_i2c.c ****     hi2c->Instance->CR2 &= ~I2C_CR2_NACK;
 1706              		.loc 1 1536 9 discriminator 2
 1707 008a FB68     		ldr	r3, [r7, #12]
 1708 008c 1B68     		ldr	r3, [r3]
 1709              		.loc 1 1536 25 discriminator 2
 1710 008e 5A68     		ldr	r2, [r3, #4]
 1711              		.loc 1 1536 9 discriminator 2
 1712 0090 FB68     		ldr	r3, [r7, #12]
 1713 0092 1B68     		ldr	r3, [r3]
 1714              		.loc 1 1536 25 discriminator 2
 1715 0094 6749     		ldr	r1, .L78
 1716 0096 0A40     		ands	r2, r1
 1717 0098 5A60     		str	r2, [r3, #4]
1537:Drivers/STM32F0xx_HAL_Driver/Src/stm32f0xx_hal_i2c.c **** 
1538:Drivers/STM32F0xx_HAL_Driver/Src/stm32f0xx_hal_i2c.c ****     /* Wait until ADDR flag is set */
ARM GAS  C:\Users\mason\AppData\Local\Temp\ccsS7Myt.s 			page 58


1539:Drivers/STM32F0xx_HAL_Driver/Src/stm32f0xx_hal_i2c.c ****     if (I2C_WaitOnFlagUntilTimeout(hi2c, I2C_FLAG_ADDR, RESET, Timeout, tickstart) != HAL_OK)
 1718              		.loc 1 1539 9 discriminator 2
 1719 009a 3A68     		ldr	r2, [r7]
 1720 009c F868     		ldr	r0, [r7, #12]
 1721 009e 7B69     		ldr	r3, [r7, #20]
 1722 00a0 0093     		str	r3, [sp]
 1723 00a2 1300     		movs	r3, r2
 1724 00a4 0022     		movs	r2, #0
 1725 00a6 0821     		movs	r1, #8
 1726 00a8 FFF7FEFF 		bl	I2C_WaitOnFlagUntilTimeout
 1727 00ac 031E     		subs	r3, r0, #0
 1728              		.loc 1 1539 8 discriminator 2
 1729 00ae 0AD0     		beq	.L70
1540:Drivers/STM32F0xx_HAL_Driver/Src/stm32f0xx_hal_i2c.c ****     {
1541:Drivers/STM32F0xx_HAL_Driver/Src/stm32f0xx_hal_i2c.c ****       /* Disable Address Acknowledge */
1542:Drivers/STM32F0xx_HAL_Driver/Src/stm32f0xx_hal_i2c.c ****       hi2c->Instance->CR2 |= I2C_CR2_NACK;
 1730              		.loc 1 1542 11
 1731 00b0 FB68     		ldr	r3, [r7, #12]
 1732 00b2 1B68     		ldr	r3, [r3]
 1733              		.loc 1 1542 27
 1734 00b4 5A68     		ldr	r2, [r3, #4]
 1735              		.loc 1 1542 11
 1736 00b6 FB68     		ldr	r3, [r7, #12]
 1737 00b8 1B68     		ldr	r3, [r3]
 1738              		.loc 1 1542 27
 1739 00ba 8021     		movs	r1, #128
 1740 00bc 0902     		lsls	r1, r1, #8
 1741 00be 0A43     		orrs	r2, r1
 1742 00c0 5A60     		str	r2, [r3, #4]
1543:Drivers/STM32F0xx_HAL_Driver/Src/stm32f0xx_hal_i2c.c ****       return HAL_ERROR;
 1743              		.loc 1 1543 14
 1744 00c2 0123     		movs	r3, #1
 1745 00c4 B1E0     		b	.L68
 1746              	.L70:
1544:Drivers/STM32F0xx_HAL_Driver/Src/stm32f0xx_hal_i2c.c ****     }
1545:Drivers/STM32F0xx_HAL_Driver/Src/stm32f0xx_hal_i2c.c **** 
1546:Drivers/STM32F0xx_HAL_Driver/Src/stm32f0xx_hal_i2c.c ****     /* Clear ADDR flag */
1547:Drivers/STM32F0xx_HAL_Driver/Src/stm32f0xx_hal_i2c.c ****     __HAL_I2C_CLEAR_FLAG(hi2c, I2C_FLAG_ADDR);
 1747              		.loc 1 1547 5
 1748 00c6 FB68     		ldr	r3, [r7, #12]
 1749 00c8 1B68     		ldr	r3, [r3]
 1750 00ca 0822     		movs	r2, #8
 1751 00cc DA61     		str	r2, [r3, #28]
1548:Drivers/STM32F0xx_HAL_Driver/Src/stm32f0xx_hal_i2c.c **** 
1549:Drivers/STM32F0xx_HAL_Driver/Src/stm32f0xx_hal_i2c.c ****     /* Wait until DIR flag is reset Receiver mode */
1550:Drivers/STM32F0xx_HAL_Driver/Src/stm32f0xx_hal_i2c.c ****     if (I2C_WaitOnFlagUntilTimeout(hi2c, I2C_FLAG_DIR, SET, Timeout, tickstart) != HAL_OK)
 1752              		.loc 1 1550 9
 1753 00ce 3A68     		ldr	r2, [r7]
 1754 00d0 8023     		movs	r3, #128
 1755 00d2 5902     		lsls	r1, r3, #9
 1756 00d4 F868     		ldr	r0, [r7, #12]
 1757 00d6 7B69     		ldr	r3, [r7, #20]
 1758 00d8 0093     		str	r3, [sp]
 1759 00da 1300     		movs	r3, r2
 1760 00dc 0122     		movs	r2, #1
 1761 00de FFF7FEFF 		bl	I2C_WaitOnFlagUntilTimeout
 1762 00e2 031E     		subs	r3, r0, #0
ARM GAS  C:\Users\mason\AppData\Local\Temp\ccsS7Myt.s 			page 59


 1763              		.loc 1 1550 8
 1764 00e4 56D0     		beq	.L72
1551:Drivers/STM32F0xx_HAL_Driver/Src/stm32f0xx_hal_i2c.c ****     {
1552:Drivers/STM32F0xx_HAL_Driver/Src/stm32f0xx_hal_i2c.c ****       /* Disable Address Acknowledge */
1553:Drivers/STM32F0xx_HAL_Driver/Src/stm32f0xx_hal_i2c.c ****       hi2c->Instance->CR2 |= I2C_CR2_NACK;
 1765              		.loc 1 1553 11
 1766 00e6 FB68     		ldr	r3, [r7, #12]
 1767 00e8 1B68     		ldr	r3, [r3]
 1768              		.loc 1 1553 27
 1769 00ea 5A68     		ldr	r2, [r3, #4]
 1770              		.loc 1 1553 11
 1771 00ec FB68     		ldr	r3, [r7, #12]
 1772 00ee 1B68     		ldr	r3, [r3]
 1773              		.loc 1 1553 27
 1774 00f0 8021     		movs	r1, #128
 1775 00f2 0902     		lsls	r1, r1, #8
 1776 00f4 0A43     		orrs	r2, r1
 1777 00f6 5A60     		str	r2, [r3, #4]
1554:Drivers/STM32F0xx_HAL_Driver/Src/stm32f0xx_hal_i2c.c ****       return HAL_ERROR;
 1778              		.loc 1 1554 14
 1779 00f8 0123     		movs	r3, #1
 1780 00fa 96E0     		b	.L68
 1781              	.L75:
1555:Drivers/STM32F0xx_HAL_Driver/Src/stm32f0xx_hal_i2c.c ****     }
1556:Drivers/STM32F0xx_HAL_Driver/Src/stm32f0xx_hal_i2c.c **** 
1557:Drivers/STM32F0xx_HAL_Driver/Src/stm32f0xx_hal_i2c.c ****     while (hi2c->XferCount > 0U)
1558:Drivers/STM32F0xx_HAL_Driver/Src/stm32f0xx_hal_i2c.c ****     {
1559:Drivers/STM32F0xx_HAL_Driver/Src/stm32f0xx_hal_i2c.c ****       /* Wait until RXNE flag is set */
1560:Drivers/STM32F0xx_HAL_Driver/Src/stm32f0xx_hal_i2c.c ****       if (I2C_WaitOnRXNEFlagUntilTimeout(hi2c, Timeout, tickstart) != HAL_OK)
 1782              		.loc 1 1560 11
 1783 00fc 7A69     		ldr	r2, [r7, #20]
 1784 00fe 3968     		ldr	r1, [r7]
 1785 0100 FB68     		ldr	r3, [r7, #12]
 1786 0102 1800     		movs	r0, r3
 1787 0104 FFF7FEFF 		bl	I2C_WaitOnRXNEFlagUntilTimeout
 1788 0108 031E     		subs	r3, r0, #0
 1789              		.loc 1 1560 10
 1790 010a 2AD0     		beq	.L73
1561:Drivers/STM32F0xx_HAL_Driver/Src/stm32f0xx_hal_i2c.c ****       {
1562:Drivers/STM32F0xx_HAL_Driver/Src/stm32f0xx_hal_i2c.c ****         /* Disable Address Acknowledge */
1563:Drivers/STM32F0xx_HAL_Driver/Src/stm32f0xx_hal_i2c.c ****         hi2c->Instance->CR2 |= I2C_CR2_NACK;
 1791              		.loc 1 1563 13
 1792 010c FB68     		ldr	r3, [r7, #12]
 1793 010e 1B68     		ldr	r3, [r3]
 1794              		.loc 1 1563 29
 1795 0110 5A68     		ldr	r2, [r3, #4]
 1796              		.loc 1 1563 13
 1797 0112 FB68     		ldr	r3, [r7, #12]
 1798 0114 1B68     		ldr	r3, [r3]
 1799              		.loc 1 1563 29
 1800 0116 8021     		movs	r1, #128
 1801 0118 0902     		lsls	r1, r1, #8
 1802 011a 0A43     		orrs	r2, r1
 1803 011c 5A60     		str	r2, [r3, #4]
1564:Drivers/STM32F0xx_HAL_Driver/Src/stm32f0xx_hal_i2c.c **** 
1565:Drivers/STM32F0xx_HAL_Driver/Src/stm32f0xx_hal_i2c.c ****         /* Store Last receive data if any */
1566:Drivers/STM32F0xx_HAL_Driver/Src/stm32f0xx_hal_i2c.c ****         if (__HAL_I2C_GET_FLAG(hi2c, I2C_FLAG_RXNE) == SET)
ARM GAS  C:\Users\mason\AppData\Local\Temp\ccsS7Myt.s 			page 60


 1804              		.loc 1 1566 13
 1805 011e FB68     		ldr	r3, [r7, #12]
 1806 0120 1B68     		ldr	r3, [r3]
 1807 0122 9B69     		ldr	r3, [r3, #24]
 1808 0124 0422     		movs	r2, #4
 1809 0126 1340     		ands	r3, r2
 1810              		.loc 1 1566 12
 1811 0128 042B     		cmp	r3, #4
 1812 012a 18D1     		bne	.L74
1567:Drivers/STM32F0xx_HAL_Driver/Src/stm32f0xx_hal_i2c.c ****         {
1568:Drivers/STM32F0xx_HAL_Driver/Src/stm32f0xx_hal_i2c.c ****           /* Read data from RXDR */
1569:Drivers/STM32F0xx_HAL_Driver/Src/stm32f0xx_hal_i2c.c ****           *hi2c->pBuffPtr = (uint8_t)hi2c->Instance->RXDR;
 1813              		.loc 1 1569 42
 1814 012c FB68     		ldr	r3, [r7, #12]
 1815 012e 1B68     		ldr	r3, [r3]
 1816              		.loc 1 1569 52
 1817 0130 5A6A     		ldr	r2, [r3, #36]
 1818              		.loc 1 1569 16
 1819 0132 FB68     		ldr	r3, [r7, #12]
 1820 0134 5B6A     		ldr	r3, [r3, #36]
 1821              		.loc 1 1569 29
 1822 0136 D2B2     		uxtb	r2, r2
 1823              		.loc 1 1569 27
 1824 0138 1A70     		strb	r2, [r3]
1570:Drivers/STM32F0xx_HAL_Driver/Src/stm32f0xx_hal_i2c.c **** 
1571:Drivers/STM32F0xx_HAL_Driver/Src/stm32f0xx_hal_i2c.c ****           /* Increment Buffer pointer */
1572:Drivers/STM32F0xx_HAL_Driver/Src/stm32f0xx_hal_i2c.c ****           hi2c->pBuffPtr++;
 1825              		.loc 1 1572 15
 1826 013a FB68     		ldr	r3, [r7, #12]
 1827 013c 5B6A     		ldr	r3, [r3, #36]
 1828              		.loc 1 1572 25
 1829 013e 5A1C     		adds	r2, r3, #1
 1830 0140 FB68     		ldr	r3, [r7, #12]
 1831 0142 5A62     		str	r2, [r3, #36]
1573:Drivers/STM32F0xx_HAL_Driver/Src/stm32f0xx_hal_i2c.c **** 
1574:Drivers/STM32F0xx_HAL_Driver/Src/stm32f0xx_hal_i2c.c ****           hi2c->XferCount--;
 1832              		.loc 1 1574 15
 1833 0144 FB68     		ldr	r3, [r7, #12]
 1834 0146 5B8D     		ldrh	r3, [r3, #42]
 1835 0148 9BB2     		uxth	r3, r3
 1836              		.loc 1 1574 26
 1837 014a 013B     		subs	r3, r3, #1
 1838 014c 9AB2     		uxth	r2, r3
 1839 014e FB68     		ldr	r3, [r7, #12]
 1840 0150 5A85     		strh	r2, [r3, #42]
1575:Drivers/STM32F0xx_HAL_Driver/Src/stm32f0xx_hal_i2c.c ****           hi2c->XferSize--;
 1841              		.loc 1 1575 15
 1842 0152 FB68     		ldr	r3, [r7, #12]
 1843 0154 1B8D     		ldrh	r3, [r3, #40]
 1844              		.loc 1 1575 25
 1845 0156 013B     		subs	r3, r3, #1
 1846 0158 9AB2     		uxth	r2, r3
 1847 015a FB68     		ldr	r3, [r7, #12]
 1848 015c 1A85     		strh	r2, [r3, #40]
 1849              	.L74:
1576:Drivers/STM32F0xx_HAL_Driver/Src/stm32f0xx_hal_i2c.c ****         }
1577:Drivers/STM32F0xx_HAL_Driver/Src/stm32f0xx_hal_i2c.c **** 
ARM GAS  C:\Users\mason\AppData\Local\Temp\ccsS7Myt.s 			page 61


1578:Drivers/STM32F0xx_HAL_Driver/Src/stm32f0xx_hal_i2c.c ****         return HAL_ERROR;
 1850              		.loc 1 1578 16
 1851 015e 0123     		movs	r3, #1
 1852 0160 63E0     		b	.L68
 1853              	.L73:
1579:Drivers/STM32F0xx_HAL_Driver/Src/stm32f0xx_hal_i2c.c ****       }
1580:Drivers/STM32F0xx_HAL_Driver/Src/stm32f0xx_hal_i2c.c **** 
1581:Drivers/STM32F0xx_HAL_Driver/Src/stm32f0xx_hal_i2c.c ****       /* Read data from RXDR */
1582:Drivers/STM32F0xx_HAL_Driver/Src/stm32f0xx_hal_i2c.c ****       *hi2c->pBuffPtr = (uint8_t)hi2c->Instance->RXDR;
 1854              		.loc 1 1582 38
 1855 0162 FB68     		ldr	r3, [r7, #12]
 1856 0164 1B68     		ldr	r3, [r3]
 1857              		.loc 1 1582 48
 1858 0166 5A6A     		ldr	r2, [r3, #36]
 1859              		.loc 1 1582 12
 1860 0168 FB68     		ldr	r3, [r7, #12]
 1861 016a 5B6A     		ldr	r3, [r3, #36]
 1862              		.loc 1 1582 25
 1863 016c D2B2     		uxtb	r2, r2
 1864              		.loc 1 1582 23
 1865 016e 1A70     		strb	r2, [r3]
1583:Drivers/STM32F0xx_HAL_Driver/Src/stm32f0xx_hal_i2c.c **** 
1584:Drivers/STM32F0xx_HAL_Driver/Src/stm32f0xx_hal_i2c.c ****       /* Increment Buffer pointer */
1585:Drivers/STM32F0xx_HAL_Driver/Src/stm32f0xx_hal_i2c.c ****       hi2c->pBuffPtr++;
 1866              		.loc 1 1585 11
 1867 0170 FB68     		ldr	r3, [r7, #12]
 1868 0172 5B6A     		ldr	r3, [r3, #36]
 1869              		.loc 1 1585 21
 1870 0174 5A1C     		adds	r2, r3, #1
 1871 0176 FB68     		ldr	r3, [r7, #12]
 1872 0178 5A62     		str	r2, [r3, #36]
1586:Drivers/STM32F0xx_HAL_Driver/Src/stm32f0xx_hal_i2c.c **** 
1587:Drivers/STM32F0xx_HAL_Driver/Src/stm32f0xx_hal_i2c.c ****       hi2c->XferCount--;
 1873              		.loc 1 1587 11
 1874 017a FB68     		ldr	r3, [r7, #12]
 1875 017c 5B8D     		ldrh	r3, [r3, #42]
 1876 017e 9BB2     		uxth	r3, r3
 1877              		.loc 1 1587 22
 1878 0180 013B     		subs	r3, r3, #1
 1879 0182 9AB2     		uxth	r2, r3
 1880 0184 FB68     		ldr	r3, [r7, #12]
 1881 0186 5A85     		strh	r2, [r3, #42]
1588:Drivers/STM32F0xx_HAL_Driver/Src/stm32f0xx_hal_i2c.c ****       hi2c->XferSize--;
 1882              		.loc 1 1588 11
 1883 0188 FB68     		ldr	r3, [r7, #12]
 1884 018a 1B8D     		ldrh	r3, [r3, #40]
 1885              		.loc 1 1588 21
 1886 018c 013B     		subs	r3, r3, #1
 1887 018e 9AB2     		uxth	r2, r3
 1888 0190 FB68     		ldr	r3, [r7, #12]
 1889 0192 1A85     		strh	r2, [r3, #40]
 1890              	.L72:
1557:Drivers/STM32F0xx_HAL_Driver/Src/stm32f0xx_hal_i2c.c ****     {
 1891              		.loc 1 1557 16
 1892 0194 FB68     		ldr	r3, [r7, #12]
 1893 0196 5B8D     		ldrh	r3, [r3, #42]
 1894 0198 9BB2     		uxth	r3, r3
ARM GAS  C:\Users\mason\AppData\Local\Temp\ccsS7Myt.s 			page 62


1557:Drivers/STM32F0xx_HAL_Driver/Src/stm32f0xx_hal_i2c.c ****     {
 1895              		.loc 1 1557 11
 1896 019a 002B     		cmp	r3, #0
 1897 019c AED1     		bne	.L75
1589:Drivers/STM32F0xx_HAL_Driver/Src/stm32f0xx_hal_i2c.c ****     }
1590:Drivers/STM32F0xx_HAL_Driver/Src/stm32f0xx_hal_i2c.c **** 
1591:Drivers/STM32F0xx_HAL_Driver/Src/stm32f0xx_hal_i2c.c ****     /* Wait until STOP flag is set */
1592:Drivers/STM32F0xx_HAL_Driver/Src/stm32f0xx_hal_i2c.c ****     if (I2C_WaitOnSTOPFlagUntilTimeout(hi2c, Timeout, tickstart) != HAL_OK)
 1898              		.loc 1 1592 9
 1899 019e 7A69     		ldr	r2, [r7, #20]
 1900 01a0 3968     		ldr	r1, [r7]
 1901 01a2 FB68     		ldr	r3, [r7, #12]
 1902 01a4 1800     		movs	r0, r3
 1903 01a6 FFF7FEFF 		bl	I2C_WaitOnSTOPFlagUntilTimeout
 1904 01aa 031E     		subs	r3, r0, #0
 1905              		.loc 1 1592 8
 1906 01ac 0AD0     		beq	.L76
1593:Drivers/STM32F0xx_HAL_Driver/Src/stm32f0xx_hal_i2c.c ****     {
1594:Drivers/STM32F0xx_HAL_Driver/Src/stm32f0xx_hal_i2c.c ****       /* Disable Address Acknowledge */
1595:Drivers/STM32F0xx_HAL_Driver/Src/stm32f0xx_hal_i2c.c ****       hi2c->Instance->CR2 |= I2C_CR2_NACK;
 1907              		.loc 1 1595 11
 1908 01ae FB68     		ldr	r3, [r7, #12]
 1909 01b0 1B68     		ldr	r3, [r3]
 1910              		.loc 1 1595 27
 1911 01b2 5A68     		ldr	r2, [r3, #4]
 1912              		.loc 1 1595 11
 1913 01b4 FB68     		ldr	r3, [r7, #12]
 1914 01b6 1B68     		ldr	r3, [r3]
 1915              		.loc 1 1595 27
 1916 01b8 8021     		movs	r1, #128
 1917 01ba 0902     		lsls	r1, r1, #8
 1918 01bc 0A43     		orrs	r2, r1
 1919 01be 5A60     		str	r2, [r3, #4]
1596:Drivers/STM32F0xx_HAL_Driver/Src/stm32f0xx_hal_i2c.c ****       return HAL_ERROR;
 1920              		.loc 1 1596 14
 1921 01c0 0123     		movs	r3, #1
 1922 01c2 32E0     		b	.L68
 1923              	.L76:
1597:Drivers/STM32F0xx_HAL_Driver/Src/stm32f0xx_hal_i2c.c ****     }
1598:Drivers/STM32F0xx_HAL_Driver/Src/stm32f0xx_hal_i2c.c **** 
1599:Drivers/STM32F0xx_HAL_Driver/Src/stm32f0xx_hal_i2c.c ****     /* Clear STOP flag */
1600:Drivers/STM32F0xx_HAL_Driver/Src/stm32f0xx_hal_i2c.c ****     __HAL_I2C_CLEAR_FLAG(hi2c, I2C_FLAG_STOPF);
 1924              		.loc 1 1600 5
 1925 01c4 FB68     		ldr	r3, [r7, #12]
 1926 01c6 1B68     		ldr	r3, [r3]
 1927 01c8 2022     		movs	r2, #32
 1928 01ca DA61     		str	r2, [r3, #28]
1601:Drivers/STM32F0xx_HAL_Driver/Src/stm32f0xx_hal_i2c.c **** 
1602:Drivers/STM32F0xx_HAL_Driver/Src/stm32f0xx_hal_i2c.c ****     /* Wait until BUSY flag is reset */
1603:Drivers/STM32F0xx_HAL_Driver/Src/stm32f0xx_hal_i2c.c ****     if (I2C_WaitOnFlagUntilTimeout(hi2c, I2C_FLAG_BUSY, SET, Timeout, tickstart) != HAL_OK)
 1929              		.loc 1 1603 9
 1930 01cc 3A68     		ldr	r2, [r7]
 1931 01ce 8023     		movs	r3, #128
 1932 01d0 1902     		lsls	r1, r3, #8
 1933 01d2 F868     		ldr	r0, [r7, #12]
 1934 01d4 7B69     		ldr	r3, [r7, #20]
 1935 01d6 0093     		str	r3, [sp]
ARM GAS  C:\Users\mason\AppData\Local\Temp\ccsS7Myt.s 			page 63


 1936 01d8 1300     		movs	r3, r2
 1937 01da 0122     		movs	r2, #1
 1938 01dc FFF7FEFF 		bl	I2C_WaitOnFlagUntilTimeout
 1939 01e0 031E     		subs	r3, r0, #0
 1940              		.loc 1 1603 8
 1941 01e2 0AD0     		beq	.L77
1604:Drivers/STM32F0xx_HAL_Driver/Src/stm32f0xx_hal_i2c.c ****     {
1605:Drivers/STM32F0xx_HAL_Driver/Src/stm32f0xx_hal_i2c.c ****       /* Disable Address Acknowledge */
1606:Drivers/STM32F0xx_HAL_Driver/Src/stm32f0xx_hal_i2c.c ****       hi2c->Instance->CR2 |= I2C_CR2_NACK;
 1942              		.loc 1 1606 11
 1943 01e4 FB68     		ldr	r3, [r7, #12]
 1944 01e6 1B68     		ldr	r3, [r3]
 1945              		.loc 1 1606 27
 1946 01e8 5A68     		ldr	r2, [r3, #4]
 1947              		.loc 1 1606 11
 1948 01ea FB68     		ldr	r3, [r7, #12]
 1949 01ec 1B68     		ldr	r3, [r3]
 1950              		.loc 1 1606 27
 1951 01ee 8021     		movs	r1, #128
 1952 01f0 0902     		lsls	r1, r1, #8
 1953 01f2 0A43     		orrs	r2, r1
 1954 01f4 5A60     		str	r2, [r3, #4]
1607:Drivers/STM32F0xx_HAL_Driver/Src/stm32f0xx_hal_i2c.c ****       return HAL_ERROR;
 1955              		.loc 1 1607 14
 1956 01f6 0123     		movs	r3, #1
 1957 01f8 17E0     		b	.L68
 1958              	.L77:
1608:Drivers/STM32F0xx_HAL_Driver/Src/stm32f0xx_hal_i2c.c ****     }
1609:Drivers/STM32F0xx_HAL_Driver/Src/stm32f0xx_hal_i2c.c **** 
1610:Drivers/STM32F0xx_HAL_Driver/Src/stm32f0xx_hal_i2c.c ****     /* Disable Address Acknowledge */
1611:Drivers/STM32F0xx_HAL_Driver/Src/stm32f0xx_hal_i2c.c ****     hi2c->Instance->CR2 |= I2C_CR2_NACK;
 1959              		.loc 1 1611 9
 1960 01fa FB68     		ldr	r3, [r7, #12]
 1961 01fc 1B68     		ldr	r3, [r3]
 1962              		.loc 1 1611 25
 1963 01fe 5A68     		ldr	r2, [r3, #4]
 1964              		.loc 1 1611 9
 1965 0200 FB68     		ldr	r3, [r7, #12]
 1966 0202 1B68     		ldr	r3, [r3]
 1967              		.loc 1 1611 25
 1968 0204 8021     		movs	r1, #128
 1969 0206 0902     		lsls	r1, r1, #8
 1970 0208 0A43     		orrs	r2, r1
 1971 020a 5A60     		str	r2, [r3, #4]
1612:Drivers/STM32F0xx_HAL_Driver/Src/stm32f0xx_hal_i2c.c **** 
1613:Drivers/STM32F0xx_HAL_Driver/Src/stm32f0xx_hal_i2c.c ****     hi2c->State = HAL_I2C_STATE_READY;
 1972              		.loc 1 1613 17
 1973 020c FB68     		ldr	r3, [r7, #12]
 1974 020e 4122     		movs	r2, #65
 1975 0210 2021     		movs	r1, #32
 1976 0212 9954     		strb	r1, [r3, r2]
1614:Drivers/STM32F0xx_HAL_Driver/Src/stm32f0xx_hal_i2c.c ****     hi2c->Mode  = HAL_I2C_MODE_NONE;
 1977              		.loc 1 1614 17
 1978 0214 FB68     		ldr	r3, [r7, #12]
 1979 0216 4222     		movs	r2, #66
 1980 0218 0021     		movs	r1, #0
 1981 021a 9954     		strb	r1, [r3, r2]
ARM GAS  C:\Users\mason\AppData\Local\Temp\ccsS7Myt.s 			page 64


1615:Drivers/STM32F0xx_HAL_Driver/Src/stm32f0xx_hal_i2c.c **** 
1616:Drivers/STM32F0xx_HAL_Driver/Src/stm32f0xx_hal_i2c.c ****     /* Process Unlocked */
1617:Drivers/STM32F0xx_HAL_Driver/Src/stm32f0xx_hal_i2c.c ****     __HAL_UNLOCK(hi2c);
 1982              		.loc 1 1617 5
 1983 021c FB68     		ldr	r3, [r7, #12]
 1984 021e 4022     		movs	r2, #64
 1985 0220 0021     		movs	r1, #0
 1986 0222 9954     		strb	r1, [r3, r2]
1618:Drivers/STM32F0xx_HAL_Driver/Src/stm32f0xx_hal_i2c.c **** 
1619:Drivers/STM32F0xx_HAL_Driver/Src/stm32f0xx_hal_i2c.c ****     return HAL_OK;
 1987              		.loc 1 1619 12
 1988 0224 0023     		movs	r3, #0
 1989 0226 00E0     		b	.L68
 1990              	.L65:
1620:Drivers/STM32F0xx_HAL_Driver/Src/stm32f0xx_hal_i2c.c ****   }
1621:Drivers/STM32F0xx_HAL_Driver/Src/stm32f0xx_hal_i2c.c ****   else
1622:Drivers/STM32F0xx_HAL_Driver/Src/stm32f0xx_hal_i2c.c ****   {
1623:Drivers/STM32F0xx_HAL_Driver/Src/stm32f0xx_hal_i2c.c ****     return HAL_BUSY;
 1991              		.loc 1 1623 12
 1992 0228 0223     		movs	r3, #2
 1993              	.L68:
1624:Drivers/STM32F0xx_HAL_Driver/Src/stm32f0xx_hal_i2c.c ****   }
1625:Drivers/STM32F0xx_HAL_Driver/Src/stm32f0xx_hal_i2c.c **** }
 1994              		.loc 1 1625 1
 1995 022a 1800     		movs	r0, r3
 1996 022c BD46     		mov	sp, r7
 1997 022e 06B0     		add	sp, sp, #24
 1998              		@ sp needed
 1999 0230 80BD     		pop	{r7, pc}
 2000              	.L79:
 2001 0232 C046     		.align	2
 2002              	.L78:
 2003 0234 FF7FFFFF 		.word	-32769
 2004              		.cfi_endproc
 2005              	.LFE47:
 2007              		.section	.text.HAL_I2C_Master_Transmit_IT,"ax",%progbits
 2008              		.align	1
 2009              		.global	HAL_I2C_Master_Transmit_IT
 2010              		.syntax unified
 2011              		.code	16
 2012              		.thumb_func
 2014              	HAL_I2C_Master_Transmit_IT:
 2015              	.LFB48:
1626:Drivers/STM32F0xx_HAL_Driver/Src/stm32f0xx_hal_i2c.c **** 
1627:Drivers/STM32F0xx_HAL_Driver/Src/stm32f0xx_hal_i2c.c **** /**
1628:Drivers/STM32F0xx_HAL_Driver/Src/stm32f0xx_hal_i2c.c ****   * @brief  Transmit in master mode an amount of data in non-blocking mode with Interrupt
1629:Drivers/STM32F0xx_HAL_Driver/Src/stm32f0xx_hal_i2c.c ****   * @param  hi2c Pointer to a I2C_HandleTypeDef structure that contains
1630:Drivers/STM32F0xx_HAL_Driver/Src/stm32f0xx_hal_i2c.c ****   *                the configuration information for the specified I2C.
1631:Drivers/STM32F0xx_HAL_Driver/Src/stm32f0xx_hal_i2c.c ****   * @param  DevAddress Target device address: The device 7 bits address value
1632:Drivers/STM32F0xx_HAL_Driver/Src/stm32f0xx_hal_i2c.c ****   *         in datasheet must be shifted to the left before calling the interface
1633:Drivers/STM32F0xx_HAL_Driver/Src/stm32f0xx_hal_i2c.c ****   * @param  pData Pointer to data buffer
1634:Drivers/STM32F0xx_HAL_Driver/Src/stm32f0xx_hal_i2c.c ****   * @param  Size Amount of data to be sent
1635:Drivers/STM32F0xx_HAL_Driver/Src/stm32f0xx_hal_i2c.c ****   * @retval HAL status
1636:Drivers/STM32F0xx_HAL_Driver/Src/stm32f0xx_hal_i2c.c ****   */
1637:Drivers/STM32F0xx_HAL_Driver/Src/stm32f0xx_hal_i2c.c **** HAL_StatusTypeDef HAL_I2C_Master_Transmit_IT(I2C_HandleTypeDef *hi2c, uint16_t DevAddress, uint8_t 
1638:Drivers/STM32F0xx_HAL_Driver/Src/stm32f0xx_hal_i2c.c ****                                              uint16_t Size)
1639:Drivers/STM32F0xx_HAL_Driver/Src/stm32f0xx_hal_i2c.c **** {
ARM GAS  C:\Users\mason\AppData\Local\Temp\ccsS7Myt.s 			page 65


 2016              		.loc 1 1639 1
 2017              		.cfi_startproc
 2018              		@ args = 0, pretend = 0, frame = 24
 2019              		@ frame_needed = 1, uses_anonymous_args = 0
 2020 0000 90B5     		push	{r4, r7, lr}
 2021              	.LCFI24:
 2022              		.cfi_def_cfa_offset 12
 2023              		.cfi_offset 4, -12
 2024              		.cfi_offset 7, -8
 2025              		.cfi_offset 14, -4
 2026 0002 89B0     		sub	sp, sp, #36
 2027              	.LCFI25:
 2028              		.cfi_def_cfa_offset 48
 2029 0004 02AF     		add	r7, sp, #8
 2030              	.LCFI26:
 2031              		.cfi_def_cfa 7, 40
 2032 0006 F860     		str	r0, [r7, #12]
 2033 0008 0800     		movs	r0, r1
 2034 000a 7A60     		str	r2, [r7, #4]
 2035 000c 1900     		movs	r1, r3
 2036 000e 0A23     		movs	r3, #10
 2037 0010 FB18     		adds	r3, r7, r3
 2038 0012 021C     		adds	r2, r0, #0
 2039 0014 1A80     		strh	r2, [r3]
 2040 0016 0823     		movs	r3, #8
 2041 0018 FB18     		adds	r3, r7, r3
 2042 001a 0A1C     		adds	r2, r1, #0
 2043 001c 1A80     		strh	r2, [r3]
1640:Drivers/STM32F0xx_HAL_Driver/Src/stm32f0xx_hal_i2c.c ****   uint32_t xfermode;
1641:Drivers/STM32F0xx_HAL_Driver/Src/stm32f0xx_hal_i2c.c **** 
1642:Drivers/STM32F0xx_HAL_Driver/Src/stm32f0xx_hal_i2c.c ****   if (hi2c->State == HAL_I2C_STATE_READY)
 2044              		.loc 1 1642 11
 2045 001e FB68     		ldr	r3, [r7, #12]
 2046 0020 4122     		movs	r2, #65
 2047 0022 9B5C     		ldrb	r3, [r3, r2]
 2048 0024 DBB2     		uxtb	r3, r3
 2049              		.loc 1 1642 6
 2050 0026 202B     		cmp	r3, #32
 2051 0028 5BD1     		bne	.L81
1643:Drivers/STM32F0xx_HAL_Driver/Src/stm32f0xx_hal_i2c.c ****   {
