ARM GAS  C:\Users\mason\AppData\Local\Temp\ccXzLFKH.s 			page 1


   1              		.cpu cortex-m0
   2              		.arch armv6s-m
   3              		.fpu softvfp
   4              		.eabi_attribute 20, 1
   5              		.eabi_attribute 21, 1
   6              		.eabi_attribute 23, 3
   7              		.eabi_attribute 24, 1
   8              		.eabi_attribute 25, 1
   9              		.eabi_attribute 26, 1
  10              		.eabi_attribute 30, 6
  11              		.eabi_attribute 34, 0
  12              		.eabi_attribute 18, 4
  13              		.file	"stm32f0xx_hal_flash_ex.c"
  14              		.text
  15              	.Ltext0:
  16              		.cfi_sections	.debug_frame
  17              		.section	.text.HAL_FLASHEx_Erase,"ax",%progbits
  18              		.align	1
  19              		.global	HAL_FLASHEx_Erase
  20              		.syntax unified
  21              		.code	16
  22              		.thumb_func
  24              	HAL_FLASHEx_Erase:
  25              	.LFB40:
  26              		.file 1 "Drivers/STM32F0xx_HAL_Driver/Src/stm32f0xx_hal_flash_ex.c"
   1:Drivers/STM32F0xx_HAL_Driver/Src/stm32f0xx_hal_flash_ex.c **** /**
   2:Drivers/STM32F0xx_HAL_Driver/Src/stm32f0xx_hal_flash_ex.c ****   ******************************************************************************
   3:Drivers/STM32F0xx_HAL_Driver/Src/stm32f0xx_hal_flash_ex.c ****   * @file    stm32f0xx_hal_flash_ex.c
   4:Drivers/STM32F0xx_HAL_Driver/Src/stm32f0xx_hal_flash_ex.c ****   * @author  MCD Application Team
   5:Drivers/STM32F0xx_HAL_Driver/Src/stm32f0xx_hal_flash_ex.c ****   * @brief   Extended FLASH HAL module driver.
   6:Drivers/STM32F0xx_HAL_Driver/Src/stm32f0xx_hal_flash_ex.c ****   *    
   7:Drivers/STM32F0xx_HAL_Driver/Src/stm32f0xx_hal_flash_ex.c ****   *          This file provides firmware functions to manage the following 
   8:Drivers/STM32F0xx_HAL_Driver/Src/stm32f0xx_hal_flash_ex.c ****   *          functionalities of the FLASH peripheral:
   9:Drivers/STM32F0xx_HAL_Driver/Src/stm32f0xx_hal_flash_ex.c ****   *           + Extended Initialization/de-initialization functions
  10:Drivers/STM32F0xx_HAL_Driver/Src/stm32f0xx_hal_flash_ex.c ****   *           + Extended I/O operation functions
  11:Drivers/STM32F0xx_HAL_Driver/Src/stm32f0xx_hal_flash_ex.c ****   *           + Extended Peripheral Control functions 
  12:Drivers/STM32F0xx_HAL_Driver/Src/stm32f0xx_hal_flash_ex.c ****   *         
  13:Drivers/STM32F0xx_HAL_Driver/Src/stm32f0xx_hal_flash_ex.c ****   @verbatim
  14:Drivers/STM32F0xx_HAL_Driver/Src/stm32f0xx_hal_flash_ex.c ****   ==============================================================================
  15:Drivers/STM32F0xx_HAL_Driver/Src/stm32f0xx_hal_flash_ex.c ****                ##### Flash peripheral extended features  #####
  16:Drivers/STM32F0xx_HAL_Driver/Src/stm32f0xx_hal_flash_ex.c ****   ==============================================================================
  17:Drivers/STM32F0xx_HAL_Driver/Src/stm32f0xx_hal_flash_ex.c ****            
  18:Drivers/STM32F0xx_HAL_Driver/Src/stm32f0xx_hal_flash_ex.c ****                       ##### How to use this driver #####
  19:Drivers/STM32F0xx_HAL_Driver/Src/stm32f0xx_hal_flash_ex.c ****   ==============================================================================
  20:Drivers/STM32F0xx_HAL_Driver/Src/stm32f0xx_hal_flash_ex.c ****   [..] This driver provides functions to configure and program the FLASH memory 
  21:Drivers/STM32F0xx_HAL_Driver/Src/stm32f0xx_hal_flash_ex.c ****        of all STM32F0xxx devices. It includes
  22:Drivers/STM32F0xx_HAL_Driver/Src/stm32f0xx_hal_flash_ex.c ****        
  23:Drivers/STM32F0xx_HAL_Driver/Src/stm32f0xx_hal_flash_ex.c ****         (++) Set/Reset the write protection
  24:Drivers/STM32F0xx_HAL_Driver/Src/stm32f0xx_hal_flash_ex.c ****         (++) Program the user Option Bytes
  25:Drivers/STM32F0xx_HAL_Driver/Src/stm32f0xx_hal_flash_ex.c ****         (++) Get the Read protection Level
  26:Drivers/STM32F0xx_HAL_Driver/Src/stm32f0xx_hal_flash_ex.c ****   
  27:Drivers/STM32F0xx_HAL_Driver/Src/stm32f0xx_hal_flash_ex.c ****   @endverbatim
  28:Drivers/STM32F0xx_HAL_Driver/Src/stm32f0xx_hal_flash_ex.c ****   ******************************************************************************
  29:Drivers/STM32F0xx_HAL_Driver/Src/stm32f0xx_hal_flash_ex.c ****   * @attention
  30:Drivers/STM32F0xx_HAL_Driver/Src/stm32f0xx_hal_flash_ex.c ****   *
  31:Drivers/STM32F0xx_HAL_Driver/Src/stm32f0xx_hal_flash_ex.c ****   * Copyright (c) 2016 STMicroelectronics.
  32:Drivers/STM32F0xx_HAL_Driver/Src/stm32f0xx_hal_flash_ex.c ****   * All rights reserved.
ARM GAS  C:\Users\mason\AppData\Local\Temp\ccXzLFKH.s 			page 2


  33:Drivers/STM32F0xx_HAL_Driver/Src/stm32f0xx_hal_flash_ex.c ****   *
  34:Drivers/STM32F0xx_HAL_Driver/Src/stm32f0xx_hal_flash_ex.c ****   * This software is licensed under terms that can be found in the LICENSE file in
  35:Drivers/STM32F0xx_HAL_Driver/Src/stm32f0xx_hal_flash_ex.c ****   * the root directory of this software component.
  36:Drivers/STM32F0xx_HAL_Driver/Src/stm32f0xx_hal_flash_ex.c ****   * If no LICENSE file comes with this software, it is provided AS-IS.
  37:Drivers/STM32F0xx_HAL_Driver/Src/stm32f0xx_hal_flash_ex.c ****   ******************************************************************************
  38:Drivers/STM32F0xx_HAL_Driver/Src/stm32f0xx_hal_flash_ex.c ****   */
  39:Drivers/STM32F0xx_HAL_Driver/Src/stm32f0xx_hal_flash_ex.c **** 
  40:Drivers/STM32F0xx_HAL_Driver/Src/stm32f0xx_hal_flash_ex.c **** /* Includes ------------------------------------------------------------------*/
  41:Drivers/STM32F0xx_HAL_Driver/Src/stm32f0xx_hal_flash_ex.c **** #include "stm32f0xx_hal.h"
  42:Drivers/STM32F0xx_HAL_Driver/Src/stm32f0xx_hal_flash_ex.c **** 
  43:Drivers/STM32F0xx_HAL_Driver/Src/stm32f0xx_hal_flash_ex.c **** /** @addtogroup STM32F0xx_HAL_Driver
  44:Drivers/STM32F0xx_HAL_Driver/Src/stm32f0xx_hal_flash_ex.c ****   * @{
  45:Drivers/STM32F0xx_HAL_Driver/Src/stm32f0xx_hal_flash_ex.c ****   */
  46:Drivers/STM32F0xx_HAL_Driver/Src/stm32f0xx_hal_flash_ex.c **** #ifdef HAL_FLASH_MODULE_ENABLED
  47:Drivers/STM32F0xx_HAL_Driver/Src/stm32f0xx_hal_flash_ex.c **** 
  48:Drivers/STM32F0xx_HAL_Driver/Src/stm32f0xx_hal_flash_ex.c **** /** @addtogroup FLASH
  49:Drivers/STM32F0xx_HAL_Driver/Src/stm32f0xx_hal_flash_ex.c ****   * @{
  50:Drivers/STM32F0xx_HAL_Driver/Src/stm32f0xx_hal_flash_ex.c ****   */
  51:Drivers/STM32F0xx_HAL_Driver/Src/stm32f0xx_hal_flash_ex.c **** /** @addtogroup FLASH_Private_Variables
  52:Drivers/STM32F0xx_HAL_Driver/Src/stm32f0xx_hal_flash_ex.c ****  * @{
  53:Drivers/STM32F0xx_HAL_Driver/Src/stm32f0xx_hal_flash_ex.c ****  */
  54:Drivers/STM32F0xx_HAL_Driver/Src/stm32f0xx_hal_flash_ex.c **** /* Variables used for Erase pages under interruption*/
  55:Drivers/STM32F0xx_HAL_Driver/Src/stm32f0xx_hal_flash_ex.c **** extern FLASH_ProcessTypeDef pFlash;
  56:Drivers/STM32F0xx_HAL_Driver/Src/stm32f0xx_hal_flash_ex.c **** /**
  57:Drivers/STM32F0xx_HAL_Driver/Src/stm32f0xx_hal_flash_ex.c ****   * @}
  58:Drivers/STM32F0xx_HAL_Driver/Src/stm32f0xx_hal_flash_ex.c ****   */
  59:Drivers/STM32F0xx_HAL_Driver/Src/stm32f0xx_hal_flash_ex.c **** 
  60:Drivers/STM32F0xx_HAL_Driver/Src/stm32f0xx_hal_flash_ex.c **** /**
  61:Drivers/STM32F0xx_HAL_Driver/Src/stm32f0xx_hal_flash_ex.c ****   * @}
  62:Drivers/STM32F0xx_HAL_Driver/Src/stm32f0xx_hal_flash_ex.c ****   */
  63:Drivers/STM32F0xx_HAL_Driver/Src/stm32f0xx_hal_flash_ex.c ****   
  64:Drivers/STM32F0xx_HAL_Driver/Src/stm32f0xx_hal_flash_ex.c **** /** @defgroup FLASHEx FLASHEx
  65:Drivers/STM32F0xx_HAL_Driver/Src/stm32f0xx_hal_flash_ex.c ****   * @brief FLASH HAL Extension module driver
  66:Drivers/STM32F0xx_HAL_Driver/Src/stm32f0xx_hal_flash_ex.c ****   * @{
  67:Drivers/STM32F0xx_HAL_Driver/Src/stm32f0xx_hal_flash_ex.c ****   */
  68:Drivers/STM32F0xx_HAL_Driver/Src/stm32f0xx_hal_flash_ex.c **** 
  69:Drivers/STM32F0xx_HAL_Driver/Src/stm32f0xx_hal_flash_ex.c **** /* Private typedef -----------------------------------------------------------*/
  70:Drivers/STM32F0xx_HAL_Driver/Src/stm32f0xx_hal_flash_ex.c **** /* Private define ------------------------------------------------------------*/
  71:Drivers/STM32F0xx_HAL_Driver/Src/stm32f0xx_hal_flash_ex.c **** /** @defgroup FLASHEx_Private_Constants FLASHEx Private Constants
  72:Drivers/STM32F0xx_HAL_Driver/Src/stm32f0xx_hal_flash_ex.c ****  * @{
  73:Drivers/STM32F0xx_HAL_Driver/Src/stm32f0xx_hal_flash_ex.c ****  */
  74:Drivers/STM32F0xx_HAL_Driver/Src/stm32f0xx_hal_flash_ex.c **** #define FLASH_POSITION_IWDGSW_BIT        8U
  75:Drivers/STM32F0xx_HAL_Driver/Src/stm32f0xx_hal_flash_ex.c **** #define FLASH_POSITION_OB_USERDATA0_BIT  16U
  76:Drivers/STM32F0xx_HAL_Driver/Src/stm32f0xx_hal_flash_ex.c **** #define FLASH_POSITION_OB_USERDATA1_BIT  24U
  77:Drivers/STM32F0xx_HAL_Driver/Src/stm32f0xx_hal_flash_ex.c **** /**
  78:Drivers/STM32F0xx_HAL_Driver/Src/stm32f0xx_hal_flash_ex.c ****   * @}
  79:Drivers/STM32F0xx_HAL_Driver/Src/stm32f0xx_hal_flash_ex.c ****   */
  80:Drivers/STM32F0xx_HAL_Driver/Src/stm32f0xx_hal_flash_ex.c **** 
  81:Drivers/STM32F0xx_HAL_Driver/Src/stm32f0xx_hal_flash_ex.c **** /* Private macro -------------------------------------------------------------*/
  82:Drivers/STM32F0xx_HAL_Driver/Src/stm32f0xx_hal_flash_ex.c **** /** @defgroup FLASHEx_Private_Macros FLASHEx Private Macros
  83:Drivers/STM32F0xx_HAL_Driver/Src/stm32f0xx_hal_flash_ex.c ****   * @{
  84:Drivers/STM32F0xx_HAL_Driver/Src/stm32f0xx_hal_flash_ex.c ****   */
  85:Drivers/STM32F0xx_HAL_Driver/Src/stm32f0xx_hal_flash_ex.c **** /**
  86:Drivers/STM32F0xx_HAL_Driver/Src/stm32f0xx_hal_flash_ex.c ****   * @}
  87:Drivers/STM32F0xx_HAL_Driver/Src/stm32f0xx_hal_flash_ex.c ****   */ 
  88:Drivers/STM32F0xx_HAL_Driver/Src/stm32f0xx_hal_flash_ex.c **** 
  89:Drivers/STM32F0xx_HAL_Driver/Src/stm32f0xx_hal_flash_ex.c **** /* Private variables ---------------------------------------------------------*/
ARM GAS  C:\Users\mason\AppData\Local\Temp\ccXzLFKH.s 			page 3


  90:Drivers/STM32F0xx_HAL_Driver/Src/stm32f0xx_hal_flash_ex.c **** /* Private function prototypes -----------------------------------------------*/
  91:Drivers/STM32F0xx_HAL_Driver/Src/stm32f0xx_hal_flash_ex.c **** /** @defgroup FLASHEx_Private_Functions FLASHEx Private Functions
  92:Drivers/STM32F0xx_HAL_Driver/Src/stm32f0xx_hal_flash_ex.c ****  * @{
  93:Drivers/STM32F0xx_HAL_Driver/Src/stm32f0xx_hal_flash_ex.c ****  */
  94:Drivers/STM32F0xx_HAL_Driver/Src/stm32f0xx_hal_flash_ex.c **** /* Erase operations */
  95:Drivers/STM32F0xx_HAL_Driver/Src/stm32f0xx_hal_flash_ex.c **** static void              FLASH_MassErase(void);
  96:Drivers/STM32F0xx_HAL_Driver/Src/stm32f0xx_hal_flash_ex.c **** void    FLASH_PageErase(uint32_t PageAddress);
  97:Drivers/STM32F0xx_HAL_Driver/Src/stm32f0xx_hal_flash_ex.c **** 
  98:Drivers/STM32F0xx_HAL_Driver/Src/stm32f0xx_hal_flash_ex.c **** /* Option bytes control */
  99:Drivers/STM32F0xx_HAL_Driver/Src/stm32f0xx_hal_flash_ex.c **** static HAL_StatusTypeDef FLASH_OB_EnableWRP(uint32_t WriteProtectPage);
 100:Drivers/STM32F0xx_HAL_Driver/Src/stm32f0xx_hal_flash_ex.c **** static HAL_StatusTypeDef FLASH_OB_DisableWRP(uint32_t WriteProtectPage);
 101:Drivers/STM32F0xx_HAL_Driver/Src/stm32f0xx_hal_flash_ex.c **** static HAL_StatusTypeDef FLASH_OB_RDP_LevelConfig(uint8_t ReadProtectLevel);
 102:Drivers/STM32F0xx_HAL_Driver/Src/stm32f0xx_hal_flash_ex.c **** static HAL_StatusTypeDef FLASH_OB_UserConfig(uint8_t UserConfig);
 103:Drivers/STM32F0xx_HAL_Driver/Src/stm32f0xx_hal_flash_ex.c **** static HAL_StatusTypeDef FLASH_OB_ProgramData(uint32_t Address, uint8_t Data);
 104:Drivers/STM32F0xx_HAL_Driver/Src/stm32f0xx_hal_flash_ex.c **** static uint32_t          FLASH_OB_GetWRP(void);
 105:Drivers/STM32F0xx_HAL_Driver/Src/stm32f0xx_hal_flash_ex.c **** static uint32_t          FLASH_OB_GetRDP(void);
 106:Drivers/STM32F0xx_HAL_Driver/Src/stm32f0xx_hal_flash_ex.c **** static uint8_t           FLASH_OB_GetUser(void);
 107:Drivers/STM32F0xx_HAL_Driver/Src/stm32f0xx_hal_flash_ex.c **** 
 108:Drivers/STM32F0xx_HAL_Driver/Src/stm32f0xx_hal_flash_ex.c **** /**
 109:Drivers/STM32F0xx_HAL_Driver/Src/stm32f0xx_hal_flash_ex.c ****   * @}
 110:Drivers/STM32F0xx_HAL_Driver/Src/stm32f0xx_hal_flash_ex.c ****   */
 111:Drivers/STM32F0xx_HAL_Driver/Src/stm32f0xx_hal_flash_ex.c **** 
 112:Drivers/STM32F0xx_HAL_Driver/Src/stm32f0xx_hal_flash_ex.c **** /* Exported functions ---------------------------------------------------------*/
 113:Drivers/STM32F0xx_HAL_Driver/Src/stm32f0xx_hal_flash_ex.c **** /** @defgroup FLASHEx_Exported_Functions FLASHEx Exported Functions
 114:Drivers/STM32F0xx_HAL_Driver/Src/stm32f0xx_hal_flash_ex.c ****   * @{
 115:Drivers/STM32F0xx_HAL_Driver/Src/stm32f0xx_hal_flash_ex.c ****   */
 116:Drivers/STM32F0xx_HAL_Driver/Src/stm32f0xx_hal_flash_ex.c ****   
 117:Drivers/STM32F0xx_HAL_Driver/Src/stm32f0xx_hal_flash_ex.c **** /** @defgroup FLASHEx_Exported_Functions_Group1 FLASHEx Memory Erasing functions
 118:Drivers/STM32F0xx_HAL_Driver/Src/stm32f0xx_hal_flash_ex.c ****  *  @brief   FLASH Memory Erasing functions
 119:Drivers/STM32F0xx_HAL_Driver/Src/stm32f0xx_hal_flash_ex.c ****   *
 120:Drivers/STM32F0xx_HAL_Driver/Src/stm32f0xx_hal_flash_ex.c **** @verbatim   
 121:Drivers/STM32F0xx_HAL_Driver/Src/stm32f0xx_hal_flash_ex.c ****   ==============================================================================
 122:Drivers/STM32F0xx_HAL_Driver/Src/stm32f0xx_hal_flash_ex.c ****                 ##### FLASH Erasing Programming functions ##### 
 123:Drivers/STM32F0xx_HAL_Driver/Src/stm32f0xx_hal_flash_ex.c ****   ==============================================================================
 124:Drivers/STM32F0xx_HAL_Driver/Src/stm32f0xx_hal_flash_ex.c **** 
 125:Drivers/STM32F0xx_HAL_Driver/Src/stm32f0xx_hal_flash_ex.c ****     [..] The FLASH Memory Erasing functions, includes the following functions:
 126:Drivers/STM32F0xx_HAL_Driver/Src/stm32f0xx_hal_flash_ex.c ****     (+) HAL_FLASHEx_Erase: return only when erase has been done
 127:Drivers/STM32F0xx_HAL_Driver/Src/stm32f0xx_hal_flash_ex.c ****     (+) HAL_FLASHEx_Erase_IT: end of erase is done when HAL_FLASH_EndOfOperationCallback 
 128:Drivers/STM32F0xx_HAL_Driver/Src/stm32f0xx_hal_flash_ex.c ****         is called with parameter 0xFFFFFFFF
 129:Drivers/STM32F0xx_HAL_Driver/Src/stm32f0xx_hal_flash_ex.c **** 
 130:Drivers/STM32F0xx_HAL_Driver/Src/stm32f0xx_hal_flash_ex.c ****     [..] Any operation of erase should follow these steps:
 131:Drivers/STM32F0xx_HAL_Driver/Src/stm32f0xx_hal_flash_ex.c ****     (#) Call the HAL_FLASH_Unlock() function to enable the flash control register and 
 132:Drivers/STM32F0xx_HAL_Driver/Src/stm32f0xx_hal_flash_ex.c ****         program memory access.
 133:Drivers/STM32F0xx_HAL_Driver/Src/stm32f0xx_hal_flash_ex.c ****     (#) Call the desired function to erase page.
 134:Drivers/STM32F0xx_HAL_Driver/Src/stm32f0xx_hal_flash_ex.c ****     (#) Call the HAL_FLASH_Lock() to disable the flash program memory access 
 135:Drivers/STM32F0xx_HAL_Driver/Src/stm32f0xx_hal_flash_ex.c ****        (recommended to protect the FLASH memory against possible unwanted operation).
 136:Drivers/STM32F0xx_HAL_Driver/Src/stm32f0xx_hal_flash_ex.c **** 
 137:Drivers/STM32F0xx_HAL_Driver/Src/stm32f0xx_hal_flash_ex.c **** @endverbatim
 138:Drivers/STM32F0xx_HAL_Driver/Src/stm32f0xx_hal_flash_ex.c ****   * @{
 139:Drivers/STM32F0xx_HAL_Driver/Src/stm32f0xx_hal_flash_ex.c ****   */
 140:Drivers/STM32F0xx_HAL_Driver/Src/stm32f0xx_hal_flash_ex.c ****   
 141:Drivers/STM32F0xx_HAL_Driver/Src/stm32f0xx_hal_flash_ex.c **** 
 142:Drivers/STM32F0xx_HAL_Driver/Src/stm32f0xx_hal_flash_ex.c **** /**
 143:Drivers/STM32F0xx_HAL_Driver/Src/stm32f0xx_hal_flash_ex.c ****   * @brief  Perform a mass erase or erase the specified FLASH memory pages
 144:Drivers/STM32F0xx_HAL_Driver/Src/stm32f0xx_hal_flash_ex.c ****   * @note   To correctly run this function, the @ref HAL_FLASH_Unlock() function
 145:Drivers/STM32F0xx_HAL_Driver/Src/stm32f0xx_hal_flash_ex.c ****   *         must be called before.
 146:Drivers/STM32F0xx_HAL_Driver/Src/stm32f0xx_hal_flash_ex.c ****   *         Call the @ref HAL_FLASH_Lock() to disable the flash memory access 
ARM GAS  C:\Users\mason\AppData\Local\Temp\ccXzLFKH.s 			page 4


 147:Drivers/STM32F0xx_HAL_Driver/Src/stm32f0xx_hal_flash_ex.c ****   *         (recommended to protect the FLASH memory against possible unwanted operation)
 148:Drivers/STM32F0xx_HAL_Driver/Src/stm32f0xx_hal_flash_ex.c ****   * @param[in]  pEraseInit pointer to an FLASH_EraseInitTypeDef structure that
 149:Drivers/STM32F0xx_HAL_Driver/Src/stm32f0xx_hal_flash_ex.c ****   *         contains the configuration information for the erasing.
 150:Drivers/STM32F0xx_HAL_Driver/Src/stm32f0xx_hal_flash_ex.c ****   *
 151:Drivers/STM32F0xx_HAL_Driver/Src/stm32f0xx_hal_flash_ex.c ****   * @param[out]  PageError pointer to variable  that
 152:Drivers/STM32F0xx_HAL_Driver/Src/stm32f0xx_hal_flash_ex.c ****   *         contains the configuration information on faulty page in case of error
 153:Drivers/STM32F0xx_HAL_Driver/Src/stm32f0xx_hal_flash_ex.c ****   *         (0xFFFFFFFF means that all the pages have been correctly erased)
 154:Drivers/STM32F0xx_HAL_Driver/Src/stm32f0xx_hal_flash_ex.c ****   *
 155:Drivers/STM32F0xx_HAL_Driver/Src/stm32f0xx_hal_flash_ex.c ****   * @retval HAL_StatusTypeDef HAL Status
 156:Drivers/STM32F0xx_HAL_Driver/Src/stm32f0xx_hal_flash_ex.c ****   */
 157:Drivers/STM32F0xx_HAL_Driver/Src/stm32f0xx_hal_flash_ex.c **** HAL_StatusTypeDef HAL_FLASHEx_Erase(FLASH_EraseInitTypeDef *pEraseInit, uint32_t *PageError)
 158:Drivers/STM32F0xx_HAL_Driver/Src/stm32f0xx_hal_flash_ex.c **** {
  27              		.loc 1 158 1
  28              		.cfi_startproc
  29              		@ args = 0, pretend = 0, frame = 16
  30              		@ frame_needed = 1, uses_anonymous_args = 0
  31 0000 B0B5     		push	{r4, r5, r7, lr}
  32              	.LCFI0:
  33              		.cfi_def_cfa_offset 16
  34              		.cfi_offset 4, -16
  35              		.cfi_offset 5, -12
  36              		.cfi_offset 7, -8
  37              		.cfi_offset 14, -4
  38 0002 84B0     		sub	sp, sp, #16
  39              	.LCFI1:
  40              		.cfi_def_cfa_offset 32
  41 0004 00AF     		add	r7, sp, #0
  42              	.LCFI2:
  43              		.cfi_def_cfa_register 7
  44 0006 7860     		str	r0, [r7, #4]
  45 0008 3960     		str	r1, [r7]
 159:Drivers/STM32F0xx_HAL_Driver/Src/stm32f0xx_hal_flash_ex.c ****   HAL_StatusTypeDef status = HAL_ERROR;
  46              		.loc 1 159 21
  47 000a 0F23     		movs	r3, #15
  48 000c FB18     		adds	r3, r7, r3
  49 000e 0122     		movs	r2, #1
  50 0010 1A70     		strb	r2, [r3]
 160:Drivers/STM32F0xx_HAL_Driver/Src/stm32f0xx_hal_flash_ex.c ****   uint32_t address = 0U;
  51              		.loc 1 160 12
  52 0012 0023     		movs	r3, #0
  53 0014 BB60     		str	r3, [r7, #8]
 161:Drivers/STM32F0xx_HAL_Driver/Src/stm32f0xx_hal_flash_ex.c **** 
 162:Drivers/STM32F0xx_HAL_Driver/Src/stm32f0xx_hal_flash_ex.c ****   /* Process Locked */
 163:Drivers/STM32F0xx_HAL_Driver/Src/stm32f0xx_hal_flash_ex.c ****   __HAL_LOCK(&pFlash);
  54              		.loc 1 163 3
  55 0016 324B     		ldr	r3, .L9
  56 0018 1B7E     		ldrb	r3, [r3, #24]
  57 001a 012B     		cmp	r3, #1
  58 001c 01D1     		bne	.L2
  59              		.loc 1 163 3 is_stmt 0 discriminator 1
  60 001e 0223     		movs	r3, #2
  61 0020 5AE0     		b	.L3
  62              	.L2:
  63              		.loc 1 163 3 discriminator 2
  64 0022 2F4B     		ldr	r3, .L9
  65 0024 0122     		movs	r2, #1
  66 0026 1A76     		strb	r2, [r3, #24]
ARM GAS  C:\Users\mason\AppData\Local\Temp\ccXzLFKH.s 			page 5


 164:Drivers/STM32F0xx_HAL_Driver/Src/stm32f0xx_hal_flash_ex.c **** 
 165:Drivers/STM32F0xx_HAL_Driver/Src/stm32f0xx_hal_flash_ex.c ****   /* Check the parameters */
 166:Drivers/STM32F0xx_HAL_Driver/Src/stm32f0xx_hal_flash_ex.c ****   assert_param(IS_FLASH_TYPEERASE(pEraseInit->TypeErase));
 167:Drivers/STM32F0xx_HAL_Driver/Src/stm32f0xx_hal_flash_ex.c **** 
 168:Drivers/STM32F0xx_HAL_Driver/Src/stm32f0xx_hal_flash_ex.c ****   if (pEraseInit->TypeErase == FLASH_TYPEERASE_MASSERASE)
  67              		.loc 1 168 17 is_stmt 1 discriminator 2
  68 0028 7B68     		ldr	r3, [r7, #4]
  69 002a 1B68     		ldr	r3, [r3]
  70              		.loc 1 168 6 discriminator 2
  71 002c 012B     		cmp	r3, #1
  72 002e 16D1     		bne	.L4
 169:Drivers/STM32F0xx_HAL_Driver/Src/stm32f0xx_hal_flash_ex.c ****   {
 170:Drivers/STM32F0xx_HAL_Driver/Src/stm32f0xx_hal_flash_ex.c ****       /* Mass Erase requested for Bank1 */
 171:Drivers/STM32F0xx_HAL_Driver/Src/stm32f0xx_hal_flash_ex.c ****       /* Wait for last operation to be completed */
 172:Drivers/STM32F0xx_HAL_Driver/Src/stm32f0xx_hal_flash_ex.c ****       if (FLASH_WaitForLastOperation((uint32_t)FLASH_TIMEOUT_VALUE) == HAL_OK)
  73              		.loc 1 172 11
  74 0030 2C4B     		ldr	r3, .L9+4
  75 0032 1800     		movs	r0, r3
  76 0034 FFF7FEFF 		bl	FLASH_WaitForLastOperation
  77 0038 031E     		subs	r3, r0, #0
  78              		.loc 1 172 10
  79 003a 47D1     		bne	.L5
 173:Drivers/STM32F0xx_HAL_Driver/Src/stm32f0xx_hal_flash_ex.c ****       {
 174:Drivers/STM32F0xx_HAL_Driver/Src/stm32f0xx_hal_flash_ex.c ****         /*Mass erase to be done*/
 175:Drivers/STM32F0xx_HAL_Driver/Src/stm32f0xx_hal_flash_ex.c ****         FLASH_MassErase();
  80              		.loc 1 175 9
  81 003c FFF7FEFF 		bl	FLASH_MassErase
 176:Drivers/STM32F0xx_HAL_Driver/Src/stm32f0xx_hal_flash_ex.c ****         
 177:Drivers/STM32F0xx_HAL_Driver/Src/stm32f0xx_hal_flash_ex.c ****         /* Wait for last operation to be completed */
 178:Drivers/STM32F0xx_HAL_Driver/Src/stm32f0xx_hal_flash_ex.c ****         status = FLASH_WaitForLastOperation((uint32_t)FLASH_TIMEOUT_VALUE);
  82              		.loc 1 178 18
  83 0040 0F23     		movs	r3, #15
  84 0042 FC18     		adds	r4, r7, r3
  85 0044 274B     		ldr	r3, .L9+4
  86 0046 1800     		movs	r0, r3
  87 0048 FFF7FEFF 		bl	FLASH_WaitForLastOperation
  88 004c 0300     		movs	r3, r0
  89 004e 2370     		strb	r3, [r4]
 179:Drivers/STM32F0xx_HAL_Driver/Src/stm32f0xx_hal_flash_ex.c ****         
 180:Drivers/STM32F0xx_HAL_Driver/Src/stm32f0xx_hal_flash_ex.c ****         /* If the erase operation is completed, disable the MER Bit */
 181:Drivers/STM32F0xx_HAL_Driver/Src/stm32f0xx_hal_flash_ex.c ****         CLEAR_BIT(FLASH->CR, FLASH_CR_MER);
  90              		.loc 1 181 9
  91 0050 254B     		ldr	r3, .L9+8
  92 0052 1A69     		ldr	r2, [r3, #16]
  93 0054 244B     		ldr	r3, .L9+8
  94 0056 0421     		movs	r1, #4
  95 0058 8A43     		bics	r2, r1
  96 005a 1A61     		str	r2, [r3, #16]
  97 005c 36E0     		b	.L5
  98              	.L4:
 182:Drivers/STM32F0xx_HAL_Driver/Src/stm32f0xx_hal_flash_ex.c ****       }
 183:Drivers/STM32F0xx_HAL_Driver/Src/stm32f0xx_hal_flash_ex.c ****   }
 184:Drivers/STM32F0xx_HAL_Driver/Src/stm32f0xx_hal_flash_ex.c ****   else
 185:Drivers/STM32F0xx_HAL_Driver/Src/stm32f0xx_hal_flash_ex.c ****   {
 186:Drivers/STM32F0xx_HAL_Driver/Src/stm32f0xx_hal_flash_ex.c ****     /* Page Erase is requested */
 187:Drivers/STM32F0xx_HAL_Driver/Src/stm32f0xx_hal_flash_ex.c ****     /* Check the parameters */
 188:Drivers/STM32F0xx_HAL_Driver/Src/stm32f0xx_hal_flash_ex.c ****     assert_param(IS_FLASH_PROGRAM_ADDRESS(pEraseInit->PageAddress));
ARM GAS  C:\Users\mason\AppData\Local\Temp\ccXzLFKH.s 			page 6


 189:Drivers/STM32F0xx_HAL_Driver/Src/stm32f0xx_hal_flash_ex.c ****     assert_param(IS_FLASH_NB_PAGES(pEraseInit->PageAddress, pEraseInit->NbPages));
 190:Drivers/STM32F0xx_HAL_Driver/Src/stm32f0xx_hal_flash_ex.c ****     
 191:Drivers/STM32F0xx_HAL_Driver/Src/stm32f0xx_hal_flash_ex.c ****       /* Page Erase requested on address located on bank1 */
 192:Drivers/STM32F0xx_HAL_Driver/Src/stm32f0xx_hal_flash_ex.c ****       /* Wait for last operation to be completed */
 193:Drivers/STM32F0xx_HAL_Driver/Src/stm32f0xx_hal_flash_ex.c ****       if (FLASH_WaitForLastOperation((uint32_t)FLASH_TIMEOUT_VALUE) == HAL_OK)
  99              		.loc 1 193 11
 100 005e 214B     		ldr	r3, .L9+4
 101 0060 1800     		movs	r0, r3
 102 0062 FFF7FEFF 		bl	FLASH_WaitForLastOperation
 103 0066 031E     		subs	r3, r0, #0
 104              		.loc 1 193 10
 105 0068 30D1     		bne	.L5
 194:Drivers/STM32F0xx_HAL_Driver/Src/stm32f0xx_hal_flash_ex.c ****       {
 195:Drivers/STM32F0xx_HAL_Driver/Src/stm32f0xx_hal_flash_ex.c ****         /*Initialization of PageError variable*/
 196:Drivers/STM32F0xx_HAL_Driver/Src/stm32f0xx_hal_flash_ex.c ****         *PageError = 0xFFFFFFFFU;
 106              		.loc 1 196 20
 107 006a 3B68     		ldr	r3, [r7]
 108 006c 0122     		movs	r2, #1
 109 006e 5242     		rsbs	r2, r2, #0
 110 0070 1A60     		str	r2, [r3]
 197:Drivers/STM32F0xx_HAL_Driver/Src/stm32f0xx_hal_flash_ex.c ****         
 198:Drivers/STM32F0xx_HAL_Driver/Src/stm32f0xx_hal_flash_ex.c ****         /* Erase page by page to be done*/
 199:Drivers/STM32F0xx_HAL_Driver/Src/stm32f0xx_hal_flash_ex.c ****         for(address = pEraseInit->PageAddress;
 111              		.loc 1 199 21
 112 0072 7B68     		ldr	r3, [r7, #4]
 113 0074 5B68     		ldr	r3, [r3, #4]
 114 0076 BB60     		str	r3, [r7, #8]
 115              		.loc 1 199 9
 116 0078 1FE0     		b	.L6
 117              	.L8:
 200:Drivers/STM32F0xx_HAL_Driver/Src/stm32f0xx_hal_flash_ex.c ****             address < ((pEraseInit->NbPages * FLASH_PAGE_SIZE) + pEraseInit->PageAddress);
 201:Drivers/STM32F0xx_HAL_Driver/Src/stm32f0xx_hal_flash_ex.c ****             address += FLASH_PAGE_SIZE)
 202:Drivers/STM32F0xx_HAL_Driver/Src/stm32f0xx_hal_flash_ex.c ****         {
 203:Drivers/STM32F0xx_HAL_Driver/Src/stm32f0xx_hal_flash_ex.c ****           FLASH_PageErase(address);
 118              		.loc 1 203 11
 119 007a BB68     		ldr	r3, [r7, #8]
 120 007c 1800     		movs	r0, r3
 121 007e FFF7FEFF 		bl	FLASH_PageErase
 204:Drivers/STM32F0xx_HAL_Driver/Src/stm32f0xx_hal_flash_ex.c ****           
 205:Drivers/STM32F0xx_HAL_Driver/Src/stm32f0xx_hal_flash_ex.c ****           /* Wait for last operation to be completed */
 206:Drivers/STM32F0xx_HAL_Driver/Src/stm32f0xx_hal_flash_ex.c ****           status = FLASH_WaitForLastOperation((uint32_t)FLASH_TIMEOUT_VALUE);
 122              		.loc 1 206 20
 123 0082 0F25     		movs	r5, #15
 124 0084 7C19     		adds	r4, r7, r5
 125 0086 174B     		ldr	r3, .L9+4
 126 0088 1800     		movs	r0, r3
 127 008a FFF7FEFF 		bl	FLASH_WaitForLastOperation
 128 008e 0300     		movs	r3, r0
 129 0090 2370     		strb	r3, [r4]
 207:Drivers/STM32F0xx_HAL_Driver/Src/stm32f0xx_hal_flash_ex.c ****           
 208:Drivers/STM32F0xx_HAL_Driver/Src/stm32f0xx_hal_flash_ex.c ****           /* If the erase operation is completed, disable the PER Bit */
 209:Drivers/STM32F0xx_HAL_Driver/Src/stm32f0xx_hal_flash_ex.c ****           CLEAR_BIT(FLASH->CR, FLASH_CR_PER);
 130              		.loc 1 209 11
 131 0092 154B     		ldr	r3, .L9+8
 132 0094 1A69     		ldr	r2, [r3, #16]
 133 0096 144B     		ldr	r3, .L9+8
 134 0098 0221     		movs	r1, #2
ARM GAS  C:\Users\mason\AppData\Local\Temp\ccXzLFKH.s 			page 7


 135 009a 8A43     		bics	r2, r1
 136 009c 1A61     		str	r2, [r3, #16]
 210:Drivers/STM32F0xx_HAL_Driver/Src/stm32f0xx_hal_flash_ex.c ****           
 211:Drivers/STM32F0xx_HAL_Driver/Src/stm32f0xx_hal_flash_ex.c ****           if (status != HAL_OK)
 137              		.loc 1 211 14
 138 009e 7B19     		adds	r3, r7, r5
 139 00a0 1B78     		ldrb	r3, [r3]
 140 00a2 002B     		cmp	r3, #0
 141 00a4 03D0     		beq	.L7
 212:Drivers/STM32F0xx_HAL_Driver/Src/stm32f0xx_hal_flash_ex.c ****           {
 213:Drivers/STM32F0xx_HAL_Driver/Src/stm32f0xx_hal_flash_ex.c ****             /* In case of error, stop erase procedure and return the faulty address */
 214:Drivers/STM32F0xx_HAL_Driver/Src/stm32f0xx_hal_flash_ex.c ****             *PageError = address;
 142              		.loc 1 214 24
 143 00a6 3B68     		ldr	r3, [r7]
 144 00a8 BA68     		ldr	r2, [r7, #8]
 145 00aa 1A60     		str	r2, [r3]
 215:Drivers/STM32F0xx_HAL_Driver/Src/stm32f0xx_hal_flash_ex.c ****             break;
 146              		.loc 1 215 13
 147 00ac 0EE0     		b	.L5
 148              	.L7:
 201:Drivers/STM32F0xx_HAL_Driver/Src/stm32f0xx_hal_flash_ex.c ****         {
 149              		.loc 1 201 21
 150 00ae BB68     		ldr	r3, [r7, #8]
 151 00b0 8022     		movs	r2, #128
 152 00b2 D200     		lsls	r2, r2, #3
 153 00b4 9446     		mov	ip, r2
 154 00b6 6344     		add	r3, r3, ip
 155 00b8 BB60     		str	r3, [r7, #8]
 156              	.L6:
 200:Drivers/STM32F0xx_HAL_Driver/Src/stm32f0xx_hal_flash_ex.c ****             address += FLASH_PAGE_SIZE)
 157              		.loc 1 200 35 discriminator 1
 158 00ba 7B68     		ldr	r3, [r7, #4]
 159 00bc 9B68     		ldr	r3, [r3, #8]
 200:Drivers/STM32F0xx_HAL_Driver/Src/stm32f0xx_hal_flash_ex.c ****             address += FLASH_PAGE_SIZE)
 160              		.loc 1 200 45 discriminator 1
 161 00be 9A02     		lsls	r2, r3, #10
 200:Drivers/STM32F0xx_HAL_Driver/Src/stm32f0xx_hal_flash_ex.c ****             address += FLASH_PAGE_SIZE)
 162              		.loc 1 200 76 discriminator 1
 163 00c0 7B68     		ldr	r3, [r7, #4]
 164 00c2 5B68     		ldr	r3, [r3, #4]
 200:Drivers/STM32F0xx_HAL_Driver/Src/stm32f0xx_hal_flash_ex.c ****             address += FLASH_PAGE_SIZE)
 165              		.loc 1 200 64 discriminator 1
 166 00c4 D318     		adds	r3, r2, r3
 199:Drivers/STM32F0xx_HAL_Driver/Src/stm32f0xx_hal_flash_ex.c ****             address < ((pEraseInit->NbPages * FLASH_PAGE_SIZE) + pEraseInit->PageAddress);
 167              		.loc 1 199 9 discriminator 1
 168 00c6 BA68     		ldr	r2, [r7, #8]
 169 00c8 9A42     		cmp	r2, r3
 170 00ca D6D3     		bcc	.L8
 171              	.L5:
 216:Drivers/STM32F0xx_HAL_Driver/Src/stm32f0xx_hal_flash_ex.c ****           }
 217:Drivers/STM32F0xx_HAL_Driver/Src/stm32f0xx_hal_flash_ex.c ****         }
 218:Drivers/STM32F0xx_HAL_Driver/Src/stm32f0xx_hal_flash_ex.c ****       }
 219:Drivers/STM32F0xx_HAL_Driver/Src/stm32f0xx_hal_flash_ex.c ****   }
 220:Drivers/STM32F0xx_HAL_Driver/Src/stm32f0xx_hal_flash_ex.c **** 
 221:Drivers/STM32F0xx_HAL_Driver/Src/stm32f0xx_hal_flash_ex.c ****   /* Process Unlocked */
 222:Drivers/STM32F0xx_HAL_Driver/Src/stm32f0xx_hal_flash_ex.c ****   __HAL_UNLOCK(&pFlash);
 172              		.loc 1 222 3
ARM GAS  C:\Users\mason\AppData\Local\Temp\ccXzLFKH.s 			page 8


 173 00cc 044B     		ldr	r3, .L9
 174 00ce 0022     		movs	r2, #0
 175 00d0 1A76     		strb	r2, [r3, #24]
 223:Drivers/STM32F0xx_HAL_Driver/Src/stm32f0xx_hal_flash_ex.c **** 
 224:Drivers/STM32F0xx_HAL_Driver/Src/stm32f0xx_hal_flash_ex.c ****   return status;
 176              		.loc 1 224 10
 177 00d2 0F23     		movs	r3, #15
 178 00d4 FB18     		adds	r3, r7, r3
 179 00d6 1B78     		ldrb	r3, [r3]
 180              	.L3:
 225:Drivers/STM32F0xx_HAL_Driver/Src/stm32f0xx_hal_flash_ex.c **** }
 181              		.loc 1 225 1
 182 00d8 1800     		movs	r0, r3
 183 00da BD46     		mov	sp, r7
 184 00dc 04B0     		add	sp, sp, #16
 185              		@ sp needed
 186 00de B0BD     		pop	{r4, r5, r7, pc}
 187              	.L10:
 188              		.align	2
 189              	.L9:
 190 00e0 00000000 		.word	pFlash
 191 00e4 50C30000 		.word	50000
 192 00e8 00200240 		.word	1073881088
 193              		.cfi_endproc
 194              	.LFE40:
 196              		.section	.text.HAL_FLASHEx_Erase_IT,"ax",%progbits
 197              		.align	1
 198              		.global	HAL_FLASHEx_Erase_IT
 199              		.syntax unified
 200              		.code	16
 201              		.thumb_func
 203              	HAL_FLASHEx_Erase_IT:
 204              	.LFB41:
 226:Drivers/STM32F0xx_HAL_Driver/Src/stm32f0xx_hal_flash_ex.c **** 
 227:Drivers/STM32F0xx_HAL_Driver/Src/stm32f0xx_hal_flash_ex.c **** /**
 228:Drivers/STM32F0xx_HAL_Driver/Src/stm32f0xx_hal_flash_ex.c ****   * @brief  Perform a mass erase or erase the specified FLASH memory pages with interrupt enabled
 229:Drivers/STM32F0xx_HAL_Driver/Src/stm32f0xx_hal_flash_ex.c ****   * @note   To correctly run this function, the @ref HAL_FLASH_Unlock() function
 230:Drivers/STM32F0xx_HAL_Driver/Src/stm32f0xx_hal_flash_ex.c ****   *         must be called before.
 231:Drivers/STM32F0xx_HAL_Driver/Src/stm32f0xx_hal_flash_ex.c ****   *         Call the @ref HAL_FLASH_Lock() to disable the flash memory access 
 232:Drivers/STM32F0xx_HAL_Driver/Src/stm32f0xx_hal_flash_ex.c ****   *         (recommended to protect the FLASH memory against possible unwanted operation)
 233:Drivers/STM32F0xx_HAL_Driver/Src/stm32f0xx_hal_flash_ex.c ****   * @param  pEraseInit pointer to an FLASH_EraseInitTypeDef structure that
 234:Drivers/STM32F0xx_HAL_Driver/Src/stm32f0xx_hal_flash_ex.c ****   *         contains the configuration information for the erasing.
 235:Drivers/STM32F0xx_HAL_Driver/Src/stm32f0xx_hal_flash_ex.c ****   *
 236:Drivers/STM32F0xx_HAL_Driver/Src/stm32f0xx_hal_flash_ex.c ****   * @retval HAL_StatusTypeDef HAL Status
 237:Drivers/STM32F0xx_HAL_Driver/Src/stm32f0xx_hal_flash_ex.c ****   */
 238:Drivers/STM32F0xx_HAL_Driver/Src/stm32f0xx_hal_flash_ex.c **** HAL_StatusTypeDef HAL_FLASHEx_Erase_IT(FLASH_EraseInitTypeDef *pEraseInit)
 239:Drivers/STM32F0xx_HAL_Driver/Src/stm32f0xx_hal_flash_ex.c **** {
 205              		.loc 1 239 1
 206              		.cfi_startproc
 207              		@ args = 0, pretend = 0, frame = 16
 208              		@ frame_needed = 1, uses_anonymous_args = 0
 209 0000 80B5     		push	{r7, lr}
 210              	.LCFI3:
 211              		.cfi_def_cfa_offset 8
 212              		.cfi_offset 7, -8
 213              		.cfi_offset 14, -4
 214 0002 84B0     		sub	sp, sp, #16
ARM GAS  C:\Users\mason\AppData\Local\Temp\ccXzLFKH.s 			page 9


 215              	.LCFI4:
 216              		.cfi_def_cfa_offset 24
 217 0004 00AF     		add	r7, sp, #0
 218              	.LCFI5:
 219              		.cfi_def_cfa_register 7
 220 0006 7860     		str	r0, [r7, #4]
 240:Drivers/STM32F0xx_HAL_Driver/Src/stm32f0xx_hal_flash_ex.c ****   HAL_StatusTypeDef status = HAL_OK;
 221              		.loc 1 240 21
 222 0008 0F23     		movs	r3, #15
 223 000a FB18     		adds	r3, r7, r3
 224 000c 0022     		movs	r2, #0
 225 000e 1A70     		strb	r2, [r3]
 241:Drivers/STM32F0xx_HAL_Driver/Src/stm32f0xx_hal_flash_ex.c **** 
 242:Drivers/STM32F0xx_HAL_Driver/Src/stm32f0xx_hal_flash_ex.c ****   /* Process Locked */
 243:Drivers/STM32F0xx_HAL_Driver/Src/stm32f0xx_hal_flash_ex.c ****   __HAL_LOCK(&pFlash);
 226              		.loc 1 243 3
 227 0010 1B4B     		ldr	r3, .L17
 228 0012 1B7E     		ldrb	r3, [r3, #24]
 229 0014 012B     		cmp	r3, #1
 230 0016 01D1     		bne	.L12
 231              		.loc 1 243 3 is_stmt 0 discriminator 1
 232 0018 0223     		movs	r3, #2
 233 001a 2DE0     		b	.L13
 234              	.L12:
 235              		.loc 1 243 3 discriminator 2
 236 001c 184B     		ldr	r3, .L17
 237 001e 0122     		movs	r2, #1
 238 0020 1A76     		strb	r2, [r3, #24]
 244:Drivers/STM32F0xx_HAL_Driver/Src/stm32f0xx_hal_flash_ex.c **** 
 245:Drivers/STM32F0xx_HAL_Driver/Src/stm32f0xx_hal_flash_ex.c ****   /* If procedure already ongoing, reject the next one */
 246:Drivers/STM32F0xx_HAL_Driver/Src/stm32f0xx_hal_flash_ex.c ****   if (pFlash.ProcedureOnGoing != FLASH_PROC_NONE)
 239              		.loc 1 246 13 is_stmt 1 discriminator 2
 240 0022 174B     		ldr	r3, .L17
 241 0024 1B78     		ldrb	r3, [r3]
 242 0026 DBB2     		uxtb	r3, r3
 243              		.loc 1 246 6 discriminator 2
 244 0028 002B     		cmp	r3, #0
 245 002a 01D0     		beq	.L14
 247:Drivers/STM32F0xx_HAL_Driver/Src/stm32f0xx_hal_flash_ex.c ****   {
 248:Drivers/STM32F0xx_HAL_Driver/Src/stm32f0xx_hal_flash_ex.c ****     return HAL_ERROR;
 246              		.loc 1 248 12
 247 002c 0123     		movs	r3, #1
 248 002e 23E0     		b	.L13
 249              	.L14:
 249:Drivers/STM32F0xx_HAL_Driver/Src/stm32f0xx_hal_flash_ex.c ****   }
 250:Drivers/STM32F0xx_HAL_Driver/Src/stm32f0xx_hal_flash_ex.c ****   
 251:Drivers/STM32F0xx_HAL_Driver/Src/stm32f0xx_hal_flash_ex.c ****   /* Check the parameters */
 252:Drivers/STM32F0xx_HAL_Driver/Src/stm32f0xx_hal_flash_ex.c ****   assert_param(IS_FLASH_TYPEERASE(pEraseInit->TypeErase));
 253:Drivers/STM32F0xx_HAL_Driver/Src/stm32f0xx_hal_flash_ex.c **** 
 254:Drivers/STM32F0xx_HAL_Driver/Src/stm32f0xx_hal_flash_ex.c ****   /* Enable End of FLASH Operation and Error source interrupts */
 255:Drivers/STM32F0xx_HAL_Driver/Src/stm32f0xx_hal_flash_ex.c ****   __HAL_FLASH_ENABLE_IT(FLASH_IT_EOP | FLASH_IT_ERR);
 250              		.loc 1 255 3
 251 0030 144B     		ldr	r3, .L17+4
 252 0032 1A69     		ldr	r2, [r3, #16]
 253 0034 134B     		ldr	r3, .L17+4
 254 0036 A021     		movs	r1, #160
 255 0038 4901     		lsls	r1, r1, #5
ARM GAS  C:\Users\mason\AppData\Local\Temp\ccXzLFKH.s 			page 10


 256 003a 0A43     		orrs	r2, r1
 257 003c 1A61     		str	r2, [r3, #16]
 256:Drivers/STM32F0xx_HAL_Driver/Src/stm32f0xx_hal_flash_ex.c **** 
 257:Drivers/STM32F0xx_HAL_Driver/Src/stm32f0xx_hal_flash_ex.c ****   if (pEraseInit->TypeErase == FLASH_TYPEERASE_MASSERASE)
 258              		.loc 1 257 17
 259 003e 7B68     		ldr	r3, [r7, #4]
 260 0040 1B68     		ldr	r3, [r3]
 261              		.loc 1 257 6
 262 0042 012B     		cmp	r3, #1
 263 0044 05D1     		bne	.L15
 258:Drivers/STM32F0xx_HAL_Driver/Src/stm32f0xx_hal_flash_ex.c ****   {
 259:Drivers/STM32F0xx_HAL_Driver/Src/stm32f0xx_hal_flash_ex.c ****     /*Mass erase to be done*/
 260:Drivers/STM32F0xx_HAL_Driver/Src/stm32f0xx_hal_flash_ex.c ****     pFlash.ProcedureOnGoing = FLASH_PROC_MASSERASE;
 264              		.loc 1 260 29
 265 0046 0E4B     		ldr	r3, .L17
 266 0048 0222     		movs	r2, #2
 267 004a 1A70     		strb	r2, [r3]
 261:Drivers/STM32F0xx_HAL_Driver/Src/stm32f0xx_hal_flash_ex.c ****         FLASH_MassErase();
 268              		.loc 1 261 9
 269 004c FFF7FEFF 		bl	FLASH_MassErase
 270 0050 0FE0     		b	.L16
 271              	.L15:
 262:Drivers/STM32F0xx_HAL_Driver/Src/stm32f0xx_hal_flash_ex.c ****   }
 263:Drivers/STM32F0xx_HAL_Driver/Src/stm32f0xx_hal_flash_ex.c ****   else
 264:Drivers/STM32F0xx_HAL_Driver/Src/stm32f0xx_hal_flash_ex.c ****   {
 265:Drivers/STM32F0xx_HAL_Driver/Src/stm32f0xx_hal_flash_ex.c ****     /* Erase by page to be done*/
 266:Drivers/STM32F0xx_HAL_Driver/Src/stm32f0xx_hal_flash_ex.c **** 
 267:Drivers/STM32F0xx_HAL_Driver/Src/stm32f0xx_hal_flash_ex.c ****     /* Check the parameters */
 268:Drivers/STM32F0xx_HAL_Driver/Src/stm32f0xx_hal_flash_ex.c ****     assert_param(IS_FLASH_PROGRAM_ADDRESS(pEraseInit->PageAddress));
 269:Drivers/STM32F0xx_HAL_Driver/Src/stm32f0xx_hal_flash_ex.c ****     assert_param(IS_FLASH_NB_PAGES(pEraseInit->PageAddress, pEraseInit->NbPages));
 270:Drivers/STM32F0xx_HAL_Driver/Src/stm32f0xx_hal_flash_ex.c **** 
 271:Drivers/STM32F0xx_HAL_Driver/Src/stm32f0xx_hal_flash_ex.c ****     pFlash.ProcedureOnGoing = FLASH_PROC_PAGEERASE;
 272              		.loc 1 271 29
 273 0052 0B4B     		ldr	r3, .L17
 274 0054 0122     		movs	r2, #1
 275 0056 1A70     		strb	r2, [r3]
 272:Drivers/STM32F0xx_HAL_Driver/Src/stm32f0xx_hal_flash_ex.c ****     pFlash.DataRemaining = pEraseInit->NbPages;
 276              		.loc 1 272 38
 277 0058 7B68     		ldr	r3, [r7, #4]
 278 005a 9A68     		ldr	r2, [r3, #8]
 279              		.loc 1 272 26
 280 005c 084B     		ldr	r3, .L17
 281 005e 5A60     		str	r2, [r3, #4]
 273:Drivers/STM32F0xx_HAL_Driver/Src/stm32f0xx_hal_flash_ex.c ****     pFlash.Address = pEraseInit->PageAddress;
 282              		.loc 1 273 32
 283 0060 7B68     		ldr	r3, [r7, #4]
 284 0062 5A68     		ldr	r2, [r3, #4]
 285              		.loc 1 273 20
 286 0064 064B     		ldr	r3, .L17
 287 0066 9A60     		str	r2, [r3, #8]
 274:Drivers/STM32F0xx_HAL_Driver/Src/stm32f0xx_hal_flash_ex.c **** 
 275:Drivers/STM32F0xx_HAL_Driver/Src/stm32f0xx_hal_flash_ex.c ****     /*Erase 1st page and wait for IT*/
 276:Drivers/STM32F0xx_HAL_Driver/Src/stm32f0xx_hal_flash_ex.c ****     FLASH_PageErase(pEraseInit->PageAddress);
 288              		.loc 1 276 5
 289 0068 7B68     		ldr	r3, [r7, #4]
 290 006a 5B68     		ldr	r3, [r3, #4]
 291 006c 1800     		movs	r0, r3
ARM GAS  C:\Users\mason\AppData\Local\Temp\ccXzLFKH.s 			page 11


 292 006e FFF7FEFF 		bl	FLASH_PageErase
 293              	.L16:
 277:Drivers/STM32F0xx_HAL_Driver/Src/stm32f0xx_hal_flash_ex.c ****   }
 278:Drivers/STM32F0xx_HAL_Driver/Src/stm32f0xx_hal_flash_ex.c **** 
 279:Drivers/STM32F0xx_HAL_Driver/Src/stm32f0xx_hal_flash_ex.c ****   return status;
 294              		.loc 1 279 10
 295 0072 0F23     		movs	r3, #15
 296 0074 FB18     		adds	r3, r7, r3
 297 0076 1B78     		ldrb	r3, [r3]
 298              	.L13:
 280:Drivers/STM32F0xx_HAL_Driver/Src/stm32f0xx_hal_flash_ex.c **** }
 299              		.loc 1 280 1
 300 0078 1800     		movs	r0, r3
 301 007a BD46     		mov	sp, r7
 302 007c 04B0     		add	sp, sp, #16
 303              		@ sp needed
 304 007e 80BD     		pop	{r7, pc}
 305              	.L18:
 306              		.align	2
 307              	.L17:
 308 0080 00000000 		.word	pFlash
 309 0084 00200240 		.word	1073881088
 310              		.cfi_endproc
 311              	.LFE41:
 313              		.section	.text.HAL_FLASHEx_OBErase,"ax",%progbits
 314              		.align	1
 315              		.global	HAL_FLASHEx_OBErase
 316              		.syntax unified
 317              		.code	16
 318              		.thumb_func
 320              	HAL_FLASHEx_OBErase:
 321              	.LFB42:
 281:Drivers/STM32F0xx_HAL_Driver/Src/stm32f0xx_hal_flash_ex.c **** 
 282:Drivers/STM32F0xx_HAL_Driver/Src/stm32f0xx_hal_flash_ex.c **** /**
 283:Drivers/STM32F0xx_HAL_Driver/Src/stm32f0xx_hal_flash_ex.c ****   * @}
 284:Drivers/STM32F0xx_HAL_Driver/Src/stm32f0xx_hal_flash_ex.c ****   */
 285:Drivers/STM32F0xx_HAL_Driver/Src/stm32f0xx_hal_flash_ex.c **** 
 286:Drivers/STM32F0xx_HAL_Driver/Src/stm32f0xx_hal_flash_ex.c **** /** @defgroup FLASHEx_Exported_Functions_Group2 Option Bytes Programming functions
 287:Drivers/STM32F0xx_HAL_Driver/Src/stm32f0xx_hal_flash_ex.c ****  *  @brief   Option Bytes Programming functions
 288:Drivers/STM32F0xx_HAL_Driver/Src/stm32f0xx_hal_flash_ex.c ****   *
 289:Drivers/STM32F0xx_HAL_Driver/Src/stm32f0xx_hal_flash_ex.c **** @verbatim   
 290:Drivers/STM32F0xx_HAL_Driver/Src/stm32f0xx_hal_flash_ex.c ****   ==============================================================================
 291:Drivers/STM32F0xx_HAL_Driver/Src/stm32f0xx_hal_flash_ex.c ****                 ##### Option Bytes Programming functions ##### 
 292:Drivers/STM32F0xx_HAL_Driver/Src/stm32f0xx_hal_flash_ex.c ****   ==============================================================================  
 293:Drivers/STM32F0xx_HAL_Driver/Src/stm32f0xx_hal_flash_ex.c ****     [..]
 294:Drivers/STM32F0xx_HAL_Driver/Src/stm32f0xx_hal_flash_ex.c ****     This subsection provides a set of functions allowing to control the FLASH 
 295:Drivers/STM32F0xx_HAL_Driver/Src/stm32f0xx_hal_flash_ex.c ****     option bytes operations.
 296:Drivers/STM32F0xx_HAL_Driver/Src/stm32f0xx_hal_flash_ex.c **** 
 297:Drivers/STM32F0xx_HAL_Driver/Src/stm32f0xx_hal_flash_ex.c **** @endverbatim
 298:Drivers/STM32F0xx_HAL_Driver/Src/stm32f0xx_hal_flash_ex.c ****   * @{
 299:Drivers/STM32F0xx_HAL_Driver/Src/stm32f0xx_hal_flash_ex.c ****   */
 300:Drivers/STM32F0xx_HAL_Driver/Src/stm32f0xx_hal_flash_ex.c **** 
 301:Drivers/STM32F0xx_HAL_Driver/Src/stm32f0xx_hal_flash_ex.c **** /**
 302:Drivers/STM32F0xx_HAL_Driver/Src/stm32f0xx_hal_flash_ex.c ****   * @brief  Erases the FLASH option bytes.
 303:Drivers/STM32F0xx_HAL_Driver/Src/stm32f0xx_hal_flash_ex.c ****   * @note   This functions erases all option bytes except the Read protection (RDP).
 304:Drivers/STM32F0xx_HAL_Driver/Src/stm32f0xx_hal_flash_ex.c ****   *         The function @ref HAL_FLASH_Unlock() should be called before to unlock the FLASH interf
 305:Drivers/STM32F0xx_HAL_Driver/Src/stm32f0xx_hal_flash_ex.c ****   *         The function @ref HAL_FLASH_OB_Unlock() should be called before to unlock the options b
ARM GAS  C:\Users\mason\AppData\Local\Temp\ccXzLFKH.s 			page 12


 306:Drivers/STM32F0xx_HAL_Driver/Src/stm32f0xx_hal_flash_ex.c ****   *         The function @ref HAL_FLASH_OB_Launch() should be called after to force the reload of t
 307:Drivers/STM32F0xx_HAL_Driver/Src/stm32f0xx_hal_flash_ex.c ****   *         (system reset will occur)
 308:Drivers/STM32F0xx_HAL_Driver/Src/stm32f0xx_hal_flash_ex.c ****   * @retval HAL status
 309:Drivers/STM32F0xx_HAL_Driver/Src/stm32f0xx_hal_flash_ex.c ****   */
 310:Drivers/STM32F0xx_HAL_Driver/Src/stm32f0xx_hal_flash_ex.c **** 
 311:Drivers/STM32F0xx_HAL_Driver/Src/stm32f0xx_hal_flash_ex.c **** HAL_StatusTypeDef HAL_FLASHEx_OBErase(void)
 312:Drivers/STM32F0xx_HAL_Driver/Src/stm32f0xx_hal_flash_ex.c **** {
 322              		.loc 1 312 1
 323              		.cfi_startproc
 324              		@ args = 0, pretend = 0, frame = 8
 325              		@ frame_needed = 1, uses_anonymous_args = 0
 326 0000 90B5     		push	{r4, r7, lr}
 327              	.LCFI6:
 328              		.cfi_def_cfa_offset 12
 329              		.cfi_offset 4, -12
 330              		.cfi_offset 7, -8
 331              		.cfi_offset 14, -4
 332 0002 83B0     		sub	sp, sp, #12
 333              	.LCFI7:
 334              		.cfi_def_cfa_offset 24
 335 0004 00AF     		add	r7, sp, #0
 336              	.LCFI8:
 337              		.cfi_def_cfa_register 7
 313:Drivers/STM32F0xx_HAL_Driver/Src/stm32f0xx_hal_flash_ex.c ****   uint8_t rdptmp = OB_RDP_LEVEL_0;
 338              		.loc 1 313 11
 339 0006 BB1D     		adds	r3, r7, #6
 340 0008 AA22     		movs	r2, #170
 341 000a 1A70     		strb	r2, [r3]
 314:Drivers/STM32F0xx_HAL_Driver/Src/stm32f0xx_hal_flash_ex.c ****   HAL_StatusTypeDef status = HAL_ERROR;
 342              		.loc 1 314 21
 343 000c FB1D     		adds	r3, r7, #7
 344 000e 0122     		movs	r2, #1
 345 0010 1A70     		strb	r2, [r3]
 315:Drivers/STM32F0xx_HAL_Driver/Src/stm32f0xx_hal_flash_ex.c **** 
 316:Drivers/STM32F0xx_HAL_Driver/Src/stm32f0xx_hal_flash_ex.c ****   /* Get the actual read protection Option Byte value */
 317:Drivers/STM32F0xx_HAL_Driver/Src/stm32f0xx_hal_flash_ex.c ****   rdptmp = FLASH_OB_GetRDP();
 346              		.loc 1 317 12
 347 0012 FFF7FEFF 		bl	FLASH_OB_GetRDP
 348 0016 0200     		movs	r2, r0
 349              		.loc 1 317 10
 350 0018 BB1D     		adds	r3, r7, #6
 351 001a 1A70     		strb	r2, [r3]
 318:Drivers/STM32F0xx_HAL_Driver/Src/stm32f0xx_hal_flash_ex.c **** 
 319:Drivers/STM32F0xx_HAL_Driver/Src/stm32f0xx_hal_flash_ex.c ****   /* Wait for last operation to be completed */
 320:Drivers/STM32F0xx_HAL_Driver/Src/stm32f0xx_hal_flash_ex.c ****   status = FLASH_WaitForLastOperation((uint32_t)FLASH_TIMEOUT_VALUE);
 352              		.loc 1 320 12
 353 001c FC1D     		adds	r4, r7, #7
 354 001e 1C4B     		ldr	r3, .L22
 355 0020 1800     		movs	r0, r3
 356 0022 FFF7FEFF 		bl	FLASH_WaitForLastOperation
 357 0026 0300     		movs	r3, r0
 358 0028 2370     		strb	r3, [r4]
 321:Drivers/STM32F0xx_HAL_Driver/Src/stm32f0xx_hal_flash_ex.c **** 
 322:Drivers/STM32F0xx_HAL_Driver/Src/stm32f0xx_hal_flash_ex.c ****   if(status == HAL_OK)
 359              		.loc 1 322 5
 360 002a FB1D     		adds	r3, r7, #7
 361 002c 1B78     		ldrb	r3, [r3]
ARM GAS  C:\Users\mason\AppData\Local\Temp\ccXzLFKH.s 			page 13


 362 002e 002B     		cmp	r3, #0
 363 0030 27D1     		bne	.L20
 323:Drivers/STM32F0xx_HAL_Driver/Src/stm32f0xx_hal_flash_ex.c ****   {
 324:Drivers/STM32F0xx_HAL_Driver/Src/stm32f0xx_hal_flash_ex.c ****     /* Clean the error context */
 325:Drivers/STM32F0xx_HAL_Driver/Src/stm32f0xx_hal_flash_ex.c ****     pFlash.ErrorCode = HAL_FLASH_ERROR_NONE;
 364              		.loc 1 325 22
 365 0032 184B     		ldr	r3, .L22+4
 366 0034 0022     		movs	r2, #0
 367 0036 DA61     		str	r2, [r3, #28]
 326:Drivers/STM32F0xx_HAL_Driver/Src/stm32f0xx_hal_flash_ex.c **** 
 327:Drivers/STM32F0xx_HAL_Driver/Src/stm32f0xx_hal_flash_ex.c ****     /* If the previous operation is completed, proceed to erase the option bytes */
 328:Drivers/STM32F0xx_HAL_Driver/Src/stm32f0xx_hal_flash_ex.c ****     SET_BIT(FLASH->CR, FLASH_CR_OPTER);
 368              		.loc 1 328 5
 369 0038 174B     		ldr	r3, .L22+8
 370 003a 1A69     		ldr	r2, [r3, #16]
 371 003c 164B     		ldr	r3, .L22+8
 372 003e 2021     		movs	r1, #32
 373 0040 0A43     		orrs	r2, r1
 374 0042 1A61     		str	r2, [r3, #16]
 329:Drivers/STM32F0xx_HAL_Driver/Src/stm32f0xx_hal_flash_ex.c ****     SET_BIT(FLASH->CR, FLASH_CR_STRT);
 375              		.loc 1 329 5
 376 0044 144B     		ldr	r3, .L22+8
 377 0046 1A69     		ldr	r2, [r3, #16]
 378 0048 134B     		ldr	r3, .L22+8
 379 004a 4021     		movs	r1, #64
 380 004c 0A43     		orrs	r2, r1
 381 004e 1A61     		str	r2, [r3, #16]
 330:Drivers/STM32F0xx_HAL_Driver/Src/stm32f0xx_hal_flash_ex.c **** 
 331:Drivers/STM32F0xx_HAL_Driver/Src/stm32f0xx_hal_flash_ex.c ****     /* Wait for last operation to be completed */
 332:Drivers/STM32F0xx_HAL_Driver/Src/stm32f0xx_hal_flash_ex.c ****     status = FLASH_WaitForLastOperation((uint32_t)FLASH_TIMEOUT_VALUE);
 382              		.loc 1 332 14
 383 0050 FC1D     		adds	r4, r7, #7
 384 0052 0F4B     		ldr	r3, .L22
 385 0054 1800     		movs	r0, r3
 386 0056 FFF7FEFF 		bl	FLASH_WaitForLastOperation
 387 005a 0300     		movs	r3, r0
 388 005c 2370     		strb	r3, [r4]
 333:Drivers/STM32F0xx_HAL_Driver/Src/stm32f0xx_hal_flash_ex.c **** 
 334:Drivers/STM32F0xx_HAL_Driver/Src/stm32f0xx_hal_flash_ex.c ****     /* If the erase operation is completed, disable the OPTER Bit */
 335:Drivers/STM32F0xx_HAL_Driver/Src/stm32f0xx_hal_flash_ex.c ****     CLEAR_BIT(FLASH->CR, FLASH_CR_OPTER);
 389              		.loc 1 335 5
 390 005e 0E4B     		ldr	r3, .L22+8
 391 0060 1A69     		ldr	r2, [r3, #16]
 392 0062 0D4B     		ldr	r3, .L22+8
 393 0064 2021     		movs	r1, #32
 394 0066 8A43     		bics	r2, r1
 395 0068 1A61     		str	r2, [r3, #16]
 336:Drivers/STM32F0xx_HAL_Driver/Src/stm32f0xx_hal_flash_ex.c **** 
 337:Drivers/STM32F0xx_HAL_Driver/Src/stm32f0xx_hal_flash_ex.c ****     if(status == HAL_OK)
 396              		.loc 1 337 7
 397 006a FB1D     		adds	r3, r7, #7
 398 006c 1B78     		ldrb	r3, [r3]
 399 006e 002B     		cmp	r3, #0
 400 0070 07D1     		bne	.L20
 338:Drivers/STM32F0xx_HAL_Driver/Src/stm32f0xx_hal_flash_ex.c ****     {
 339:Drivers/STM32F0xx_HAL_Driver/Src/stm32f0xx_hal_flash_ex.c ****       /* Restore the last read protection Option Byte value */
 340:Drivers/STM32F0xx_HAL_Driver/Src/stm32f0xx_hal_flash_ex.c ****       status = FLASH_OB_RDP_LevelConfig(rdptmp);
ARM GAS  C:\Users\mason\AppData\Local\Temp\ccXzLFKH.s 			page 14


 401              		.loc 1 340 16
 402 0072 FC1D     		adds	r4, r7, #7
 403 0074 BB1D     		adds	r3, r7, #6
 404 0076 1B78     		ldrb	r3, [r3]
 405 0078 1800     		movs	r0, r3
 406 007a FFF7FEFF 		bl	FLASH_OB_RDP_LevelConfig
 407 007e 0300     		movs	r3, r0
 408 0080 2370     		strb	r3, [r4]
 409              	.L20:
 341:Drivers/STM32F0xx_HAL_Driver/Src/stm32f0xx_hal_flash_ex.c ****     }
 342:Drivers/STM32F0xx_HAL_Driver/Src/stm32f0xx_hal_flash_ex.c ****   }
 343:Drivers/STM32F0xx_HAL_Driver/Src/stm32f0xx_hal_flash_ex.c **** 
 344:Drivers/STM32F0xx_HAL_Driver/Src/stm32f0xx_hal_flash_ex.c ****   /* Return the erase status */
 345:Drivers/STM32F0xx_HAL_Driver/Src/stm32f0xx_hal_flash_ex.c ****   return status;
 410              		.loc 1 345 10
 411 0082 FB1D     		adds	r3, r7, #7
 412 0084 1B78     		ldrb	r3, [r3]
 346:Drivers/STM32F0xx_HAL_Driver/Src/stm32f0xx_hal_flash_ex.c **** }
 413              		.loc 1 346 1
 414 0086 1800     		movs	r0, r3
 415 0088 BD46     		mov	sp, r7
 416 008a 03B0     		add	sp, sp, #12
 417              		@ sp needed
 418 008c 90BD     		pop	{r4, r7, pc}
 419              	.L23:
 420 008e C046     		.align	2
 421              	.L22:
 422 0090 50C30000 		.word	50000
 423 0094 00000000 		.word	pFlash
 424 0098 00200240 		.word	1073881088
 425              		.cfi_endproc
 426              	.LFE42:
 428              		.section	.text.HAL_FLASHEx_OBProgram,"ax",%progbits
 429              		.align	1
 430              		.global	HAL_FLASHEx_OBProgram
 431              		.syntax unified
 432              		.code	16
 433              		.thumb_func
 435              	HAL_FLASHEx_OBProgram:
 436              	.LFB43:
 347:Drivers/STM32F0xx_HAL_Driver/Src/stm32f0xx_hal_flash_ex.c **** 
 348:Drivers/STM32F0xx_HAL_Driver/Src/stm32f0xx_hal_flash_ex.c **** /**
 349:Drivers/STM32F0xx_HAL_Driver/Src/stm32f0xx_hal_flash_ex.c ****   * @brief  Program option bytes
 350:Drivers/STM32F0xx_HAL_Driver/Src/stm32f0xx_hal_flash_ex.c ****   * @note   The function @ref HAL_FLASH_Unlock() should be called before to unlock the FLASH interf
 351:Drivers/STM32F0xx_HAL_Driver/Src/stm32f0xx_hal_flash_ex.c ****   *         The function @ref HAL_FLASH_OB_Unlock() should be called before to unlock the options b
 352:Drivers/STM32F0xx_HAL_Driver/Src/stm32f0xx_hal_flash_ex.c ****   *         The function @ref HAL_FLASH_OB_Launch() should be called after to force the reload of t
 353:Drivers/STM32F0xx_HAL_Driver/Src/stm32f0xx_hal_flash_ex.c ****   *         (system reset will occur)
 354:Drivers/STM32F0xx_HAL_Driver/Src/stm32f0xx_hal_flash_ex.c ****   *
 355:Drivers/STM32F0xx_HAL_Driver/Src/stm32f0xx_hal_flash_ex.c ****   * @param  pOBInit pointer to an FLASH_OBInitStruct structure that
 356:Drivers/STM32F0xx_HAL_Driver/Src/stm32f0xx_hal_flash_ex.c ****   *         contains the configuration information for the programming.
 357:Drivers/STM32F0xx_HAL_Driver/Src/stm32f0xx_hal_flash_ex.c ****   *
 358:Drivers/STM32F0xx_HAL_Driver/Src/stm32f0xx_hal_flash_ex.c ****   * @retval HAL_StatusTypeDef HAL Status
 359:Drivers/STM32F0xx_HAL_Driver/Src/stm32f0xx_hal_flash_ex.c ****   */
 360:Drivers/STM32F0xx_HAL_Driver/Src/stm32f0xx_hal_flash_ex.c **** HAL_StatusTypeDef HAL_FLASHEx_OBProgram(FLASH_OBProgramInitTypeDef *pOBInit)
 361:Drivers/STM32F0xx_HAL_Driver/Src/stm32f0xx_hal_flash_ex.c **** {
 437              		.loc 1 361 1
 438              		.cfi_startproc
ARM GAS  C:\Users\mason\AppData\Local\Temp\ccXzLFKH.s 			page 15


 439              		@ args = 0, pretend = 0, frame = 16
 440              		@ frame_needed = 1, uses_anonymous_args = 0
 441 0000 B0B5     		push	{r4, r5, r7, lr}
 442              	.LCFI9:
 443              		.cfi_def_cfa_offset 16
 444              		.cfi_offset 4, -16
 445              		.cfi_offset 5, -12
 446              		.cfi_offset 7, -8
 447              		.cfi_offset 14, -4
 448 0002 84B0     		sub	sp, sp, #16
 449              	.LCFI10:
 450              		.cfi_def_cfa_offset 32
 451 0004 00AF     		add	r7, sp, #0
 452              	.LCFI11:
 453              		.cfi_def_cfa_register 7
 454 0006 7860     		str	r0, [r7, #4]
 362:Drivers/STM32F0xx_HAL_Driver/Src/stm32f0xx_hal_flash_ex.c ****   HAL_StatusTypeDef status = HAL_ERROR;
 455              		.loc 1 362 21
 456 0008 0F23     		movs	r3, #15
 457 000a FB18     		adds	r3, r7, r3
 458 000c 0122     		movs	r2, #1
 459 000e 1A70     		strb	r2, [r3]
 363:Drivers/STM32F0xx_HAL_Driver/Src/stm32f0xx_hal_flash_ex.c **** 
 364:Drivers/STM32F0xx_HAL_Driver/Src/stm32f0xx_hal_flash_ex.c ****   /* Process Locked */
 365:Drivers/STM32F0xx_HAL_Driver/Src/stm32f0xx_hal_flash_ex.c ****   __HAL_LOCK(&pFlash);
 460              		.loc 1 365 3
 461 0010 434B     		ldr	r3, .L33
 462 0012 1B7E     		ldrb	r3, [r3, #24]
 463 0014 012B     		cmp	r3, #1
 464 0016 01D1     		bne	.L25
 465              		.loc 1 365 3 is_stmt 0 discriminator 1
 466 0018 0223     		movs	r3, #2
 467 001a 7DE0     		b	.L26
 468              	.L25:
 469              		.loc 1 365 3 discriminator 2
 470 001c 404B     		ldr	r3, .L33
 471 001e 0122     		movs	r2, #1
 472 0020 1A76     		strb	r2, [r3, #24]
 366:Drivers/STM32F0xx_HAL_Driver/Src/stm32f0xx_hal_flash_ex.c **** 
 367:Drivers/STM32F0xx_HAL_Driver/Src/stm32f0xx_hal_flash_ex.c ****   /* Check the parameters */
 368:Drivers/STM32F0xx_HAL_Driver/Src/stm32f0xx_hal_flash_ex.c ****   assert_param(IS_OPTIONBYTE(pOBInit->OptionType));
 369:Drivers/STM32F0xx_HAL_Driver/Src/stm32f0xx_hal_flash_ex.c **** 
 370:Drivers/STM32F0xx_HAL_Driver/Src/stm32f0xx_hal_flash_ex.c ****   /* Write protection configuration */
 371:Drivers/STM32F0xx_HAL_Driver/Src/stm32f0xx_hal_flash_ex.c ****   if((pOBInit->OptionType & OPTIONBYTE_WRP) == OPTIONBYTE_WRP)
 473              		.loc 1 371 14 is_stmt 1 discriminator 2
 474 0022 7B68     		ldr	r3, [r7, #4]
 475 0024 1B68     		ldr	r3, [r3]
 476              		.loc 1 371 27 discriminator 2
 477 0026 0122     		movs	r2, #1
 478 0028 1340     		ands	r3, r2
 479              		.loc 1 371 5 discriminator 2
 480 002a 21D0     		beq	.L27
 372:Drivers/STM32F0xx_HAL_Driver/Src/stm32f0xx_hal_flash_ex.c ****   {
 373:Drivers/STM32F0xx_HAL_Driver/Src/stm32f0xx_hal_flash_ex.c ****     assert_param(IS_WRPSTATE(pOBInit->WRPState));
 374:Drivers/STM32F0xx_HAL_Driver/Src/stm32f0xx_hal_flash_ex.c ****     if (pOBInit->WRPState == OB_WRPSTATE_ENABLE)
 481              		.loc 1 374 16
 482 002c 7B68     		ldr	r3, [r7, #4]
ARM GAS  C:\Users\mason\AppData\Local\Temp\ccXzLFKH.s 			page 16


 483 002e 5B68     		ldr	r3, [r3, #4]
 484              		.loc 1 374 8
 485 0030 012B     		cmp	r3, #1
 486 0032 09D1     		bne	.L28
 375:Drivers/STM32F0xx_HAL_Driver/Src/stm32f0xx_hal_flash_ex.c ****     {
 376:Drivers/STM32F0xx_HAL_Driver/Src/stm32f0xx_hal_flash_ex.c ****       /* Enable of Write protection on the selected page */
 377:Drivers/STM32F0xx_HAL_Driver/Src/stm32f0xx_hal_flash_ex.c ****       status = FLASH_OB_EnableWRP(pOBInit->WRPPage);
 487              		.loc 1 377 16
 488 0034 7B68     		ldr	r3, [r7, #4]
 489 0036 9B68     		ldr	r3, [r3, #8]
 490 0038 0F22     		movs	r2, #15
 491 003a BC18     		adds	r4, r7, r2
 492 003c 1800     		movs	r0, r3
 493 003e FFF7FEFF 		bl	FLASH_OB_EnableWRP
 494 0042 0300     		movs	r3, r0
 495 0044 2370     		strb	r3, [r4]
 496 0046 08E0     		b	.L29
 497              	.L28:
 378:Drivers/STM32F0xx_HAL_Driver/Src/stm32f0xx_hal_flash_ex.c ****     }
 379:Drivers/STM32F0xx_HAL_Driver/Src/stm32f0xx_hal_flash_ex.c ****     else
 380:Drivers/STM32F0xx_HAL_Driver/Src/stm32f0xx_hal_flash_ex.c ****     {
 381:Drivers/STM32F0xx_HAL_Driver/Src/stm32f0xx_hal_flash_ex.c ****       /* Disable of Write protection on the selected page */
 382:Drivers/STM32F0xx_HAL_Driver/Src/stm32f0xx_hal_flash_ex.c ****       status = FLASH_OB_DisableWRP(pOBInit->WRPPage);
 498              		.loc 1 382 16
 499 0048 7B68     		ldr	r3, [r7, #4]
 500 004a 9B68     		ldr	r3, [r3, #8]
 501 004c 0F22     		movs	r2, #15
 502 004e BC18     		adds	r4, r7, r2
 503 0050 1800     		movs	r0, r3
 504 0052 FFF7FEFF 		bl	FLASH_OB_DisableWRP
 505 0056 0300     		movs	r3, r0
 506 0058 2370     		strb	r3, [r4]
 507              	.L29:
 383:Drivers/STM32F0xx_HAL_Driver/Src/stm32f0xx_hal_flash_ex.c ****     }
 384:Drivers/STM32F0xx_HAL_Driver/Src/stm32f0xx_hal_flash_ex.c ****     if (status != HAL_OK)
 508              		.loc 1 384 8
 509 005a 0F21     		movs	r1, #15
 510 005c 7B18     		adds	r3, r7, r1
 511 005e 1B78     		ldrb	r3, [r3]
 512 0060 002B     		cmp	r3, #0
 513 0062 05D0     		beq	.L27
 385:Drivers/STM32F0xx_HAL_Driver/Src/stm32f0xx_hal_flash_ex.c ****     {
 386:Drivers/STM32F0xx_HAL_Driver/Src/stm32f0xx_hal_flash_ex.c ****       /* Process Unlocked */
 387:Drivers/STM32F0xx_HAL_Driver/Src/stm32f0xx_hal_flash_ex.c ****       __HAL_UNLOCK(&pFlash);
 514              		.loc 1 387 7
 515 0064 2E4B     		ldr	r3, .L33
 516 0066 0022     		movs	r2, #0
 517 0068 1A76     		strb	r2, [r3, #24]
 388:Drivers/STM32F0xx_HAL_Driver/Src/stm32f0xx_hal_flash_ex.c ****       return status;
 518              		.loc 1 388 14
 519 006a 7B18     		adds	r3, r7, r1
 520 006c 1B78     		ldrb	r3, [r3]
 521 006e 53E0     		b	.L26
 522              	.L27:
 389:Drivers/STM32F0xx_HAL_Driver/Src/stm32f0xx_hal_flash_ex.c ****     }
 390:Drivers/STM32F0xx_HAL_Driver/Src/stm32f0xx_hal_flash_ex.c ****   }
 391:Drivers/STM32F0xx_HAL_Driver/Src/stm32f0xx_hal_flash_ex.c **** 
ARM GAS  C:\Users\mason\AppData\Local\Temp\ccXzLFKH.s 			page 17


 392:Drivers/STM32F0xx_HAL_Driver/Src/stm32f0xx_hal_flash_ex.c ****   /* Read protection configuration */
 393:Drivers/STM32F0xx_HAL_Driver/Src/stm32f0xx_hal_flash_ex.c ****   if((pOBInit->OptionType & OPTIONBYTE_RDP) == OPTIONBYTE_RDP)
 523              		.loc 1 393 14
 524 0070 7B68     		ldr	r3, [r7, #4]
 525 0072 1B68     		ldr	r3, [r3]
 526              		.loc 1 393 27
 527 0074 0222     		movs	r2, #2
 528 0076 1340     		ands	r3, r2
 529              		.loc 1 393 5
 530 0078 13D0     		beq	.L30
 394:Drivers/STM32F0xx_HAL_Driver/Src/stm32f0xx_hal_flash_ex.c ****   {
 395:Drivers/STM32F0xx_HAL_Driver/Src/stm32f0xx_hal_flash_ex.c ****     status = FLASH_OB_RDP_LevelConfig(pOBInit->RDPLevel);
 531              		.loc 1 395 14
 532 007a 7B68     		ldr	r3, [r7, #4]
 533 007c 1B7B     		ldrb	r3, [r3, #12]
 534 007e 0F25     		movs	r5, #15
 535 0080 7C19     		adds	r4, r7, r5
 536 0082 1800     		movs	r0, r3
 537 0084 FFF7FEFF 		bl	FLASH_OB_RDP_LevelConfig
 538 0088 0300     		movs	r3, r0
 539 008a 2370     		strb	r3, [r4]
 396:Drivers/STM32F0xx_HAL_Driver/Src/stm32f0xx_hal_flash_ex.c ****     if (status != HAL_OK)
 540              		.loc 1 396 8
 541 008c 2900     		movs	r1, r5
 542 008e 7B18     		adds	r3, r7, r1
 543 0090 1B78     		ldrb	r3, [r3]
 544 0092 002B     		cmp	r3, #0
 545 0094 05D0     		beq	.L30
 397:Drivers/STM32F0xx_HAL_Driver/Src/stm32f0xx_hal_flash_ex.c ****     {
 398:Drivers/STM32F0xx_HAL_Driver/Src/stm32f0xx_hal_flash_ex.c ****       /* Process Unlocked */
 399:Drivers/STM32F0xx_HAL_Driver/Src/stm32f0xx_hal_flash_ex.c ****       __HAL_UNLOCK(&pFlash);
 546              		.loc 1 399 7
 547 0096 224B     		ldr	r3, .L33
 548 0098 0022     		movs	r2, #0
 549 009a 1A76     		strb	r2, [r3, #24]
 400:Drivers/STM32F0xx_HAL_Driver/Src/stm32f0xx_hal_flash_ex.c ****       return status;
 550              		.loc 1 400 14
 551 009c 7B18     		adds	r3, r7, r1
 552 009e 1B78     		ldrb	r3, [r3]
 553 00a0 3AE0     		b	.L26
 554              	.L30:
 401:Drivers/STM32F0xx_HAL_Driver/Src/stm32f0xx_hal_flash_ex.c ****     }
 402:Drivers/STM32F0xx_HAL_Driver/Src/stm32f0xx_hal_flash_ex.c ****   }
 403:Drivers/STM32F0xx_HAL_Driver/Src/stm32f0xx_hal_flash_ex.c **** 
 404:Drivers/STM32F0xx_HAL_Driver/Src/stm32f0xx_hal_flash_ex.c ****   /* USER configuration */
 405:Drivers/STM32F0xx_HAL_Driver/Src/stm32f0xx_hal_flash_ex.c ****   if((pOBInit->OptionType & OPTIONBYTE_USER) == OPTIONBYTE_USER)
 555              		.loc 1 405 14
 556 00a2 7B68     		ldr	r3, [r7, #4]
 557 00a4 1B68     		ldr	r3, [r3]
 558              		.loc 1 405 27
 559 00a6 0422     		movs	r2, #4
 560 00a8 1340     		ands	r3, r2
 561              		.loc 1 405 5
 562 00aa 13D0     		beq	.L31
 406:Drivers/STM32F0xx_HAL_Driver/Src/stm32f0xx_hal_flash_ex.c ****   {
 407:Drivers/STM32F0xx_HAL_Driver/Src/stm32f0xx_hal_flash_ex.c ****     status = FLASH_OB_UserConfig(pOBInit->USERConfig);
 563              		.loc 1 407 14
ARM GAS  C:\Users\mason\AppData\Local\Temp\ccXzLFKH.s 			page 18


 564 00ac 7B68     		ldr	r3, [r7, #4]
 565 00ae 5B7B     		ldrb	r3, [r3, #13]
 566 00b0 0F25     		movs	r5, #15
 567 00b2 7C19     		adds	r4, r7, r5
 568 00b4 1800     		movs	r0, r3
 569 00b6 FFF7FEFF 		bl	FLASH_OB_UserConfig
 570 00ba 0300     		movs	r3, r0
 571 00bc 2370     		strb	r3, [r4]
 408:Drivers/STM32F0xx_HAL_Driver/Src/stm32f0xx_hal_flash_ex.c ****     if (status != HAL_OK)
 572              		.loc 1 408 8
 573 00be 2900     		movs	r1, r5
 574 00c0 7B18     		adds	r3, r7, r1
 575 00c2 1B78     		ldrb	r3, [r3]
 576 00c4 002B     		cmp	r3, #0
 577 00c6 05D0     		beq	.L31
 409:Drivers/STM32F0xx_HAL_Driver/Src/stm32f0xx_hal_flash_ex.c ****     {
 410:Drivers/STM32F0xx_HAL_Driver/Src/stm32f0xx_hal_flash_ex.c ****       /* Process Unlocked */
 411:Drivers/STM32F0xx_HAL_Driver/Src/stm32f0xx_hal_flash_ex.c ****       __HAL_UNLOCK(&pFlash);
 578              		.loc 1 411 7
 579 00c8 154B     		ldr	r3, .L33
 580 00ca 0022     		movs	r2, #0
 581 00cc 1A76     		strb	r2, [r3, #24]
 412:Drivers/STM32F0xx_HAL_Driver/Src/stm32f0xx_hal_flash_ex.c ****       return status;
 582              		.loc 1 412 14
 583 00ce 7B18     		adds	r3, r7, r1
 584 00d0 1B78     		ldrb	r3, [r3]
 585 00d2 21E0     		b	.L26
 586              	.L31:
 413:Drivers/STM32F0xx_HAL_Driver/Src/stm32f0xx_hal_flash_ex.c ****     }
 414:Drivers/STM32F0xx_HAL_Driver/Src/stm32f0xx_hal_flash_ex.c ****   }
 415:Drivers/STM32F0xx_HAL_Driver/Src/stm32f0xx_hal_flash_ex.c **** 
 416:Drivers/STM32F0xx_HAL_Driver/Src/stm32f0xx_hal_flash_ex.c ****   /* DATA configuration*/
 417:Drivers/STM32F0xx_HAL_Driver/Src/stm32f0xx_hal_flash_ex.c ****   if((pOBInit->OptionType & OPTIONBYTE_DATA) == OPTIONBYTE_DATA)
 587              		.loc 1 417 14
 588 00d4 7B68     		ldr	r3, [r7, #4]
 589 00d6 1B68     		ldr	r3, [r3]
 590              		.loc 1 417 27
 591 00d8 0822     		movs	r2, #8
 592 00da 1340     		ands	r3, r2
 593              		.loc 1 417 5
 594 00dc 16D0     		beq	.L32
 418:Drivers/STM32F0xx_HAL_Driver/Src/stm32f0xx_hal_flash_ex.c ****   {
 419:Drivers/STM32F0xx_HAL_Driver/Src/stm32f0xx_hal_flash_ex.c ****     status = FLASH_OB_ProgramData(pOBInit->DATAAddress, pOBInit->DATAData);
 595              		.loc 1 419 14
 596 00de 7B68     		ldr	r3, [r7, #4]
 597 00e0 1A69     		ldr	r2, [r3, #16]
 598 00e2 7B68     		ldr	r3, [r7, #4]
 599 00e4 1B7D     		ldrb	r3, [r3, #20]
 600 00e6 0F25     		movs	r5, #15
 601 00e8 7C19     		adds	r4, r7, r5
 602 00ea 1900     		movs	r1, r3
 603 00ec 1000     		movs	r0, r2
 604 00ee FFF7FEFF 		bl	FLASH_OB_ProgramData
 605 00f2 0300     		movs	r3, r0
 606 00f4 2370     		strb	r3, [r4]
 420:Drivers/STM32F0xx_HAL_Driver/Src/stm32f0xx_hal_flash_ex.c ****     if (status != HAL_OK)
 607              		.loc 1 420 8
ARM GAS  C:\Users\mason\AppData\Local\Temp\ccXzLFKH.s 			page 19


 608 00f6 2900     		movs	r1, r5
 609 00f8 7B18     		adds	r3, r7, r1
 610 00fa 1B78     		ldrb	r3, [r3]
 611 00fc 002B     		cmp	r3, #0
 612 00fe 05D0     		beq	.L32
 421:Drivers/STM32F0xx_HAL_Driver/Src/stm32f0xx_hal_flash_ex.c ****     {
 422:Drivers/STM32F0xx_HAL_Driver/Src/stm32f0xx_hal_flash_ex.c ****       /* Process Unlocked */
 423:Drivers/STM32F0xx_HAL_Driver/Src/stm32f0xx_hal_flash_ex.c ****       __HAL_UNLOCK(&pFlash);
 613              		.loc 1 423 7
 614 0100 074B     		ldr	r3, .L33
 615 0102 0022     		movs	r2, #0
 616 0104 1A76     		strb	r2, [r3, #24]
 424:Drivers/STM32F0xx_HAL_Driver/Src/stm32f0xx_hal_flash_ex.c ****       return status;
 617              		.loc 1 424 14
 618 0106 7B18     		adds	r3, r7, r1
 619 0108 1B78     		ldrb	r3, [r3]
 620 010a 05E0     		b	.L26
 621              	.L32:
 425:Drivers/STM32F0xx_HAL_Driver/Src/stm32f0xx_hal_flash_ex.c ****     }
 426:Drivers/STM32F0xx_HAL_Driver/Src/stm32f0xx_hal_flash_ex.c ****   }
 427:Drivers/STM32F0xx_HAL_Driver/Src/stm32f0xx_hal_flash_ex.c **** 
 428:Drivers/STM32F0xx_HAL_Driver/Src/stm32f0xx_hal_flash_ex.c ****   /* Process Unlocked */
 429:Drivers/STM32F0xx_HAL_Driver/Src/stm32f0xx_hal_flash_ex.c ****   __HAL_UNLOCK(&pFlash);
 622              		.loc 1 429 3
 623 010c 044B     		ldr	r3, .L33
 624 010e 0022     		movs	r2, #0
 625 0110 1A76     		strb	r2, [r3, #24]
 430:Drivers/STM32F0xx_HAL_Driver/Src/stm32f0xx_hal_flash_ex.c **** 
 431:Drivers/STM32F0xx_HAL_Driver/Src/stm32f0xx_hal_flash_ex.c ****   return status;
 626              		.loc 1 431 10
 627 0112 0F23     		movs	r3, #15
 628 0114 FB18     		adds	r3, r7, r3
 629 0116 1B78     		ldrb	r3, [r3]
 630              	.L26:
 432:Drivers/STM32F0xx_HAL_Driver/Src/stm32f0xx_hal_flash_ex.c **** }
 631              		.loc 1 432 1
 632 0118 1800     		movs	r0, r3
 633 011a BD46     		mov	sp, r7
 634 011c 04B0     		add	sp, sp, #16
 635              		@ sp needed
 636 011e B0BD     		pop	{r4, r5, r7, pc}
 637              	.L34:
 638              		.align	2
 639              	.L33:
 640 0120 00000000 		.word	pFlash
 641              		.cfi_endproc
 642              	.LFE43:
 644              		.section	.text.HAL_FLASHEx_OBGetConfig,"ax",%progbits
 645              		.align	1
 646              		.global	HAL_FLASHEx_OBGetConfig
 647              		.syntax unified
 648              		.code	16
 649              		.thumb_func
 651              	HAL_FLASHEx_OBGetConfig:
 652              	.LFB44:
 433:Drivers/STM32F0xx_HAL_Driver/Src/stm32f0xx_hal_flash_ex.c **** 
 434:Drivers/STM32F0xx_HAL_Driver/Src/stm32f0xx_hal_flash_ex.c **** /**
ARM GAS  C:\Users\mason\AppData\Local\Temp\ccXzLFKH.s 			page 20


 435:Drivers/STM32F0xx_HAL_Driver/Src/stm32f0xx_hal_flash_ex.c ****   * @brief  Get the Option byte configuration
 436:Drivers/STM32F0xx_HAL_Driver/Src/stm32f0xx_hal_flash_ex.c ****   * @param  pOBInit pointer to an FLASH_OBInitStruct structure that
 437:Drivers/STM32F0xx_HAL_Driver/Src/stm32f0xx_hal_flash_ex.c ****   *         contains the configuration information for the programming.
 438:Drivers/STM32F0xx_HAL_Driver/Src/stm32f0xx_hal_flash_ex.c ****   *
 439:Drivers/STM32F0xx_HAL_Driver/Src/stm32f0xx_hal_flash_ex.c ****   * @retval None
 440:Drivers/STM32F0xx_HAL_Driver/Src/stm32f0xx_hal_flash_ex.c ****   */
 441:Drivers/STM32F0xx_HAL_Driver/Src/stm32f0xx_hal_flash_ex.c **** void HAL_FLASHEx_OBGetConfig(FLASH_OBProgramInitTypeDef *pOBInit)
 442:Drivers/STM32F0xx_HAL_Driver/Src/stm32f0xx_hal_flash_ex.c **** {
 653              		.loc 1 442 1
 654              		.cfi_startproc
 655              		@ args = 0, pretend = 0, frame = 8
 656              		@ frame_needed = 1, uses_anonymous_args = 0
 657 0000 80B5     		push	{r7, lr}
 658              	.LCFI12:
 659              		.cfi_def_cfa_offset 8
 660              		.cfi_offset 7, -8
 661              		.cfi_offset 14, -4
 662 0002 82B0     		sub	sp, sp, #8
 663              	.LCFI13:
 664              		.cfi_def_cfa_offset 16
 665 0004 00AF     		add	r7, sp, #0
 666              	.LCFI14:
 667              		.cfi_def_cfa_register 7
 668 0006 7860     		str	r0, [r7, #4]
 443:Drivers/STM32F0xx_HAL_Driver/Src/stm32f0xx_hal_flash_ex.c ****   pOBInit->OptionType = OPTIONBYTE_WRP | OPTIONBYTE_RDP | OPTIONBYTE_USER;
 669              		.loc 1 443 23
 670 0008 7B68     		ldr	r3, [r7, #4]
 671 000a 0722     		movs	r2, #7
 672 000c 1A60     		str	r2, [r3]
 444:Drivers/STM32F0xx_HAL_Driver/Src/stm32f0xx_hal_flash_ex.c **** 
 445:Drivers/STM32F0xx_HAL_Driver/Src/stm32f0xx_hal_flash_ex.c ****   /*Get WRP*/
 446:Drivers/STM32F0xx_HAL_Driver/Src/stm32f0xx_hal_flash_ex.c ****   pOBInit->WRPPage = FLASH_OB_GetWRP();
 673              		.loc 1 446 22
 674 000e FFF7FEFF 		bl	FLASH_OB_GetWRP
 675 0012 0200     		movs	r2, r0
 676              		.loc 1 446 20
 677 0014 7B68     		ldr	r3, [r7, #4]
 678 0016 9A60     		str	r2, [r3, #8]
 447:Drivers/STM32F0xx_HAL_Driver/Src/stm32f0xx_hal_flash_ex.c **** 
 448:Drivers/STM32F0xx_HAL_Driver/Src/stm32f0xx_hal_flash_ex.c ****   /*Get RDP Level*/
 449:Drivers/STM32F0xx_HAL_Driver/Src/stm32f0xx_hal_flash_ex.c ****   pOBInit->RDPLevel = FLASH_OB_GetRDP();
 679              		.loc 1 449 23
 680 0018 FFF7FEFF 		bl	FLASH_OB_GetRDP
 681 001c 0300     		movs	r3, r0
 682              		.loc 1 449 21
 683 001e DAB2     		uxtb	r2, r3
 684 0020 7B68     		ldr	r3, [r7, #4]
 685 0022 1A73     		strb	r2, [r3, #12]
 450:Drivers/STM32F0xx_HAL_Driver/Src/stm32f0xx_hal_flash_ex.c **** 
 451:Drivers/STM32F0xx_HAL_Driver/Src/stm32f0xx_hal_flash_ex.c ****   /*Get USER*/
 452:Drivers/STM32F0xx_HAL_Driver/Src/stm32f0xx_hal_flash_ex.c ****   pOBInit->USERConfig = FLASH_OB_GetUser();
 686              		.loc 1 452 25
 687 0024 FFF7FEFF 		bl	FLASH_OB_GetUser
 688 0028 0300     		movs	r3, r0
 689 002a 1A00     		movs	r2, r3
 690              		.loc 1 452 23
 691 002c 7B68     		ldr	r3, [r7, #4]
ARM GAS  C:\Users\mason\AppData\Local\Temp\ccXzLFKH.s 			page 21


 692 002e 5A73     		strb	r2, [r3, #13]
 453:Drivers/STM32F0xx_HAL_Driver/Src/stm32f0xx_hal_flash_ex.c **** }
 693              		.loc 1 453 1
 694 0030 C046     		nop
 695 0032 BD46     		mov	sp, r7
 696 0034 02B0     		add	sp, sp, #8
 697              		@ sp needed
 698 0036 80BD     		pop	{r7, pc}
 699              		.cfi_endproc
 700              	.LFE44:
 702              		.section	.text.HAL_FLASHEx_OBGetUserData,"ax",%progbits
 703              		.align	1
 704              		.global	HAL_FLASHEx_OBGetUserData
 705              		.syntax unified
 706              		.code	16
 707              		.thumb_func
 709              	HAL_FLASHEx_OBGetUserData:
 710              	.LFB45:
 454:Drivers/STM32F0xx_HAL_Driver/Src/stm32f0xx_hal_flash_ex.c **** 
 455:Drivers/STM32F0xx_HAL_Driver/Src/stm32f0xx_hal_flash_ex.c **** /**
 456:Drivers/STM32F0xx_HAL_Driver/Src/stm32f0xx_hal_flash_ex.c ****   * @brief  Get the Option byte user data
 457:Drivers/STM32F0xx_HAL_Driver/Src/stm32f0xx_hal_flash_ex.c ****   * @param  DATAAdress Address of the option byte DATA
 458:Drivers/STM32F0xx_HAL_Driver/Src/stm32f0xx_hal_flash_ex.c ****   *          This parameter can be one of the following values:
 459:Drivers/STM32F0xx_HAL_Driver/Src/stm32f0xx_hal_flash_ex.c ****   *            @arg @ref OB_DATA_ADDRESS_DATA0
 460:Drivers/STM32F0xx_HAL_Driver/Src/stm32f0xx_hal_flash_ex.c ****   *            @arg @ref OB_DATA_ADDRESS_DATA1
 461:Drivers/STM32F0xx_HAL_Driver/Src/stm32f0xx_hal_flash_ex.c ****   * @retval Value programmed in USER data
 462:Drivers/STM32F0xx_HAL_Driver/Src/stm32f0xx_hal_flash_ex.c ****   */
 463:Drivers/STM32F0xx_HAL_Driver/Src/stm32f0xx_hal_flash_ex.c **** uint32_t HAL_FLASHEx_OBGetUserData(uint32_t DATAAdress)
 464:Drivers/STM32F0xx_HAL_Driver/Src/stm32f0xx_hal_flash_ex.c **** {
 711              		.loc 1 464 1
 712              		.cfi_startproc
 713              		@ args = 0, pretend = 0, frame = 16
 714              		@ frame_needed = 1, uses_anonymous_args = 0
 715 0000 80B5     		push	{r7, lr}
 716              	.LCFI15:
 717              		.cfi_def_cfa_offset 8
 718              		.cfi_offset 7, -8
 719              		.cfi_offset 14, -4
 720 0002 84B0     		sub	sp, sp, #16
 721              	.LCFI16:
 722              		.cfi_def_cfa_offset 24
 723 0004 00AF     		add	r7, sp, #0
 724              	.LCFI17:
 725              		.cfi_def_cfa_register 7
 726 0006 7860     		str	r0, [r7, #4]
 465:Drivers/STM32F0xx_HAL_Driver/Src/stm32f0xx_hal_flash_ex.c ****   uint32_t value = 0U;
 727              		.loc 1 465 12
 728 0008 0023     		movs	r3, #0
 729 000a FB60     		str	r3, [r7, #12]
 466:Drivers/STM32F0xx_HAL_Driver/Src/stm32f0xx_hal_flash_ex.c ****   
 467:Drivers/STM32F0xx_HAL_Driver/Src/stm32f0xx_hal_flash_ex.c ****   if (DATAAdress == OB_DATA_ADDRESS_DATA0)
 730              		.loc 1 467 6
 731 000c 7B68     		ldr	r3, [r7, #4]
 732 000e 0A4A     		ldr	r2, .L40
 733 0010 9342     		cmp	r3, r2
 734 0012 06D1     		bne	.L37
 468:Drivers/STM32F0xx_HAL_Driver/Src/stm32f0xx_hal_flash_ex.c ****   {
ARM GAS  C:\Users\mason\AppData\Local\Temp\ccXzLFKH.s 			page 22


 469:Drivers/STM32F0xx_HAL_Driver/Src/stm32f0xx_hal_flash_ex.c ****     /* Get value programmed in OB USER Data0 */
 470:Drivers/STM32F0xx_HAL_Driver/Src/stm32f0xx_hal_flash_ex.c ****     value = READ_BIT(FLASH->OBR, FLASH_OBR_DATA0) >> FLASH_POSITION_OB_USERDATA0_BIT;
 735              		.loc 1 470 13
 736 0014 094B     		ldr	r3, .L40+4
 737 0016 DB69     		ldr	r3, [r3, #28]
 738              		.loc 1 470 51
 739 0018 1B0C     		lsrs	r3, r3, #16
 740              		.loc 1 470 11
 741 001a FF22     		movs	r2, #255
 742 001c 1340     		ands	r3, r2
 743 001e FB60     		str	r3, [r7, #12]
 744 0020 05E0     		b	.L38
 745              	.L37:
 471:Drivers/STM32F0xx_HAL_Driver/Src/stm32f0xx_hal_flash_ex.c ****   }
 472:Drivers/STM32F0xx_HAL_Driver/Src/stm32f0xx_hal_flash_ex.c ****   else
 473:Drivers/STM32F0xx_HAL_Driver/Src/stm32f0xx_hal_flash_ex.c ****   {
 474:Drivers/STM32F0xx_HAL_Driver/Src/stm32f0xx_hal_flash_ex.c ****     /* Get value programmed in OB USER Data1 */
 475:Drivers/STM32F0xx_HAL_Driver/Src/stm32f0xx_hal_flash_ex.c ****     value = READ_BIT(FLASH->OBR, FLASH_OBR_DATA1) >> FLASH_POSITION_OB_USERDATA1_BIT;
 746              		.loc 1 475 13
 747 0022 064B     		ldr	r3, .L40+4
 748 0024 DB69     		ldr	r3, [r3, #28]
 749              		.loc 1 475 51
 750 0026 1B0E     		lsrs	r3, r3, #24
 751              		.loc 1 475 11
 752 0028 FF22     		movs	r2, #255
 753 002a 1340     		ands	r3, r2
 754 002c FB60     		str	r3, [r7, #12]
 755              	.L38:
 476:Drivers/STM32F0xx_HAL_Driver/Src/stm32f0xx_hal_flash_ex.c ****   }
 477:Drivers/STM32F0xx_HAL_Driver/Src/stm32f0xx_hal_flash_ex.c ****   
 478:Drivers/STM32F0xx_HAL_Driver/Src/stm32f0xx_hal_flash_ex.c ****   return value;
 756              		.loc 1 478 10
 757 002e FB68     		ldr	r3, [r7, #12]
 479:Drivers/STM32F0xx_HAL_Driver/Src/stm32f0xx_hal_flash_ex.c **** }
 758              		.loc 1 479 1
 759 0030 1800     		movs	r0, r3
 760 0032 BD46     		mov	sp, r7
 761 0034 04B0     		add	sp, sp, #16
 762              		@ sp needed
 763 0036 80BD     		pop	{r7, pc}
 764              	.L41:
 765              		.align	2
 766              	.L40:
 767 0038 04F8FF1F 		.word	536868868
 768 003c 00200240 		.word	1073881088
 769              		.cfi_endproc
 770              	.LFE45:
 772              		.section	.text.FLASH_MassErase,"ax",%progbits
 773              		.align	1
 774              		.syntax unified
 775              		.code	16
 776              		.thumb_func
 778              	FLASH_MassErase:
 779              	.LFB46:
 480:Drivers/STM32F0xx_HAL_Driver/Src/stm32f0xx_hal_flash_ex.c **** 
 481:Drivers/STM32F0xx_HAL_Driver/Src/stm32f0xx_hal_flash_ex.c **** /**
 482:Drivers/STM32F0xx_HAL_Driver/Src/stm32f0xx_hal_flash_ex.c ****   * @}
ARM GAS  C:\Users\mason\AppData\Local\Temp\ccXzLFKH.s 			page 23


 483:Drivers/STM32F0xx_HAL_Driver/Src/stm32f0xx_hal_flash_ex.c ****   */
 484:Drivers/STM32F0xx_HAL_Driver/Src/stm32f0xx_hal_flash_ex.c **** 
 485:Drivers/STM32F0xx_HAL_Driver/Src/stm32f0xx_hal_flash_ex.c **** /**
 486:Drivers/STM32F0xx_HAL_Driver/Src/stm32f0xx_hal_flash_ex.c ****   * @}
 487:Drivers/STM32F0xx_HAL_Driver/Src/stm32f0xx_hal_flash_ex.c ****   */
 488:Drivers/STM32F0xx_HAL_Driver/Src/stm32f0xx_hal_flash_ex.c **** 
 489:Drivers/STM32F0xx_HAL_Driver/Src/stm32f0xx_hal_flash_ex.c **** /** @addtogroup FLASHEx_Private_Functions
 490:Drivers/STM32F0xx_HAL_Driver/Src/stm32f0xx_hal_flash_ex.c ****  * @{
 491:Drivers/STM32F0xx_HAL_Driver/Src/stm32f0xx_hal_flash_ex.c ****  */
 492:Drivers/STM32F0xx_HAL_Driver/Src/stm32f0xx_hal_flash_ex.c **** 
 493:Drivers/STM32F0xx_HAL_Driver/Src/stm32f0xx_hal_flash_ex.c **** /**
 494:Drivers/STM32F0xx_HAL_Driver/Src/stm32f0xx_hal_flash_ex.c ****   * @brief  Full erase of FLASH memory Bank 
 495:Drivers/STM32F0xx_HAL_Driver/Src/stm32f0xx_hal_flash_ex.c ****   *
 496:Drivers/STM32F0xx_HAL_Driver/Src/stm32f0xx_hal_flash_ex.c ****   * @retval None
 497:Drivers/STM32F0xx_HAL_Driver/Src/stm32f0xx_hal_flash_ex.c ****   */
 498:Drivers/STM32F0xx_HAL_Driver/Src/stm32f0xx_hal_flash_ex.c **** static void FLASH_MassErase(void)
 499:Drivers/STM32F0xx_HAL_Driver/Src/stm32f0xx_hal_flash_ex.c **** {
 780              		.loc 1 499 1
 781              		.cfi_startproc
 782              		@ args = 0, pretend = 0, frame = 0
 783              		@ frame_needed = 1, uses_anonymous_args = 0
 784 0000 80B5     		push	{r7, lr}
 785              	.LCFI18:
 786              		.cfi_def_cfa_offset 8
 787              		.cfi_offset 7, -8
 788              		.cfi_offset 14, -4
 789 0002 00AF     		add	r7, sp, #0
 790              	.LCFI19:
 791              		.cfi_def_cfa_register 7
 500:Drivers/STM32F0xx_HAL_Driver/Src/stm32f0xx_hal_flash_ex.c ****   /* Clean the error context */
 501:Drivers/STM32F0xx_HAL_Driver/Src/stm32f0xx_hal_flash_ex.c ****   pFlash.ErrorCode = HAL_FLASH_ERROR_NONE;
 792              		.loc 1 501 20
 793 0004 084B     		ldr	r3, .L43
 794 0006 0022     		movs	r2, #0
 795 0008 DA61     		str	r2, [r3, #28]
 502:Drivers/STM32F0xx_HAL_Driver/Src/stm32f0xx_hal_flash_ex.c **** 
 503:Drivers/STM32F0xx_HAL_Driver/Src/stm32f0xx_hal_flash_ex.c ****     /* Only bank1 will be erased*/
 504:Drivers/STM32F0xx_HAL_Driver/Src/stm32f0xx_hal_flash_ex.c ****     SET_BIT(FLASH->CR, FLASH_CR_MER);
 796              		.loc 1 504 5
 797 000a 084B     		ldr	r3, .L43+4
 798 000c 1A69     		ldr	r2, [r3, #16]
 799 000e 074B     		ldr	r3, .L43+4
 800 0010 0421     		movs	r1, #4
 801 0012 0A43     		orrs	r2, r1
 802 0014 1A61     		str	r2, [r3, #16]
 505:Drivers/STM32F0xx_HAL_Driver/Src/stm32f0xx_hal_flash_ex.c ****     SET_BIT(FLASH->CR, FLASH_CR_STRT);
 803              		.loc 1 505 5
 804 0016 054B     		ldr	r3, .L43+4
 805 0018 1A69     		ldr	r2, [r3, #16]
 806 001a 044B     		ldr	r3, .L43+4
 807 001c 4021     		movs	r1, #64
 808 001e 0A43     		orrs	r2, r1
 809 0020 1A61     		str	r2, [r3, #16]
 506:Drivers/STM32F0xx_HAL_Driver/Src/stm32f0xx_hal_flash_ex.c **** }
 810              		.loc 1 506 1
 811 0022 C046     		nop
 812 0024 BD46     		mov	sp, r7
ARM GAS  C:\Users\mason\AppData\Local\Temp\ccXzLFKH.s 			page 24


 813              		@ sp needed
 814 0026 80BD     		pop	{r7, pc}
 815              	.L44:
 816              		.align	2
 817              	.L43:
 818 0028 00000000 		.word	pFlash
 819 002c 00200240 		.word	1073881088
 820              		.cfi_endproc
 821              	.LFE46:
 823              		.section	.text.FLASH_OB_EnableWRP,"ax",%progbits
 824              		.align	1
 825              		.syntax unified
 826              		.code	16
 827              		.thumb_func
 829              	FLASH_OB_EnableWRP:
 830              	.LFB47:
 507:Drivers/STM32F0xx_HAL_Driver/Src/stm32f0xx_hal_flash_ex.c **** 
 508:Drivers/STM32F0xx_HAL_Driver/Src/stm32f0xx_hal_flash_ex.c **** /**
 509:Drivers/STM32F0xx_HAL_Driver/Src/stm32f0xx_hal_flash_ex.c ****   * @brief  Enable the write protection of the desired pages
 510:Drivers/STM32F0xx_HAL_Driver/Src/stm32f0xx_hal_flash_ex.c ****   * @note   An option byte erase is done automatically in this function. 
 511:Drivers/STM32F0xx_HAL_Driver/Src/stm32f0xx_hal_flash_ex.c ****   * @note   When the memory read protection level is selected (RDP level = 1), 
 512:Drivers/STM32F0xx_HAL_Driver/Src/stm32f0xx_hal_flash_ex.c ****   *         it is not possible to program or erase the flash page i if
 513:Drivers/STM32F0xx_HAL_Driver/Src/stm32f0xx_hal_flash_ex.c ****   *         debug features are connected or boot code is executed in RAM, even if nWRPi = 1 
 514:Drivers/STM32F0xx_HAL_Driver/Src/stm32f0xx_hal_flash_ex.c ****   * 
 515:Drivers/STM32F0xx_HAL_Driver/Src/stm32f0xx_hal_flash_ex.c ****   * @param  WriteProtectPage specifies the page(s) to be write protected.
 516:Drivers/STM32F0xx_HAL_Driver/Src/stm32f0xx_hal_flash_ex.c ****   *         The value of this parameter depend on device used within the same series 
 517:Drivers/STM32F0xx_HAL_Driver/Src/stm32f0xx_hal_flash_ex.c ****   * @retval HAL status 
 518:Drivers/STM32F0xx_HAL_Driver/Src/stm32f0xx_hal_flash_ex.c ****   */
 519:Drivers/STM32F0xx_HAL_Driver/Src/stm32f0xx_hal_flash_ex.c **** static HAL_StatusTypeDef FLASH_OB_EnableWRP(uint32_t WriteProtectPage)
 520:Drivers/STM32F0xx_HAL_Driver/Src/stm32f0xx_hal_flash_ex.c **** {
 831              		.loc 1 520 1
 832              		.cfi_startproc
 833              		@ args = 0, pretend = 0, frame = 16
 834              		@ frame_needed = 1, uses_anonymous_args = 0
 835 0000 F0B5     		push	{r4, r5, r6, r7, lr}
 836              	.LCFI20:
 837              		.cfi_def_cfa_offset 20
 838              		.cfi_offset 4, -20
 839              		.cfi_offset 5, -16
 840              		.cfi_offset 6, -12
 841              		.cfi_offset 7, -8
 842              		.cfi_offset 14, -4
 843 0002 85B0     		sub	sp, sp, #20
 844              	.LCFI21:
 845              		.cfi_def_cfa_offset 40
 846 0004 00AF     		add	r7, sp, #0
 847              	.LCFI22:
 848              		.cfi_def_cfa_register 7
 849 0006 7860     		str	r0, [r7, #4]
 521:Drivers/STM32F0xx_HAL_Driver/Src/stm32f0xx_hal_flash_ex.c ****   HAL_StatusTypeDef status = HAL_OK;
 850              		.loc 1 521 21
 851 0008 0F24     		movs	r4, #15
 852 000a 3B19     		adds	r3, r7, r4
 853 000c 0022     		movs	r2, #0
 854 000e 1A70     		strb	r2, [r3]
 522:Drivers/STM32F0xx_HAL_Driver/Src/stm32f0xx_hal_flash_ex.c ****   uint16_t WRP0_Data = 0xFFFFU;
 855              		.loc 1 522 12
ARM GAS  C:\Users\mason\AppData\Local\Temp\ccXzLFKH.s 			page 25


 856 0010 0C26     		movs	r6, #12
 857 0012 BB19     		adds	r3, r7, r6
 858 0014 0122     		movs	r2, #1
 859 0016 5242     		rsbs	r2, r2, #0
 860 0018 1A80     		strh	r2, [r3]
 523:Drivers/STM32F0xx_HAL_Driver/Src/stm32f0xx_hal_flash_ex.c **** #if defined(OB_WRP1_WRP1)
 524:Drivers/STM32F0xx_HAL_Driver/Src/stm32f0xx_hal_flash_ex.c ****   uint16_t WRP1_Data = 0xFFFFU;
 525:Drivers/STM32F0xx_HAL_Driver/Src/stm32f0xx_hal_flash_ex.c **** #endif /* OB_WRP1_WRP1 */
 526:Drivers/STM32F0xx_HAL_Driver/Src/stm32f0xx_hal_flash_ex.c **** #if defined(OB_WRP2_WRP2)
 527:Drivers/STM32F0xx_HAL_Driver/Src/stm32f0xx_hal_flash_ex.c ****   uint16_t WRP2_Data = 0xFFFFU;
 528:Drivers/STM32F0xx_HAL_Driver/Src/stm32f0xx_hal_flash_ex.c **** #endif /* OB_WRP2_WRP2 */
 529:Drivers/STM32F0xx_HAL_Driver/Src/stm32f0xx_hal_flash_ex.c **** #if defined(OB_WRP3_WRP3)
 530:Drivers/STM32F0xx_HAL_Driver/Src/stm32f0xx_hal_flash_ex.c ****   uint16_t WRP3_Data = 0xFFFFU;
 531:Drivers/STM32F0xx_HAL_Driver/Src/stm32f0xx_hal_flash_ex.c **** #endif /* OB_WRP3_WRP3 */
 532:Drivers/STM32F0xx_HAL_Driver/Src/stm32f0xx_hal_flash_ex.c ****   
 533:Drivers/STM32F0xx_HAL_Driver/Src/stm32f0xx_hal_flash_ex.c ****   /* Check the parameters */
 534:Drivers/STM32F0xx_HAL_Driver/Src/stm32f0xx_hal_flash_ex.c ****   assert_param(IS_OB_WRP(WriteProtectPage));
 535:Drivers/STM32F0xx_HAL_Driver/Src/stm32f0xx_hal_flash_ex.c ****     
 536:Drivers/STM32F0xx_HAL_Driver/Src/stm32f0xx_hal_flash_ex.c ****   /* Get current write protected pages and the new pages to be protected ******/
 537:Drivers/STM32F0xx_HAL_Driver/Src/stm32f0xx_hal_flash_ex.c ****   WriteProtectPage = (uint32_t)(~((~FLASH_OB_GetWRP()) | WriteProtectPage));
 861              		.loc 1 537 37
 862 001a FFF7FEFF 		bl	FLASH_OB_GetWRP
 863 001e 0200     		movs	r2, r0
 864              		.loc 1 537 33
 865 0020 7B68     		ldr	r3, [r7, #4]
 866 0022 DB43     		mvns	r3, r3
 867              		.loc 1 537 20
 868 0024 1340     		ands	r3, r2
 869 0026 7B60     		str	r3, [r7, #4]
 538:Drivers/STM32F0xx_HAL_Driver/Src/stm32f0xx_hal_flash_ex.c ****   
 539:Drivers/STM32F0xx_HAL_Driver/Src/stm32f0xx_hal_flash_ex.c **** #if defined(OB_WRP_PAGES0TO15MASK)
 540:Drivers/STM32F0xx_HAL_Driver/Src/stm32f0xx_hal_flash_ex.c ****   WRP0_Data = (uint16_t)(WriteProtectPage & OB_WRP_PAGES0TO15MASK);
 541:Drivers/STM32F0xx_HAL_Driver/Src/stm32f0xx_hal_flash_ex.c **** #elif defined(OB_WRP_PAGES0TO31MASK)
 542:Drivers/STM32F0xx_HAL_Driver/Src/stm32f0xx_hal_flash_ex.c ****   WRP0_Data = (uint16_t)(WriteProtectPage & OB_WRP_PAGES0TO31MASK);
 870              		.loc 1 542 15
 871 0028 7B68     		ldr	r3, [r7, #4]
 872 002a 9AB2     		uxth	r2, r3
 873              		.loc 1 542 13
 874 002c BB19     		adds	r3, r7, r6
 875 002e FF21     		movs	r1, #255
 876 0030 0A40     		ands	r2, r1
 877 0032 1A80     		strh	r2, [r3]
 543:Drivers/STM32F0xx_HAL_Driver/Src/stm32f0xx_hal_flash_ex.c **** #endif /* OB_WRP_PAGES0TO31MASK */
 544:Drivers/STM32F0xx_HAL_Driver/Src/stm32f0xx_hal_flash_ex.c ****   
 545:Drivers/STM32F0xx_HAL_Driver/Src/stm32f0xx_hal_flash_ex.c **** #if defined(OB_WRP_PAGES16TO31MASK)
 546:Drivers/STM32F0xx_HAL_Driver/Src/stm32f0xx_hal_flash_ex.c ****   WRP1_Data = (uint16_t)((WriteProtectPage & OB_WRP_PAGES16TO31MASK) >> 8U);
 547:Drivers/STM32F0xx_HAL_Driver/Src/stm32f0xx_hal_flash_ex.c **** #elif defined(OB_WRP_PAGES32TO63MASK)
 548:Drivers/STM32F0xx_HAL_Driver/Src/stm32f0xx_hal_flash_ex.c ****   WRP1_Data = (uint16_t)((WriteProtectPage & OB_WRP_PAGES32TO63MASK) >> 8U);
 549:Drivers/STM32F0xx_HAL_Driver/Src/stm32f0xx_hal_flash_ex.c **** #endif /* OB_WRP_PAGES32TO63MASK */
 550:Drivers/STM32F0xx_HAL_Driver/Src/stm32f0xx_hal_flash_ex.c ****  
 551:Drivers/STM32F0xx_HAL_Driver/Src/stm32f0xx_hal_flash_ex.c **** #if defined(OB_WRP_PAGES32TO47MASK)
 552:Drivers/STM32F0xx_HAL_Driver/Src/stm32f0xx_hal_flash_ex.c ****   WRP2_Data = (uint16_t)((WriteProtectPage & OB_WRP_PAGES32TO47MASK) >> 16U);
 553:Drivers/STM32F0xx_HAL_Driver/Src/stm32f0xx_hal_flash_ex.c **** #endif /* OB_WRP_PAGES32TO47MASK */
 554:Drivers/STM32F0xx_HAL_Driver/Src/stm32f0xx_hal_flash_ex.c **** 
 555:Drivers/STM32F0xx_HAL_Driver/Src/stm32f0xx_hal_flash_ex.c **** #if defined(OB_WRP_PAGES48TO63MASK)
 556:Drivers/STM32F0xx_HAL_Driver/Src/stm32f0xx_hal_flash_ex.c ****   WRP3_Data = (uint16_t)((WriteProtectPage & OB_WRP_PAGES48TO63MASK) >> 24U); 
 557:Drivers/STM32F0xx_HAL_Driver/Src/stm32f0xx_hal_flash_ex.c **** #elif defined(OB_WRP_PAGES48TO127MASK)
ARM GAS  C:\Users\mason\AppData\Local\Temp\ccXzLFKH.s 			page 26


 558:Drivers/STM32F0xx_HAL_Driver/Src/stm32f0xx_hal_flash_ex.c ****   WRP3_Data = (uint16_t)((WriteProtectPage & OB_WRP_PAGES48TO127MASK) >> 24U); 
 559:Drivers/STM32F0xx_HAL_Driver/Src/stm32f0xx_hal_flash_ex.c **** #endif /* OB_WRP_PAGES48TO63MASK */
 560:Drivers/STM32F0xx_HAL_Driver/Src/stm32f0xx_hal_flash_ex.c ****   
 561:Drivers/STM32F0xx_HAL_Driver/Src/stm32f0xx_hal_flash_ex.c ****   /* Wait for last operation to be completed */
 562:Drivers/STM32F0xx_HAL_Driver/Src/stm32f0xx_hal_flash_ex.c ****   status = FLASH_WaitForLastOperation((uint32_t)FLASH_TIMEOUT_VALUE);
 878              		.loc 1 562 12
 879 0034 2500     		movs	r5, r4
 880 0036 3C19     		adds	r4, r7, r4
 881 0038 1E4B     		ldr	r3, .L49
 882 003a 1800     		movs	r0, r3
 883 003c FFF7FEFF 		bl	FLASH_WaitForLastOperation
 884 0040 0300     		movs	r3, r0
 885 0042 2370     		strb	r3, [r4]
 563:Drivers/STM32F0xx_HAL_Driver/Src/stm32f0xx_hal_flash_ex.c **** 
 564:Drivers/STM32F0xx_HAL_Driver/Src/stm32f0xx_hal_flash_ex.c ****   if(status == HAL_OK)
 886              		.loc 1 564 5
 887 0044 7B19     		adds	r3, r7, r5
 888 0046 1B78     		ldrb	r3, [r3]
 889 0048 002B     		cmp	r3, #0
 890 004a 2CD1     		bne	.L46
 565:Drivers/STM32F0xx_HAL_Driver/Src/stm32f0xx_hal_flash_ex.c ****   { 
 566:Drivers/STM32F0xx_HAL_Driver/Src/stm32f0xx_hal_flash_ex.c ****     /* Clean the error context */
 567:Drivers/STM32F0xx_HAL_Driver/Src/stm32f0xx_hal_flash_ex.c ****     pFlash.ErrorCode = HAL_FLASH_ERROR_NONE;
 891              		.loc 1 567 22
 892 004c 1A4B     		ldr	r3, .L49+4
 893 004e 0022     		movs	r2, #0
 894 0050 DA61     		str	r2, [r3, #28]
 568:Drivers/STM32F0xx_HAL_Driver/Src/stm32f0xx_hal_flash_ex.c **** 
 569:Drivers/STM32F0xx_HAL_Driver/Src/stm32f0xx_hal_flash_ex.c ****     /* To be able to write again option byte, need to perform a option byte erase */
 570:Drivers/STM32F0xx_HAL_Driver/Src/stm32f0xx_hal_flash_ex.c ****     status = HAL_FLASHEx_OBErase();
 895              		.loc 1 570 14
 896 0052 7C19     		adds	r4, r7, r5
 897 0054 FFF7FEFF 		bl	HAL_FLASHEx_OBErase
 898 0058 0300     		movs	r3, r0
 899 005a 2370     		strb	r3, [r4]
 571:Drivers/STM32F0xx_HAL_Driver/Src/stm32f0xx_hal_flash_ex.c ****     if (status == HAL_OK)  
 900              		.loc 1 571 8
 901 005c 2800     		movs	r0, r5
 902 005e 7B19     		adds	r3, r7, r5
 903 0060 1B78     		ldrb	r3, [r3]
 904 0062 002B     		cmp	r3, #0
 905 0064 1FD1     		bne	.L46
 572:Drivers/STM32F0xx_HAL_Driver/Src/stm32f0xx_hal_flash_ex.c ****     {
 573:Drivers/STM32F0xx_HAL_Driver/Src/stm32f0xx_hal_flash_ex.c ****       /* Enable write protection */
 574:Drivers/STM32F0xx_HAL_Driver/Src/stm32f0xx_hal_flash_ex.c ****       SET_BIT(FLASH->CR, FLASH_CR_OPTPG);
 906              		.loc 1 574 7
 907 0066 154B     		ldr	r3, .L49+8
 908 0068 1A69     		ldr	r2, [r3, #16]
 909 006a 144B     		ldr	r3, .L49+8
 910 006c 1021     		movs	r1, #16
 911 006e 0A43     		orrs	r2, r1
 912 0070 1A61     		str	r2, [r3, #16]
 575:Drivers/STM32F0xx_HAL_Driver/Src/stm32f0xx_hal_flash_ex.c **** 
 576:Drivers/STM32F0xx_HAL_Driver/Src/stm32f0xx_hal_flash_ex.c **** #if defined(OB_WRP0_WRP0)
 577:Drivers/STM32F0xx_HAL_Driver/Src/stm32f0xx_hal_flash_ex.c ****       if(WRP0_Data != 0xFFU)
 913              		.loc 1 577 9
 914 0072 BB19     		adds	r3, r7, r6
ARM GAS  C:\Users\mason\AppData\Local\Temp\ccXzLFKH.s 			page 27


 915 0074 1B88     		ldrh	r3, [r3]
 916 0076 FF2B     		cmp	r3, #255
 917 0078 0FD0     		beq	.L47
 578:Drivers/STM32F0xx_HAL_Driver/Src/stm32f0xx_hal_flash_ex.c ****       {
 579:Drivers/STM32F0xx_HAL_Driver/Src/stm32f0xx_hal_flash_ex.c ****         OB->WRP0 &= WRP0_Data;
 918              		.loc 1 579 18
 919 007a 114B     		ldr	r3, .L49+12
 920 007c 1B89     		ldrh	r3, [r3, #8]
 921 007e 9BB2     		uxth	r3, r3
 922 0080 0F49     		ldr	r1, .L49+12
 923 0082 BA19     		adds	r2, r7, r6
 924 0084 1288     		ldrh	r2, [r2]
 925 0086 1340     		ands	r3, r2
 926 0088 9BB2     		uxth	r3, r3
 927 008a 0B81     		strh	r3, [r1, #8]
 580:Drivers/STM32F0xx_HAL_Driver/Src/stm32f0xx_hal_flash_ex.c ****         
 581:Drivers/STM32F0xx_HAL_Driver/Src/stm32f0xx_hal_flash_ex.c ****         /* Wait for last operation to be completed */
 582:Drivers/STM32F0xx_HAL_Driver/Src/stm32f0xx_hal_flash_ex.c ****         status = FLASH_WaitForLastOperation((uint32_t)FLASH_TIMEOUT_VALUE);
 928              		.loc 1 582 18
 929 008c 3C18     		adds	r4, r7, r0
 930 008e 094B     		ldr	r3, .L49
 931 0090 1800     		movs	r0, r3
 932 0092 FFF7FEFF 		bl	FLASH_WaitForLastOperation
 933 0096 0300     		movs	r3, r0
 934 0098 2370     		strb	r3, [r4]
 935              	.L47:
 583:Drivers/STM32F0xx_HAL_Driver/Src/stm32f0xx_hal_flash_ex.c ****       }
 584:Drivers/STM32F0xx_HAL_Driver/Src/stm32f0xx_hal_flash_ex.c **** #endif /* OB_WRP0_WRP0 */
 585:Drivers/STM32F0xx_HAL_Driver/Src/stm32f0xx_hal_flash_ex.c **** 
 586:Drivers/STM32F0xx_HAL_Driver/Src/stm32f0xx_hal_flash_ex.c **** #if defined(OB_WRP1_WRP1)
 587:Drivers/STM32F0xx_HAL_Driver/Src/stm32f0xx_hal_flash_ex.c ****       if((status == HAL_OK) && (WRP1_Data != 0xFFU))
 588:Drivers/STM32F0xx_HAL_Driver/Src/stm32f0xx_hal_flash_ex.c ****       {
 589:Drivers/STM32F0xx_HAL_Driver/Src/stm32f0xx_hal_flash_ex.c ****         OB->WRP1 &= WRP1_Data;
 590:Drivers/STM32F0xx_HAL_Driver/Src/stm32f0xx_hal_flash_ex.c ****         
 591:Drivers/STM32F0xx_HAL_Driver/Src/stm32f0xx_hal_flash_ex.c ****         /* Wait for last operation to be completed */
 592:Drivers/STM32F0xx_HAL_Driver/Src/stm32f0xx_hal_flash_ex.c ****         status = FLASH_WaitForLastOperation((uint32_t)FLASH_TIMEOUT_VALUE);
 593:Drivers/STM32F0xx_HAL_Driver/Src/stm32f0xx_hal_flash_ex.c ****       }
 594:Drivers/STM32F0xx_HAL_Driver/Src/stm32f0xx_hal_flash_ex.c **** #endif /* OB_WRP1_WRP1 */
 595:Drivers/STM32F0xx_HAL_Driver/Src/stm32f0xx_hal_flash_ex.c **** 
 596:Drivers/STM32F0xx_HAL_Driver/Src/stm32f0xx_hal_flash_ex.c **** #if defined(OB_WRP2_WRP2)
 597:Drivers/STM32F0xx_HAL_Driver/Src/stm32f0xx_hal_flash_ex.c ****       if((status == HAL_OK) && (WRP2_Data != 0xFFU))
 598:Drivers/STM32F0xx_HAL_Driver/Src/stm32f0xx_hal_flash_ex.c ****       {
 599:Drivers/STM32F0xx_HAL_Driver/Src/stm32f0xx_hal_flash_ex.c ****         OB->WRP2 &= WRP2_Data;
 600:Drivers/STM32F0xx_HAL_Driver/Src/stm32f0xx_hal_flash_ex.c ****         
 601:Drivers/STM32F0xx_HAL_Driver/Src/stm32f0xx_hal_flash_ex.c ****         /* Wait for last operation to be completed */
 602:Drivers/STM32F0xx_HAL_Driver/Src/stm32f0xx_hal_flash_ex.c ****         status = FLASH_WaitForLastOperation((uint32_t)FLASH_TIMEOUT_VALUE);
 603:Drivers/STM32F0xx_HAL_Driver/Src/stm32f0xx_hal_flash_ex.c ****       }
 604:Drivers/STM32F0xx_HAL_Driver/Src/stm32f0xx_hal_flash_ex.c **** #endif /* OB_WRP2_WRP2 */
 605:Drivers/STM32F0xx_HAL_Driver/Src/stm32f0xx_hal_flash_ex.c **** 
 606:Drivers/STM32F0xx_HAL_Driver/Src/stm32f0xx_hal_flash_ex.c **** #if defined(OB_WRP3_WRP3)
 607:Drivers/STM32F0xx_HAL_Driver/Src/stm32f0xx_hal_flash_ex.c ****       if((status == HAL_OK) && (WRP3_Data != 0xFFU))
 608:Drivers/STM32F0xx_HAL_Driver/Src/stm32f0xx_hal_flash_ex.c ****       {
 609:Drivers/STM32F0xx_HAL_Driver/Src/stm32f0xx_hal_flash_ex.c ****         OB->WRP3 &= WRP3_Data;
 610:Drivers/STM32F0xx_HAL_Driver/Src/stm32f0xx_hal_flash_ex.c ****         
 611:Drivers/STM32F0xx_HAL_Driver/Src/stm32f0xx_hal_flash_ex.c ****         /* Wait for last operation to be completed */
 612:Drivers/STM32F0xx_HAL_Driver/Src/stm32f0xx_hal_flash_ex.c ****         status = FLASH_WaitForLastOperation((uint32_t)FLASH_TIMEOUT_VALUE);
 613:Drivers/STM32F0xx_HAL_Driver/Src/stm32f0xx_hal_flash_ex.c ****       }
ARM GAS  C:\Users\mason\AppData\Local\Temp\ccXzLFKH.s 			page 28


 614:Drivers/STM32F0xx_HAL_Driver/Src/stm32f0xx_hal_flash_ex.c **** #endif /* OB_WRP3_WRP3 */
 615:Drivers/STM32F0xx_HAL_Driver/Src/stm32f0xx_hal_flash_ex.c **** 
 616:Drivers/STM32F0xx_HAL_Driver/Src/stm32f0xx_hal_flash_ex.c ****       /* if the program operation is completed, disable the OPTPG Bit */
 617:Drivers/STM32F0xx_HAL_Driver/Src/stm32f0xx_hal_flash_ex.c ****       CLEAR_BIT(FLASH->CR, FLASH_CR_OPTPG);
 936              		.loc 1 617 7
 937 009a 084B     		ldr	r3, .L49+8
 938 009c 1A69     		ldr	r2, [r3, #16]
 939 009e 074B     		ldr	r3, .L49+8
 940 00a0 1021     		movs	r1, #16
 941 00a2 8A43     		bics	r2, r1
 942 00a4 1A61     		str	r2, [r3, #16]
 943              	.L46:
 618:Drivers/STM32F0xx_HAL_Driver/Src/stm32f0xx_hal_flash_ex.c ****     }
 619:Drivers/STM32F0xx_HAL_Driver/Src/stm32f0xx_hal_flash_ex.c ****   }
 620:Drivers/STM32F0xx_HAL_Driver/Src/stm32f0xx_hal_flash_ex.c ****   
 621:Drivers/STM32F0xx_HAL_Driver/Src/stm32f0xx_hal_flash_ex.c ****   return status;
 944              		.loc 1 621 10
 945 00a6 0F23     		movs	r3, #15
 946 00a8 FB18     		adds	r3, r7, r3
 947 00aa 1B78     		ldrb	r3, [r3]
 622:Drivers/STM32F0xx_HAL_Driver/Src/stm32f0xx_hal_flash_ex.c **** }
 948              		.loc 1 622 1
 949 00ac 1800     		movs	r0, r3
 950 00ae BD46     		mov	sp, r7
 951 00b0 05B0     		add	sp, sp, #20
 952              		@ sp needed
 953 00b2 F0BD     		pop	{r4, r5, r6, r7, pc}
 954              	.L50:
 955              		.align	2
 956              	.L49:
 957 00b4 50C30000 		.word	50000
 958 00b8 00000000 		.word	pFlash
 959 00bc 00200240 		.word	1073881088
 960 00c0 00F8FF1F 		.word	536868864
 961              		.cfi_endproc
 962              	.LFE47:
 964              		.section	.text.FLASH_OB_DisableWRP,"ax",%progbits
 965              		.align	1
 966              		.syntax unified
 967              		.code	16
 968              		.thumb_func
 970              	FLASH_OB_DisableWRP:
 971              	.LFB48:
 623:Drivers/STM32F0xx_HAL_Driver/Src/stm32f0xx_hal_flash_ex.c **** 
 624:Drivers/STM32F0xx_HAL_Driver/Src/stm32f0xx_hal_flash_ex.c **** /**
 625:Drivers/STM32F0xx_HAL_Driver/Src/stm32f0xx_hal_flash_ex.c ****   * @brief  Disable the write protection of the desired pages
 626:Drivers/STM32F0xx_HAL_Driver/Src/stm32f0xx_hal_flash_ex.c ****   * @note   An option byte erase is done automatically in this function. 
 627:Drivers/STM32F0xx_HAL_Driver/Src/stm32f0xx_hal_flash_ex.c ****   * @note   When the memory read protection level is selected (RDP level = 1), 
 628:Drivers/STM32F0xx_HAL_Driver/Src/stm32f0xx_hal_flash_ex.c ****   *         it is not possible to program or erase the flash page i if   
 629:Drivers/STM32F0xx_HAL_Driver/Src/stm32f0xx_hal_flash_ex.c ****   *         debug features are connected or boot code is executed in RAM, even if nWRPi = 1 
 630:Drivers/STM32F0xx_HAL_Driver/Src/stm32f0xx_hal_flash_ex.c ****   * 
 631:Drivers/STM32F0xx_HAL_Driver/Src/stm32f0xx_hal_flash_ex.c ****   * @param  WriteProtectPage specifies the page(s) to be write unprotected.
 632:Drivers/STM32F0xx_HAL_Driver/Src/stm32f0xx_hal_flash_ex.c ****   *         The value of this parameter depend on device used within the same series 
 633:Drivers/STM32F0xx_HAL_Driver/Src/stm32f0xx_hal_flash_ex.c ****   * @retval HAL status 
 634:Drivers/STM32F0xx_HAL_Driver/Src/stm32f0xx_hal_flash_ex.c ****   */
 635:Drivers/STM32F0xx_HAL_Driver/Src/stm32f0xx_hal_flash_ex.c **** static HAL_StatusTypeDef FLASH_OB_DisableWRP(uint32_t WriteProtectPage)
 636:Drivers/STM32F0xx_HAL_Driver/Src/stm32f0xx_hal_flash_ex.c **** {
ARM GAS  C:\Users\mason\AppData\Local\Temp\ccXzLFKH.s 			page 29


 972              		.loc 1 636 1
 973              		.cfi_startproc
 974              		@ args = 0, pretend = 0, frame = 16
 975              		@ frame_needed = 1, uses_anonymous_args = 0
 976 0000 F0B5     		push	{r4, r5, r6, r7, lr}
 977              	.LCFI23:
 978              		.cfi_def_cfa_offset 20
 979              		.cfi_offset 4, -20
 980              		.cfi_offset 5, -16
 981              		.cfi_offset 6, -12
 982              		.cfi_offset 7, -8
 983              		.cfi_offset 14, -4
 984 0002 85B0     		sub	sp, sp, #20
 985              	.LCFI24:
 986              		.cfi_def_cfa_offset 40
 987 0004 00AF     		add	r7, sp, #0
 988              	.LCFI25:
 989              		.cfi_def_cfa_register 7
 990 0006 7860     		str	r0, [r7, #4]
 637:Drivers/STM32F0xx_HAL_Driver/Src/stm32f0xx_hal_flash_ex.c ****   HAL_StatusTypeDef status = HAL_OK;
 991              		.loc 1 637 21
 992 0008 0F24     		movs	r4, #15
 993 000a 3B19     		adds	r3, r7, r4
 994 000c 0022     		movs	r2, #0
 995 000e 1A70     		strb	r2, [r3]
 638:Drivers/STM32F0xx_HAL_Driver/Src/stm32f0xx_hal_flash_ex.c ****   uint16_t WRP0_Data = 0xFFFFU;
 996              		.loc 1 638 12
 997 0010 0C26     		movs	r6, #12
 998 0012 BB19     		adds	r3, r7, r6
 999 0014 0122     		movs	r2, #1
 1000 0016 5242     		rsbs	r2, r2, #0
 1001 0018 1A80     		strh	r2, [r3]
 639:Drivers/STM32F0xx_HAL_Driver/Src/stm32f0xx_hal_flash_ex.c **** #if defined(OB_WRP1_WRP1)
 640:Drivers/STM32F0xx_HAL_Driver/Src/stm32f0xx_hal_flash_ex.c ****   uint16_t WRP1_Data = 0xFFFFU;
 641:Drivers/STM32F0xx_HAL_Driver/Src/stm32f0xx_hal_flash_ex.c **** #endif /* OB_WRP1_WRP1 */
 642:Drivers/STM32F0xx_HAL_Driver/Src/stm32f0xx_hal_flash_ex.c **** #if defined(OB_WRP2_WRP2)
 643:Drivers/STM32F0xx_HAL_Driver/Src/stm32f0xx_hal_flash_ex.c ****   uint16_t WRP2_Data = 0xFFFFU;
 644:Drivers/STM32F0xx_HAL_Driver/Src/stm32f0xx_hal_flash_ex.c **** #endif /* OB_WRP2_WRP2 */
 645:Drivers/STM32F0xx_HAL_Driver/Src/stm32f0xx_hal_flash_ex.c **** #if defined(OB_WRP3_WRP3)
 646:Drivers/STM32F0xx_HAL_Driver/Src/stm32f0xx_hal_flash_ex.c ****   uint16_t WRP3_Data = 0xFFFFU;
 647:Drivers/STM32F0xx_HAL_Driver/Src/stm32f0xx_hal_flash_ex.c **** #endif /* OB_WRP3_WRP3 */
 648:Drivers/STM32F0xx_HAL_Driver/Src/stm32f0xx_hal_flash_ex.c ****   
 649:Drivers/STM32F0xx_HAL_Driver/Src/stm32f0xx_hal_flash_ex.c ****   /* Check the parameters */
 650:Drivers/STM32F0xx_HAL_Driver/Src/stm32f0xx_hal_flash_ex.c ****   assert_param(IS_OB_WRP(WriteProtectPage));
 651:Drivers/STM32F0xx_HAL_Driver/Src/stm32f0xx_hal_flash_ex.c **** 
 652:Drivers/STM32F0xx_HAL_Driver/Src/stm32f0xx_hal_flash_ex.c ****   /* Get current write protected pages and the new pages to be unprotected ******/
 653:Drivers/STM32F0xx_HAL_Driver/Src/stm32f0xx_hal_flash_ex.c ****   WriteProtectPage = (FLASH_OB_GetWRP() | WriteProtectPage);
 1002              		.loc 1 653 23
 1003 001a FFF7FEFF 		bl	FLASH_OB_GetWRP
 1004 001e 0200     		movs	r2, r0
 1005              		.loc 1 653 20
 1006 0020 7B68     		ldr	r3, [r7, #4]
 1007 0022 1343     		orrs	r3, r2
 1008 0024 7B60     		str	r3, [r7, #4]
 654:Drivers/STM32F0xx_HAL_Driver/Src/stm32f0xx_hal_flash_ex.c **** 
 655:Drivers/STM32F0xx_HAL_Driver/Src/stm32f0xx_hal_flash_ex.c **** #if defined(OB_WRP_PAGES0TO15MASK)
 656:Drivers/STM32F0xx_HAL_Driver/Src/stm32f0xx_hal_flash_ex.c ****   WRP0_Data = (uint16_t)(WriteProtectPage & OB_WRP_PAGES0TO15MASK);
ARM GAS  C:\Users\mason\AppData\Local\Temp\ccXzLFKH.s 			page 30


 657:Drivers/STM32F0xx_HAL_Driver/Src/stm32f0xx_hal_flash_ex.c **** #elif defined(OB_WRP_PAGES0TO31MASK)
 658:Drivers/STM32F0xx_HAL_Driver/Src/stm32f0xx_hal_flash_ex.c ****   WRP0_Data = (uint16_t)(WriteProtectPage & OB_WRP_PAGES0TO31MASK);
 1009              		.loc 1 658 15
 1010 0026 7B68     		ldr	r3, [r7, #4]
 1011 0028 9AB2     		uxth	r2, r3
 1012              		.loc 1 658 13
 1013 002a BB19     		adds	r3, r7, r6
 1014 002c FF21     		movs	r1, #255
 1015 002e 0A40     		ands	r2, r1
 1016 0030 1A80     		strh	r2, [r3]
 659:Drivers/STM32F0xx_HAL_Driver/Src/stm32f0xx_hal_flash_ex.c **** #endif /* OB_WRP_PAGES0TO31MASK */
 660:Drivers/STM32F0xx_HAL_Driver/Src/stm32f0xx_hal_flash_ex.c ****   
 661:Drivers/STM32F0xx_HAL_Driver/Src/stm32f0xx_hal_flash_ex.c **** #if defined(OB_WRP_PAGES16TO31MASK)
 662:Drivers/STM32F0xx_HAL_Driver/Src/stm32f0xx_hal_flash_ex.c ****   WRP1_Data = (uint16_t)((WriteProtectPage & OB_WRP_PAGES16TO31MASK) >> 8U);
 663:Drivers/STM32F0xx_HAL_Driver/Src/stm32f0xx_hal_flash_ex.c **** #elif defined(OB_WRP_PAGES32TO63MASK)
 664:Drivers/STM32F0xx_HAL_Driver/Src/stm32f0xx_hal_flash_ex.c ****   WRP1_Data = (uint16_t)((WriteProtectPage & OB_WRP_PAGES32TO63MASK) >> 8U);
 665:Drivers/STM32F0xx_HAL_Driver/Src/stm32f0xx_hal_flash_ex.c **** #endif /* OB_WRP_PAGES32TO63MASK */
 666:Drivers/STM32F0xx_HAL_Driver/Src/stm32f0xx_hal_flash_ex.c ****  
 667:Drivers/STM32F0xx_HAL_Driver/Src/stm32f0xx_hal_flash_ex.c **** #if defined(OB_WRP_PAGES32TO47MASK)
 668:Drivers/STM32F0xx_HAL_Driver/Src/stm32f0xx_hal_flash_ex.c ****   WRP2_Data = (uint16_t)((WriteProtectPage & OB_WRP_PAGES32TO47MASK) >> 16U);
 669:Drivers/STM32F0xx_HAL_Driver/Src/stm32f0xx_hal_flash_ex.c **** #endif /* OB_WRP_PAGES32TO47MASK */
 670:Drivers/STM32F0xx_HAL_Driver/Src/stm32f0xx_hal_flash_ex.c **** 
 671:Drivers/STM32F0xx_HAL_Driver/Src/stm32f0xx_hal_flash_ex.c **** #if defined(OB_WRP_PAGES48TO63MASK)
 672:Drivers/STM32F0xx_HAL_Driver/Src/stm32f0xx_hal_flash_ex.c ****   WRP3_Data = (uint16_t)((WriteProtectPage & OB_WRP_PAGES48TO63MASK) >> 24U); 
 673:Drivers/STM32F0xx_HAL_Driver/Src/stm32f0xx_hal_flash_ex.c **** #elif defined(OB_WRP_PAGES48TO127MASK)
 674:Drivers/STM32F0xx_HAL_Driver/Src/stm32f0xx_hal_flash_ex.c ****   WRP3_Data = (uint16_t)((WriteProtectPage & OB_WRP_PAGES48TO127MASK) >> 24U); 
 675:Drivers/STM32F0xx_HAL_Driver/Src/stm32f0xx_hal_flash_ex.c **** #endif /* OB_WRP_PAGES48TO63MASK */
 676:Drivers/STM32F0xx_HAL_Driver/Src/stm32f0xx_hal_flash_ex.c **** 
 677:Drivers/STM32F0xx_HAL_Driver/Src/stm32f0xx_hal_flash_ex.c ****     
 678:Drivers/STM32F0xx_HAL_Driver/Src/stm32f0xx_hal_flash_ex.c ****   /* Wait for last operation to be completed */
 679:Drivers/STM32F0xx_HAL_Driver/Src/stm32f0xx_hal_flash_ex.c ****   status = FLASH_WaitForLastOperation((uint32_t)FLASH_TIMEOUT_VALUE);
 1017              		.loc 1 679 12
 1018 0032 2500     		movs	r5, r4
 1019 0034 3C19     		adds	r4, r7, r4
 1020 0036 1F4B     		ldr	r3, .L55
 1021 0038 1800     		movs	r0, r3
 1022 003a FFF7FEFF 		bl	FLASH_WaitForLastOperation
 1023 003e 0300     		movs	r3, r0
 1024 0040 2370     		strb	r3, [r4]
 680:Drivers/STM32F0xx_HAL_Driver/Src/stm32f0xx_hal_flash_ex.c **** 
 681:Drivers/STM32F0xx_HAL_Driver/Src/stm32f0xx_hal_flash_ex.c ****   if(status == HAL_OK)
 1025              		.loc 1 681 5
 1026 0042 7B19     		adds	r3, r7, r5
 1027 0044 1B78     		ldrb	r3, [r3]
 1028 0046 002B     		cmp	r3, #0
 1029 0048 2CD1     		bne	.L52
 682:Drivers/STM32F0xx_HAL_Driver/Src/stm32f0xx_hal_flash_ex.c ****   { 
 683:Drivers/STM32F0xx_HAL_Driver/Src/stm32f0xx_hal_flash_ex.c ****     /* Clean the error context */
 684:Drivers/STM32F0xx_HAL_Driver/Src/stm32f0xx_hal_flash_ex.c ****     pFlash.ErrorCode = HAL_FLASH_ERROR_NONE;
 1030              		.loc 1 684 22
 1031 004a 1B4B     		ldr	r3, .L55+4
 1032 004c 0022     		movs	r2, #0
 1033 004e DA61     		str	r2, [r3, #28]
 685:Drivers/STM32F0xx_HAL_Driver/Src/stm32f0xx_hal_flash_ex.c **** 
 686:Drivers/STM32F0xx_HAL_Driver/Src/stm32f0xx_hal_flash_ex.c ****     /* To be able to write again option byte, need to perform a option byte erase */
 687:Drivers/STM32F0xx_HAL_Driver/Src/stm32f0xx_hal_flash_ex.c ****     status = HAL_FLASHEx_OBErase();
 1034              		.loc 1 687 14
ARM GAS  C:\Users\mason\AppData\Local\Temp\ccXzLFKH.s 			page 31


 1035 0050 7C19     		adds	r4, r7, r5
 1036 0052 FFF7FEFF 		bl	HAL_FLASHEx_OBErase
 1037 0056 0300     		movs	r3, r0
 1038 0058 2370     		strb	r3, [r4]
 688:Drivers/STM32F0xx_HAL_Driver/Src/stm32f0xx_hal_flash_ex.c ****     if (status == HAL_OK)  
 1039              		.loc 1 688 8
 1040 005a 2800     		movs	r0, r5
 1041 005c 7B19     		adds	r3, r7, r5
 1042 005e 1B78     		ldrb	r3, [r3]
 1043 0060 002B     		cmp	r3, #0
 1044 0062 1FD1     		bne	.L52
 689:Drivers/STM32F0xx_HAL_Driver/Src/stm32f0xx_hal_flash_ex.c ****     {
 690:Drivers/STM32F0xx_HAL_Driver/Src/stm32f0xx_hal_flash_ex.c ****       SET_BIT(FLASH->CR, FLASH_CR_OPTPG);
 1045              		.loc 1 690 7
 1046 0064 154B     		ldr	r3, .L55+8
 1047 0066 1A69     		ldr	r2, [r3, #16]
 1048 0068 144B     		ldr	r3, .L55+8
 1049 006a 1021     		movs	r1, #16
 1050 006c 0A43     		orrs	r2, r1
 1051 006e 1A61     		str	r2, [r3, #16]
 691:Drivers/STM32F0xx_HAL_Driver/Src/stm32f0xx_hal_flash_ex.c **** 
 692:Drivers/STM32F0xx_HAL_Driver/Src/stm32f0xx_hal_flash_ex.c **** #if defined(OB_WRP0_WRP0)
 693:Drivers/STM32F0xx_HAL_Driver/Src/stm32f0xx_hal_flash_ex.c ****       if(WRP0_Data != 0xFFU)
 1052              		.loc 1 693 9
 1053 0070 BB19     		adds	r3, r7, r6
 1054 0072 1B88     		ldrh	r3, [r3]
 1055 0074 FF2B     		cmp	r3, #255
 1056 0076 0FD0     		beq	.L53
 694:Drivers/STM32F0xx_HAL_Driver/Src/stm32f0xx_hal_flash_ex.c ****       {
 695:Drivers/STM32F0xx_HAL_Driver/Src/stm32f0xx_hal_flash_ex.c ****         OB->WRP0 &= WRP0_Data;
 1057              		.loc 1 695 18
 1058 0078 114B     		ldr	r3, .L55+12
 1059 007a 1B89     		ldrh	r3, [r3, #8]
 1060 007c 9BB2     		uxth	r3, r3
 1061 007e 1049     		ldr	r1, .L55+12
 1062 0080 BA19     		adds	r2, r7, r6
 1063 0082 1288     		ldrh	r2, [r2]
 1064 0084 1340     		ands	r3, r2
 1065 0086 9BB2     		uxth	r3, r3
 1066 0088 0B81     		strh	r3, [r1, #8]
 696:Drivers/STM32F0xx_HAL_Driver/Src/stm32f0xx_hal_flash_ex.c ****         
 697:Drivers/STM32F0xx_HAL_Driver/Src/stm32f0xx_hal_flash_ex.c ****         /* Wait for last operation to be completed */
 698:Drivers/STM32F0xx_HAL_Driver/Src/stm32f0xx_hal_flash_ex.c ****         status = FLASH_WaitForLastOperation((uint32_t)FLASH_TIMEOUT_VALUE);
 1067              		.loc 1 698 18
 1068 008a 3C18     		adds	r4, r7, r0
 1069 008c 094B     		ldr	r3, .L55
 1070 008e 1800     		movs	r0, r3
 1071 0090 FFF7FEFF 		bl	FLASH_WaitForLastOperation
 1072 0094 0300     		movs	r3, r0
 1073 0096 2370     		strb	r3, [r4]
 1074              	.L53:
 699:Drivers/STM32F0xx_HAL_Driver/Src/stm32f0xx_hal_flash_ex.c ****       }
 700:Drivers/STM32F0xx_HAL_Driver/Src/stm32f0xx_hal_flash_ex.c **** #endif /* OB_WRP0_WRP0 */
 701:Drivers/STM32F0xx_HAL_Driver/Src/stm32f0xx_hal_flash_ex.c **** 
 702:Drivers/STM32F0xx_HAL_Driver/Src/stm32f0xx_hal_flash_ex.c **** #if defined(OB_WRP1_WRP1)
 703:Drivers/STM32F0xx_HAL_Driver/Src/stm32f0xx_hal_flash_ex.c ****       if((status == HAL_OK) && (WRP1_Data != 0xFFU))
 704:Drivers/STM32F0xx_HAL_Driver/Src/stm32f0xx_hal_flash_ex.c ****       {
ARM GAS  C:\Users\mason\AppData\Local\Temp\ccXzLFKH.s 			page 32


 705:Drivers/STM32F0xx_HAL_Driver/Src/stm32f0xx_hal_flash_ex.c ****         OB->WRP1 &= WRP1_Data;
 706:Drivers/STM32F0xx_HAL_Driver/Src/stm32f0xx_hal_flash_ex.c ****         
 707:Drivers/STM32F0xx_HAL_Driver/Src/stm32f0xx_hal_flash_ex.c ****         /* Wait for last operation to be completed */
 708:Drivers/STM32F0xx_HAL_Driver/Src/stm32f0xx_hal_flash_ex.c ****         status = FLASH_WaitForLastOperation((uint32_t)FLASH_TIMEOUT_VALUE);
 709:Drivers/STM32F0xx_HAL_Driver/Src/stm32f0xx_hal_flash_ex.c ****       }
 710:Drivers/STM32F0xx_HAL_Driver/Src/stm32f0xx_hal_flash_ex.c **** #endif /* OB_WRP1_WRP1 */
 711:Drivers/STM32F0xx_HAL_Driver/Src/stm32f0xx_hal_flash_ex.c **** 
 712:Drivers/STM32F0xx_HAL_Driver/Src/stm32f0xx_hal_flash_ex.c **** #if defined(OB_WRP2_WRP2)
 713:Drivers/STM32F0xx_HAL_Driver/Src/stm32f0xx_hal_flash_ex.c ****       if((status == HAL_OK) && (WRP2_Data != 0xFFU))
 714:Drivers/STM32F0xx_HAL_Driver/Src/stm32f0xx_hal_flash_ex.c ****       {
 715:Drivers/STM32F0xx_HAL_Driver/Src/stm32f0xx_hal_flash_ex.c ****         OB->WRP2 &= WRP2_Data;
 716:Drivers/STM32F0xx_HAL_Driver/Src/stm32f0xx_hal_flash_ex.c ****         
 717:Drivers/STM32F0xx_HAL_Driver/Src/stm32f0xx_hal_flash_ex.c ****         /* Wait for last operation to be completed */
 718:Drivers/STM32F0xx_HAL_Driver/Src/stm32f0xx_hal_flash_ex.c ****         status = FLASH_WaitForLastOperation((uint32_t)FLASH_TIMEOUT_VALUE);
 719:Drivers/STM32F0xx_HAL_Driver/Src/stm32f0xx_hal_flash_ex.c ****       }
 720:Drivers/STM32F0xx_HAL_Driver/Src/stm32f0xx_hal_flash_ex.c **** #endif /* OB_WRP2_WRP2 */
 721:Drivers/STM32F0xx_HAL_Driver/Src/stm32f0xx_hal_flash_ex.c **** 
 722:Drivers/STM32F0xx_HAL_Driver/Src/stm32f0xx_hal_flash_ex.c **** #if defined(OB_WRP3_WRP3)
 723:Drivers/STM32F0xx_HAL_Driver/Src/stm32f0xx_hal_flash_ex.c ****       if((status == HAL_OK) && (WRP3_Data != 0xFFU))
 724:Drivers/STM32F0xx_HAL_Driver/Src/stm32f0xx_hal_flash_ex.c ****       {
 725:Drivers/STM32F0xx_HAL_Driver/Src/stm32f0xx_hal_flash_ex.c ****         OB->WRP3 &= WRP3_Data;
 726:Drivers/STM32F0xx_HAL_Driver/Src/stm32f0xx_hal_flash_ex.c ****         
 727:Drivers/STM32F0xx_HAL_Driver/Src/stm32f0xx_hal_flash_ex.c ****         /* Wait for last operation to be completed */
 728:Drivers/STM32F0xx_HAL_Driver/Src/stm32f0xx_hal_flash_ex.c ****         status = FLASH_WaitForLastOperation((uint32_t)FLASH_TIMEOUT_VALUE);
 729:Drivers/STM32F0xx_HAL_Driver/Src/stm32f0xx_hal_flash_ex.c ****       }
 730:Drivers/STM32F0xx_HAL_Driver/Src/stm32f0xx_hal_flash_ex.c **** #endif /* OB_WRP3_WRP3 */
 731:Drivers/STM32F0xx_HAL_Driver/Src/stm32f0xx_hal_flash_ex.c **** 
 732:Drivers/STM32F0xx_HAL_Driver/Src/stm32f0xx_hal_flash_ex.c ****       /* if the program operation is completed, disable the OPTPG Bit */
 733:Drivers/STM32F0xx_HAL_Driver/Src/stm32f0xx_hal_flash_ex.c ****       CLEAR_BIT(FLASH->CR, FLASH_CR_OPTPG);
 1075              		.loc 1 733 7
 1076 0098 084B     		ldr	r3, .L55+8
 1077 009a 1A69     		ldr	r2, [r3, #16]
 1078 009c 074B     		ldr	r3, .L55+8
 1079 009e 1021     		movs	r1, #16
 1080 00a0 8A43     		bics	r2, r1
 1081 00a2 1A61     		str	r2, [r3, #16]
 1082              	.L52:
 734:Drivers/STM32F0xx_HAL_Driver/Src/stm32f0xx_hal_flash_ex.c ****     }
 735:Drivers/STM32F0xx_HAL_Driver/Src/stm32f0xx_hal_flash_ex.c ****   }
 736:Drivers/STM32F0xx_HAL_Driver/Src/stm32f0xx_hal_flash_ex.c ****   return status;
 1083              		.loc 1 736 10
 1084 00a4 0F23     		movs	r3, #15
 1085 00a6 FB18     		adds	r3, r7, r3
 1086 00a8 1B78     		ldrb	r3, [r3]
 737:Drivers/STM32F0xx_HAL_Driver/Src/stm32f0xx_hal_flash_ex.c **** }
 1087              		.loc 1 737 1
 1088 00aa 1800     		movs	r0, r3
 1089 00ac BD46     		mov	sp, r7
 1090 00ae 05B0     		add	sp, sp, #20
 1091              		@ sp needed
 1092 00b0 F0BD     		pop	{r4, r5, r6, r7, pc}
 1093              	.L56:
 1094 00b2 C046     		.align	2
 1095              	.L55:
 1096 00b4 50C30000 		.word	50000
 1097 00b8 00000000 		.word	pFlash
 1098 00bc 00200240 		.word	1073881088
ARM GAS  C:\Users\mason\AppData\Local\Temp\ccXzLFKH.s 			page 33


 1099 00c0 00F8FF1F 		.word	536868864
 1100              		.cfi_endproc
 1101              	.LFE48:
 1103              		.section	.text.FLASH_OB_RDP_LevelConfig,"ax",%progbits
 1104              		.align	1
 1105              		.syntax unified
 1106              		.code	16
 1107              		.thumb_func
 1109              	FLASH_OB_RDP_LevelConfig:
 1110              	.LFB49:
 738:Drivers/STM32F0xx_HAL_Driver/Src/stm32f0xx_hal_flash_ex.c **** 
 739:Drivers/STM32F0xx_HAL_Driver/Src/stm32f0xx_hal_flash_ex.c **** /**
 740:Drivers/STM32F0xx_HAL_Driver/Src/stm32f0xx_hal_flash_ex.c ****   * @brief  Set the read protection level.
 741:Drivers/STM32F0xx_HAL_Driver/Src/stm32f0xx_hal_flash_ex.c ****   * @param  ReadProtectLevel specifies the read protection level.
 742:Drivers/STM32F0xx_HAL_Driver/Src/stm32f0xx_hal_flash_ex.c ****   *         This parameter can be one of the following values:
 743:Drivers/STM32F0xx_HAL_Driver/Src/stm32f0xx_hal_flash_ex.c ****   *            @arg @ref OB_RDP_LEVEL_0 No protection
 744:Drivers/STM32F0xx_HAL_Driver/Src/stm32f0xx_hal_flash_ex.c ****   *            @arg @ref OB_RDP_LEVEL_1 Read protection of the memory
 745:Drivers/STM32F0xx_HAL_Driver/Src/stm32f0xx_hal_flash_ex.c ****   *            @arg @ref OB_RDP_LEVEL_2 Full chip protection
 746:Drivers/STM32F0xx_HAL_Driver/Src/stm32f0xx_hal_flash_ex.c ****   * @note   Warning: When enabling OB_RDP level 2 it's no more possible to go back to level 1 or 0
 747:Drivers/STM32F0xx_HAL_Driver/Src/stm32f0xx_hal_flash_ex.c ****   * @retval HAL status
 748:Drivers/STM32F0xx_HAL_Driver/Src/stm32f0xx_hal_flash_ex.c ****   */
 749:Drivers/STM32F0xx_HAL_Driver/Src/stm32f0xx_hal_flash_ex.c **** static HAL_StatusTypeDef FLASH_OB_RDP_LevelConfig(uint8_t ReadProtectLevel)
 750:Drivers/STM32F0xx_HAL_Driver/Src/stm32f0xx_hal_flash_ex.c **** {
 1111              		.loc 1 750 1
 1112              		.cfi_startproc
 1113              		@ args = 0, pretend = 0, frame = 16
 1114              		@ frame_needed = 1, uses_anonymous_args = 0
 1115 0000 B0B5     		push	{r4, r5, r7, lr}
 1116              	.LCFI26:
 1117              		.cfi_def_cfa_offset 16
 1118              		.cfi_offset 4, -16
 1119              		.cfi_offset 5, -12
 1120              		.cfi_offset 7, -8
 1121              		.cfi_offset 14, -4
 1122 0002 84B0     		sub	sp, sp, #16
 1123              	.LCFI27:
 1124              		.cfi_def_cfa_offset 32
 1125 0004 00AF     		add	r7, sp, #0
 1126              	.LCFI28:
 1127              		.cfi_def_cfa_register 7
 1128 0006 0200     		movs	r2, r0
 1129 0008 FB1D     		adds	r3, r7, #7
 1130 000a 1A70     		strb	r2, [r3]
 751:Drivers/STM32F0xx_HAL_Driver/Src/stm32f0xx_hal_flash_ex.c ****   HAL_StatusTypeDef status = HAL_OK;
 1131              		.loc 1 751 21
 1132 000c 0F25     		movs	r5, #15
 1133 000e 7B19     		adds	r3, r7, r5
 1134 0010 0022     		movs	r2, #0
 1135 0012 1A70     		strb	r2, [r3]
 752:Drivers/STM32F0xx_HAL_Driver/Src/stm32f0xx_hal_flash_ex.c ****   
 753:Drivers/STM32F0xx_HAL_Driver/Src/stm32f0xx_hal_flash_ex.c ****   /* Check the parameters */
 754:Drivers/STM32F0xx_HAL_Driver/Src/stm32f0xx_hal_flash_ex.c ****   assert_param(IS_OB_RDP_LEVEL(ReadProtectLevel));
 755:Drivers/STM32F0xx_HAL_Driver/Src/stm32f0xx_hal_flash_ex.c ****   
 756:Drivers/STM32F0xx_HAL_Driver/Src/stm32f0xx_hal_flash_ex.c ****   /* Wait for last operation to be completed */
 757:Drivers/STM32F0xx_HAL_Driver/Src/stm32f0xx_hal_flash_ex.c ****   status = FLASH_WaitForLastOperation((uint32_t)FLASH_TIMEOUT_VALUE);
 1136              		.loc 1 757 12
 1137 0014 7C19     		adds	r4, r7, r5
ARM GAS  C:\Users\mason\AppData\Local\Temp\ccXzLFKH.s 			page 34


 1138 0016 264B     		ldr	r3, .L60
 1139 0018 1800     		movs	r0, r3
 1140 001a FFF7FEFF 		bl	FLASH_WaitForLastOperation
 1141 001e 0300     		movs	r3, r0
 1142 0020 2370     		strb	r3, [r4]
 758:Drivers/STM32F0xx_HAL_Driver/Src/stm32f0xx_hal_flash_ex.c ****   
 759:Drivers/STM32F0xx_HAL_Driver/Src/stm32f0xx_hal_flash_ex.c ****   if(status == HAL_OK)
 1143              		.loc 1 759 5
 1144 0022 2800     		movs	r0, r5
 1145 0024 3B18     		adds	r3, r7, r0
 1146 0026 1B78     		ldrb	r3, [r3]
 1147 0028 002B     		cmp	r3, #0
 1148 002a 39D1     		bne	.L58
 760:Drivers/STM32F0xx_HAL_Driver/Src/stm32f0xx_hal_flash_ex.c ****   { 
 761:Drivers/STM32F0xx_HAL_Driver/Src/stm32f0xx_hal_flash_ex.c ****     /* Clean the error context */
 762:Drivers/STM32F0xx_HAL_Driver/Src/stm32f0xx_hal_flash_ex.c ****     pFlash.ErrorCode = HAL_FLASH_ERROR_NONE;
 1149              		.loc 1 762 22
 1150 002c 214B     		ldr	r3, .L60+4
 1151 002e 0022     		movs	r2, #0
 1152 0030 DA61     		str	r2, [r3, #28]
 763:Drivers/STM32F0xx_HAL_Driver/Src/stm32f0xx_hal_flash_ex.c ****     
 764:Drivers/STM32F0xx_HAL_Driver/Src/stm32f0xx_hal_flash_ex.c ****     /* If the previous operation is completed, proceed to erase the option bytes */
 765:Drivers/STM32F0xx_HAL_Driver/Src/stm32f0xx_hal_flash_ex.c ****     SET_BIT(FLASH->CR, FLASH_CR_OPTER);
 1153              		.loc 1 765 5
 1154 0032 214B     		ldr	r3, .L60+8
 1155 0034 1A69     		ldr	r2, [r3, #16]
 1156 0036 204B     		ldr	r3, .L60+8
 1157 0038 2021     		movs	r1, #32
 1158 003a 0A43     		orrs	r2, r1
 1159 003c 1A61     		str	r2, [r3, #16]
 766:Drivers/STM32F0xx_HAL_Driver/Src/stm32f0xx_hal_flash_ex.c ****     SET_BIT(FLASH->CR, FLASH_CR_STRT);
 1160              		.loc 1 766 5
 1161 003e 1E4B     		ldr	r3, .L60+8
 1162 0040 1A69     		ldr	r2, [r3, #16]
 1163 0042 1D4B     		ldr	r3, .L60+8
 1164 0044 4021     		movs	r1, #64
 1165 0046 0A43     		orrs	r2, r1
 1166 0048 1A61     		str	r2, [r3, #16]
 767:Drivers/STM32F0xx_HAL_Driver/Src/stm32f0xx_hal_flash_ex.c **** 
 768:Drivers/STM32F0xx_HAL_Driver/Src/stm32f0xx_hal_flash_ex.c ****     /* Wait for last operation to be completed */
 769:Drivers/STM32F0xx_HAL_Driver/Src/stm32f0xx_hal_flash_ex.c ****     status = FLASH_WaitForLastOperation((uint32_t)FLASH_TIMEOUT_VALUE);
 1167              		.loc 1 769 14
 1168 004a 0500     		movs	r5, r0
 1169 004c 3C18     		adds	r4, r7, r0
 1170 004e 184B     		ldr	r3, .L60
 1171 0050 1800     		movs	r0, r3
 1172 0052 FFF7FEFF 		bl	FLASH_WaitForLastOperation
 1173 0056 0300     		movs	r3, r0
 1174 0058 2370     		strb	r3, [r4]
 770:Drivers/STM32F0xx_HAL_Driver/Src/stm32f0xx_hal_flash_ex.c **** 
 771:Drivers/STM32F0xx_HAL_Driver/Src/stm32f0xx_hal_flash_ex.c ****     /* If the erase operation is completed, disable the OPTER Bit */
 772:Drivers/STM32F0xx_HAL_Driver/Src/stm32f0xx_hal_flash_ex.c ****     CLEAR_BIT(FLASH->CR, FLASH_CR_OPTER);
 1175              		.loc 1 772 5
 1176 005a 174B     		ldr	r3, .L60+8
 1177 005c 1A69     		ldr	r2, [r3, #16]
 1178 005e 164B     		ldr	r3, .L60+8
 1179 0060 2021     		movs	r1, #32
ARM GAS  C:\Users\mason\AppData\Local\Temp\ccXzLFKH.s 			page 35


 1180 0062 8A43     		bics	r2, r1
 1181 0064 1A61     		str	r2, [r3, #16]
 773:Drivers/STM32F0xx_HAL_Driver/Src/stm32f0xx_hal_flash_ex.c **** 
 774:Drivers/STM32F0xx_HAL_Driver/Src/stm32f0xx_hal_flash_ex.c ****     if(status == HAL_OK)
 1182              		.loc 1 774 7
 1183 0066 2800     		movs	r0, r5
 1184 0068 3B18     		adds	r3, r7, r0
 1185 006a 1B78     		ldrb	r3, [r3]
 1186 006c 002B     		cmp	r3, #0
 1187 006e 17D1     		bne	.L58
 775:Drivers/STM32F0xx_HAL_Driver/Src/stm32f0xx_hal_flash_ex.c ****     {
 776:Drivers/STM32F0xx_HAL_Driver/Src/stm32f0xx_hal_flash_ex.c ****       /* Enable the Option Bytes Programming operation */
 777:Drivers/STM32F0xx_HAL_Driver/Src/stm32f0xx_hal_flash_ex.c ****       SET_BIT(FLASH->CR, FLASH_CR_OPTPG);
 1188              		.loc 1 777 7
 1189 0070 114B     		ldr	r3, .L60+8
 1190 0072 1A69     		ldr	r2, [r3, #16]
 1191 0074 104B     		ldr	r3, .L60+8
 1192 0076 1021     		movs	r1, #16
 1193 0078 0A43     		orrs	r2, r1
 1194 007a 1A61     		str	r2, [r3, #16]
 778:Drivers/STM32F0xx_HAL_Driver/Src/stm32f0xx_hal_flash_ex.c ****       
 779:Drivers/STM32F0xx_HAL_Driver/Src/stm32f0xx_hal_flash_ex.c ****       WRITE_REG(OB->RDP, ReadProtectLevel);
 1195              		.loc 1 779 7
 1196 007c 0F4A     		ldr	r2, .L60+12
 1197 007e FB1D     		adds	r3, r7, #7
 1198 0080 1B78     		ldrb	r3, [r3]
 1199 0082 9BB2     		uxth	r3, r3
 1200 0084 1380     		strh	r3, [r2]
 780:Drivers/STM32F0xx_HAL_Driver/Src/stm32f0xx_hal_flash_ex.c ****       
 781:Drivers/STM32F0xx_HAL_Driver/Src/stm32f0xx_hal_flash_ex.c ****       /* Wait for last operation to be completed */
 782:Drivers/STM32F0xx_HAL_Driver/Src/stm32f0xx_hal_flash_ex.c ****       status = FLASH_WaitForLastOperation((uint32_t)FLASH_TIMEOUT_VALUE); 
 1201              		.loc 1 782 16
 1202 0086 3C18     		adds	r4, r7, r0
 1203 0088 094B     		ldr	r3, .L60
 1204 008a 1800     		movs	r0, r3
 1205 008c FFF7FEFF 		bl	FLASH_WaitForLastOperation
 1206 0090 0300     		movs	r3, r0
 1207 0092 2370     		strb	r3, [r4]
 783:Drivers/STM32F0xx_HAL_Driver/Src/stm32f0xx_hal_flash_ex.c ****       
 784:Drivers/STM32F0xx_HAL_Driver/Src/stm32f0xx_hal_flash_ex.c ****       /* if the program operation is completed, disable the OPTPG Bit */
 785:Drivers/STM32F0xx_HAL_Driver/Src/stm32f0xx_hal_flash_ex.c ****       CLEAR_BIT(FLASH->CR, FLASH_CR_OPTPG);
 1208              		.loc 1 785 7
 1209 0094 084B     		ldr	r3, .L60+8
 1210 0096 1A69     		ldr	r2, [r3, #16]
 1211 0098 074B     		ldr	r3, .L60+8
 1212 009a 1021     		movs	r1, #16
 1213 009c 8A43     		bics	r2, r1
 1214 009e 1A61     		str	r2, [r3, #16]
 1215              	.L58:
 786:Drivers/STM32F0xx_HAL_Driver/Src/stm32f0xx_hal_flash_ex.c ****     }
 787:Drivers/STM32F0xx_HAL_Driver/Src/stm32f0xx_hal_flash_ex.c ****   }
 788:Drivers/STM32F0xx_HAL_Driver/Src/stm32f0xx_hal_flash_ex.c ****   
 789:Drivers/STM32F0xx_HAL_Driver/Src/stm32f0xx_hal_flash_ex.c ****   return status;
 1216              		.loc 1 789 10
 1217 00a0 0F23     		movs	r3, #15
 1218 00a2 FB18     		adds	r3, r7, r3
 1219 00a4 1B78     		ldrb	r3, [r3]
ARM GAS  C:\Users\mason\AppData\Local\Temp\ccXzLFKH.s 			page 36


 790:Drivers/STM32F0xx_HAL_Driver/Src/stm32f0xx_hal_flash_ex.c **** }
 1220              		.loc 1 790 1
 1221 00a6 1800     		movs	r0, r3
 1222 00a8 BD46     		mov	sp, r7
 1223 00aa 04B0     		add	sp, sp, #16
 1224              		@ sp needed
 1225 00ac B0BD     		pop	{r4, r5, r7, pc}
 1226              	.L61:
 1227 00ae C046     		.align	2
 1228              	.L60:
 1229 00b0 50C30000 		.word	50000
 1230 00b4 00000000 		.word	pFlash
 1231 00b8 00200240 		.word	1073881088
 1232 00bc 00F8FF1F 		.word	536868864
 1233              		.cfi_endproc
 1234              	.LFE49:
 1236              		.section	.text.FLASH_OB_UserConfig,"ax",%progbits
 1237              		.align	1
 1238              		.syntax unified
 1239              		.code	16
 1240              		.thumb_func
 1242              	FLASH_OB_UserConfig:
 1243              	.LFB50:
 791:Drivers/STM32F0xx_HAL_Driver/Src/stm32f0xx_hal_flash_ex.c **** 
 792:Drivers/STM32F0xx_HAL_Driver/Src/stm32f0xx_hal_flash_ex.c **** /**
 793:Drivers/STM32F0xx_HAL_Driver/Src/stm32f0xx_hal_flash_ex.c ****   * @brief  Program the FLASH User Option Byte.    
 794:Drivers/STM32F0xx_HAL_Driver/Src/stm32f0xx_hal_flash_ex.c ****   * @note   Programming of the OB should be performed only after an erase (otherwise PGERR occurs)
 795:Drivers/STM32F0xx_HAL_Driver/Src/stm32f0xx_hal_flash_ex.c ****   * @param  UserConfig The FLASH User Option Bytes values: IWDG_SW(Bit0), RST_STOP(Bit1), RST_STDBY
 796:Drivers/STM32F0xx_HAL_Driver/Src/stm32f0xx_hal_flash_ex.c ****   *         VDDA_Analog_Monitoring(Bit5) and SRAM_Parity_Enable(Bit6). 
 797:Drivers/STM32F0xx_HAL_Driver/Src/stm32f0xx_hal_flash_ex.c ****   *         For few devices, following option bytes are available: nBOOT0(Bit3) & BOOT_SEL(Bit7).
 798:Drivers/STM32F0xx_HAL_Driver/Src/stm32f0xx_hal_flash_ex.c ****   * @retval HAL status
 799:Drivers/STM32F0xx_HAL_Driver/Src/stm32f0xx_hal_flash_ex.c ****   */
 800:Drivers/STM32F0xx_HAL_Driver/Src/stm32f0xx_hal_flash_ex.c **** static HAL_StatusTypeDef FLASH_OB_UserConfig(uint8_t UserConfig)
 801:Drivers/STM32F0xx_HAL_Driver/Src/stm32f0xx_hal_flash_ex.c **** {
 1244              		.loc 1 801 1
 1245              		.cfi_startproc
 1246              		@ args = 0, pretend = 0, frame = 16
 1247              		@ frame_needed = 1, uses_anonymous_args = 0
 1248 0000 B0B5     		push	{r4, r5, r7, lr}
 1249              	.LCFI29:
 1250              		.cfi_def_cfa_offset 16
 1251              		.cfi_offset 4, -16
 1252              		.cfi_offset 5, -12
 1253              		.cfi_offset 7, -8
 1254              		.cfi_offset 14, -4
 1255 0002 84B0     		sub	sp, sp, #16
 1256              	.LCFI30:
 1257              		.cfi_def_cfa_offset 32
 1258 0004 00AF     		add	r7, sp, #0
 1259              	.LCFI31:
 1260              		.cfi_def_cfa_register 7
 1261 0006 0200     		movs	r2, r0
 1262 0008 FB1D     		adds	r3, r7, #7
 1263 000a 1A70     		strb	r2, [r3]
 802:Drivers/STM32F0xx_HAL_Driver/Src/stm32f0xx_hal_flash_ex.c ****   HAL_StatusTypeDef status = HAL_OK;
 1264              		.loc 1 802 21
 1265 000c 0F25     		movs	r5, #15
ARM GAS  C:\Users\mason\AppData\Local\Temp\ccXzLFKH.s 			page 37


 1266 000e 7B19     		adds	r3, r7, r5
 1267 0010 0022     		movs	r2, #0
 1268 0012 1A70     		strb	r2, [r3]
 803:Drivers/STM32F0xx_HAL_Driver/Src/stm32f0xx_hal_flash_ex.c **** 
 804:Drivers/STM32F0xx_HAL_Driver/Src/stm32f0xx_hal_flash_ex.c ****   /* Check the parameters */
 805:Drivers/STM32F0xx_HAL_Driver/Src/stm32f0xx_hal_flash_ex.c ****   assert_param(IS_OB_IWDG_SOURCE((UserConfig&OB_IWDG_SW)));
 806:Drivers/STM32F0xx_HAL_Driver/Src/stm32f0xx_hal_flash_ex.c ****   assert_param(IS_OB_STOP_SOURCE((UserConfig&OB_STOP_NO_RST)));
 807:Drivers/STM32F0xx_HAL_Driver/Src/stm32f0xx_hal_flash_ex.c ****   assert_param(IS_OB_STDBY_SOURCE((UserConfig&OB_STDBY_NO_RST)));
 808:Drivers/STM32F0xx_HAL_Driver/Src/stm32f0xx_hal_flash_ex.c ****   assert_param(IS_OB_BOOT1((UserConfig&OB_BOOT1_SET)));
 809:Drivers/STM32F0xx_HAL_Driver/Src/stm32f0xx_hal_flash_ex.c ****   assert_param(IS_OB_VDDA_ANALOG((UserConfig&OB_VDDA_ANALOG_ON)));
 810:Drivers/STM32F0xx_HAL_Driver/Src/stm32f0xx_hal_flash_ex.c ****   assert_param(IS_OB_SRAM_PARITY((UserConfig&OB_SRAM_PARITY_RESET)));
 811:Drivers/STM32F0xx_HAL_Driver/Src/stm32f0xx_hal_flash_ex.c **** #if defined(FLASH_OBR_BOOT_SEL)
 812:Drivers/STM32F0xx_HAL_Driver/Src/stm32f0xx_hal_flash_ex.c ****   assert_param(IS_OB_BOOT_SEL((UserConfig&OB_BOOT_SEL_SET)));
 813:Drivers/STM32F0xx_HAL_Driver/Src/stm32f0xx_hal_flash_ex.c ****   assert_param(IS_OB_BOOT0((UserConfig&OB_BOOT0_SET)));
 814:Drivers/STM32F0xx_HAL_Driver/Src/stm32f0xx_hal_flash_ex.c **** #endif /* FLASH_OBR_BOOT_SEL */
 815:Drivers/STM32F0xx_HAL_Driver/Src/stm32f0xx_hal_flash_ex.c **** 
 816:Drivers/STM32F0xx_HAL_Driver/Src/stm32f0xx_hal_flash_ex.c ****   /* Wait for last operation to be completed */
 817:Drivers/STM32F0xx_HAL_Driver/Src/stm32f0xx_hal_flash_ex.c ****   status = FLASH_WaitForLastOperation((uint32_t)FLASH_TIMEOUT_VALUE);
 1269              		.loc 1 817 12
 1270 0014 7C19     		adds	r4, r7, r5
 1271 0016 184B     		ldr	r3, .L65
 1272 0018 1800     		movs	r0, r3
 1273 001a FFF7FEFF 		bl	FLASH_WaitForLastOperation
 1274 001e 0300     		movs	r3, r0
 1275 0020 2370     		strb	r3, [r4]
 818:Drivers/STM32F0xx_HAL_Driver/Src/stm32f0xx_hal_flash_ex.c ****   
 819:Drivers/STM32F0xx_HAL_Driver/Src/stm32f0xx_hal_flash_ex.c ****   if(status == HAL_OK)
 1276              		.loc 1 819 5
 1277 0022 2800     		movs	r0, r5
 1278 0024 3B18     		adds	r3, r7, r0
 1279 0026 1B78     		ldrb	r3, [r3]
 1280 0028 002B     		cmp	r3, #0
 1281 002a 1ED1     		bne	.L63
 820:Drivers/STM32F0xx_HAL_Driver/Src/stm32f0xx_hal_flash_ex.c ****   {     
 821:Drivers/STM32F0xx_HAL_Driver/Src/stm32f0xx_hal_flash_ex.c ****     /* Clean the error context */
 822:Drivers/STM32F0xx_HAL_Driver/Src/stm32f0xx_hal_flash_ex.c ****     pFlash.ErrorCode = HAL_FLASH_ERROR_NONE;
 1282              		.loc 1 822 22
 1283 002c 134B     		ldr	r3, .L65+4
 1284 002e 0022     		movs	r2, #0
 1285 0030 DA61     		str	r2, [r3, #28]
 823:Drivers/STM32F0xx_HAL_Driver/Src/stm32f0xx_hal_flash_ex.c **** 
 824:Drivers/STM32F0xx_HAL_Driver/Src/stm32f0xx_hal_flash_ex.c ****     /* Enable the Option Bytes Programming operation */
 825:Drivers/STM32F0xx_HAL_Driver/Src/stm32f0xx_hal_flash_ex.c ****     SET_BIT(FLASH->CR, FLASH_CR_OPTPG); 
 1286              		.loc 1 825 5
 1287 0032 134B     		ldr	r3, .L65+8
 1288 0034 1A69     		ldr	r2, [r3, #16]
 1289 0036 124B     		ldr	r3, .L65+8
 1290 0038 1021     		movs	r1, #16
 1291 003a 0A43     		orrs	r2, r1
 1292 003c 1A61     		str	r2, [r3, #16]
 826:Drivers/STM32F0xx_HAL_Driver/Src/stm32f0xx_hal_flash_ex.c ****  
 827:Drivers/STM32F0xx_HAL_Driver/Src/stm32f0xx_hal_flash_ex.c **** #if defined(FLASH_OBR_BOOT_SEL)
 828:Drivers/STM32F0xx_HAL_Driver/Src/stm32f0xx_hal_flash_ex.c ****     OB->USER = UserConfig;
 829:Drivers/STM32F0xx_HAL_Driver/Src/stm32f0xx_hal_flash_ex.c **** #else
 830:Drivers/STM32F0xx_HAL_Driver/Src/stm32f0xx_hal_flash_ex.c ****     OB->USER = (UserConfig | 0x88U);
 1293              		.loc 1 830 14
 1294 003e FB1D     		adds	r3, r7, #7
ARM GAS  C:\Users\mason\AppData\Local\Temp\ccXzLFKH.s 			page 38


 1295 0040 1B78     		ldrb	r3, [r3]
 1296 0042 7822     		movs	r2, #120
 1297 0044 5242     		rsbs	r2, r2, #0
 1298 0046 1343     		orrs	r3, r2
 1299 0048 DAB2     		uxtb	r2, r3
 1300              		.loc 1 830 7
 1301 004a 0E4B     		ldr	r3, .L65+12
 1302              		.loc 1 830 14
 1303 004c 92B2     		uxth	r2, r2
 1304 004e 5A80     		strh	r2, [r3, #2]
 831:Drivers/STM32F0xx_HAL_Driver/Src/stm32f0xx_hal_flash_ex.c **** #endif
 832:Drivers/STM32F0xx_HAL_Driver/Src/stm32f0xx_hal_flash_ex.c **** 
 833:Drivers/STM32F0xx_HAL_Driver/Src/stm32f0xx_hal_flash_ex.c ****     /* Wait for last operation to be completed */
 834:Drivers/STM32F0xx_HAL_Driver/Src/stm32f0xx_hal_flash_ex.c ****     status = FLASH_WaitForLastOperation((uint32_t)FLASH_TIMEOUT_VALUE);
 1305              		.loc 1 834 14
 1306 0050 3C18     		adds	r4, r7, r0
 1307 0052 094B     		ldr	r3, .L65
 1308 0054 1800     		movs	r0, r3
 1309 0056 FFF7FEFF 		bl	FLASH_WaitForLastOperation
 1310 005a 0300     		movs	r3, r0
 1311 005c 2370     		strb	r3, [r4]
 835:Drivers/STM32F0xx_HAL_Driver/Src/stm32f0xx_hal_flash_ex.c **** 
 836:Drivers/STM32F0xx_HAL_Driver/Src/stm32f0xx_hal_flash_ex.c ****     /* if the program operation is completed, disable the OPTPG Bit */
 837:Drivers/STM32F0xx_HAL_Driver/Src/stm32f0xx_hal_flash_ex.c ****     CLEAR_BIT(FLASH->CR, FLASH_CR_OPTPG);
 1312              		.loc 1 837 5
 1313 005e 084B     		ldr	r3, .L65+8
 1314 0060 1A69     		ldr	r2, [r3, #16]
 1315 0062 074B     		ldr	r3, .L65+8
 1316 0064 1021     		movs	r1, #16
 1317 0066 8A43     		bics	r2, r1
 1318 0068 1A61     		str	r2, [r3, #16]
 1319              	.L63:
 838:Drivers/STM32F0xx_HAL_Driver/Src/stm32f0xx_hal_flash_ex.c ****   }
 839:Drivers/STM32F0xx_HAL_Driver/Src/stm32f0xx_hal_flash_ex.c ****   
 840:Drivers/STM32F0xx_HAL_Driver/Src/stm32f0xx_hal_flash_ex.c ****   return status; 
 1320              		.loc 1 840 10
 1321 006a 0F23     		movs	r3, #15
 1322 006c FB18     		adds	r3, r7, r3
 1323 006e 1B78     		ldrb	r3, [r3]
 841:Drivers/STM32F0xx_HAL_Driver/Src/stm32f0xx_hal_flash_ex.c **** }
 1324              		.loc 1 841 1
 1325 0070 1800     		movs	r0, r3
 1326 0072 BD46     		mov	sp, r7
 1327 0074 04B0     		add	sp, sp, #16
 1328              		@ sp needed
 1329 0076 B0BD     		pop	{r4, r5, r7, pc}
 1330              	.L66:
 1331              		.align	2
 1332              	.L65:
 1333 0078 50C30000 		.word	50000
 1334 007c 00000000 		.word	pFlash
 1335 0080 00200240 		.word	1073881088
 1336 0084 00F8FF1F 		.word	536868864
 1337              		.cfi_endproc
 1338              	.LFE50:
 1340              		.section	.text.FLASH_OB_ProgramData,"ax",%progbits
 1341              		.align	1
ARM GAS  C:\Users\mason\AppData\Local\Temp\ccXzLFKH.s 			page 39


 1342              		.syntax unified
 1343              		.code	16
 1344              		.thumb_func
 1346              	FLASH_OB_ProgramData:
 1347              	.LFB51:
 842:Drivers/STM32F0xx_HAL_Driver/Src/stm32f0xx_hal_flash_ex.c **** 
 843:Drivers/STM32F0xx_HAL_Driver/Src/stm32f0xx_hal_flash_ex.c **** /**
 844:Drivers/STM32F0xx_HAL_Driver/Src/stm32f0xx_hal_flash_ex.c ****   * @brief  Programs a half word at a specified Option Byte Data address.
 845:Drivers/STM32F0xx_HAL_Driver/Src/stm32f0xx_hal_flash_ex.c ****   * @note   The function @ref HAL_FLASH_Unlock() should be called before to unlock the FLASH interf
 846:Drivers/STM32F0xx_HAL_Driver/Src/stm32f0xx_hal_flash_ex.c ****   *         The function @ref HAL_FLASH_OB_Unlock() should be called before to unlock the options b
 847:Drivers/STM32F0xx_HAL_Driver/Src/stm32f0xx_hal_flash_ex.c ****   *         The function @ref HAL_FLASH_OB_Launch() should be called after to force the reload of t
 848:Drivers/STM32F0xx_HAL_Driver/Src/stm32f0xx_hal_flash_ex.c ****   *         (system reset will occur)
 849:Drivers/STM32F0xx_HAL_Driver/Src/stm32f0xx_hal_flash_ex.c ****   *         Programming of the OB should be performed only after an erase (otherwise PGERR occurs)
 850:Drivers/STM32F0xx_HAL_Driver/Src/stm32f0xx_hal_flash_ex.c ****   * @param  Address specifies the address to be programmed.
 851:Drivers/STM32F0xx_HAL_Driver/Src/stm32f0xx_hal_flash_ex.c ****   *         This parameter can be 0x1FFFF804 or 0x1FFFF806. 
 852:Drivers/STM32F0xx_HAL_Driver/Src/stm32f0xx_hal_flash_ex.c ****   * @param  Data specifies the data to be programmed.
 853:Drivers/STM32F0xx_HAL_Driver/Src/stm32f0xx_hal_flash_ex.c ****   * @retval HAL status
 854:Drivers/STM32F0xx_HAL_Driver/Src/stm32f0xx_hal_flash_ex.c ****   */
 855:Drivers/STM32F0xx_HAL_Driver/Src/stm32f0xx_hal_flash_ex.c **** static HAL_StatusTypeDef FLASH_OB_ProgramData(uint32_t Address, uint8_t Data)
 856:Drivers/STM32F0xx_HAL_Driver/Src/stm32f0xx_hal_flash_ex.c **** {
 1348              		.loc 1 856 1
 1349              		.cfi_startproc
 1350              		@ args = 0, pretend = 0, frame = 16
 1351              		@ frame_needed = 1, uses_anonymous_args = 0
 1352 0000 B0B5     		push	{r4, r5, r7, lr}
 1353              	.LCFI32:
 1354              		.cfi_def_cfa_offset 16
 1355              		.cfi_offset 4, -16
 1356              		.cfi_offset 5, -12
 1357              		.cfi_offset 7, -8
 1358              		.cfi_offset 14, -4
 1359 0002 84B0     		sub	sp, sp, #16
 1360              	.LCFI33:
 1361              		.cfi_def_cfa_offset 32
 1362 0004 00AF     		add	r7, sp, #0
 1363              	.LCFI34:
 1364              		.cfi_def_cfa_register 7
 1365 0006 7860     		str	r0, [r7, #4]
 1366 0008 0A00     		movs	r2, r1
 1367 000a FB1C     		adds	r3, r7, #3
 1368 000c 1A70     		strb	r2, [r3]
 857:Drivers/STM32F0xx_HAL_Driver/Src/stm32f0xx_hal_flash_ex.c ****   HAL_StatusTypeDef status = HAL_ERROR;
 1369              		.loc 1 857 21
 1370 000e 0F25     		movs	r5, #15
 1371 0010 7B19     		adds	r3, r7, r5
 1372 0012 0122     		movs	r2, #1
 1373 0014 1A70     		strb	r2, [r3]
 858:Drivers/STM32F0xx_HAL_Driver/Src/stm32f0xx_hal_flash_ex.c ****   
 859:Drivers/STM32F0xx_HAL_Driver/Src/stm32f0xx_hal_flash_ex.c ****   /* Check the parameters */
 860:Drivers/STM32F0xx_HAL_Driver/Src/stm32f0xx_hal_flash_ex.c ****   assert_param(IS_OB_DATA_ADDRESS(Address));
 861:Drivers/STM32F0xx_HAL_Driver/Src/stm32f0xx_hal_flash_ex.c ****   
 862:Drivers/STM32F0xx_HAL_Driver/Src/stm32f0xx_hal_flash_ex.c ****   /* Wait for last operation to be completed */
 863:Drivers/STM32F0xx_HAL_Driver/Src/stm32f0xx_hal_flash_ex.c ****   status = FLASH_WaitForLastOperation((uint32_t)FLASH_TIMEOUT_VALUE);
 1374              		.loc 1 863 12
 1375 0016 7C19     		adds	r4, r7, r5
 1376 0018 164B     		ldr	r3, .L70
 1377 001a 1800     		movs	r0, r3
ARM GAS  C:\Users\mason\AppData\Local\Temp\ccXzLFKH.s 			page 40


 1378 001c FFF7FEFF 		bl	FLASH_WaitForLastOperation
 1379 0020 0300     		movs	r3, r0
 1380 0022 2370     		strb	r3, [r4]
 864:Drivers/STM32F0xx_HAL_Driver/Src/stm32f0xx_hal_flash_ex.c ****   
 865:Drivers/STM32F0xx_HAL_Driver/Src/stm32f0xx_hal_flash_ex.c ****   if(status == HAL_OK)
 1381              		.loc 1 865 5
 1382 0024 2800     		movs	r0, r5
 1383 0026 3B18     		adds	r3, r7, r0
 1384 0028 1B78     		ldrb	r3, [r3]
 1385 002a 002B     		cmp	r3, #0
 1386 002c 1AD1     		bne	.L68
 866:Drivers/STM32F0xx_HAL_Driver/Src/stm32f0xx_hal_flash_ex.c ****   {
 867:Drivers/STM32F0xx_HAL_Driver/Src/stm32f0xx_hal_flash_ex.c ****     /* Clean the error context */
 868:Drivers/STM32F0xx_HAL_Driver/Src/stm32f0xx_hal_flash_ex.c ****     pFlash.ErrorCode = HAL_FLASH_ERROR_NONE;
 1387              		.loc 1 868 22
 1388 002e 124B     		ldr	r3, .L70+4
 1389 0030 0022     		movs	r2, #0
 1390 0032 DA61     		str	r2, [r3, #28]
 869:Drivers/STM32F0xx_HAL_Driver/Src/stm32f0xx_hal_flash_ex.c **** 
 870:Drivers/STM32F0xx_HAL_Driver/Src/stm32f0xx_hal_flash_ex.c ****     /* Enables the Option Bytes Programming operation */
 871:Drivers/STM32F0xx_HAL_Driver/Src/stm32f0xx_hal_flash_ex.c ****     SET_BIT(FLASH->CR, FLASH_CR_OPTPG); 
 1391              		.loc 1 871 5
 1392 0034 114B     		ldr	r3, .L70+8
 1393 0036 1A69     		ldr	r2, [r3, #16]
 1394 0038 104B     		ldr	r3, .L70+8
 1395 003a 1021     		movs	r1, #16
 1396 003c 0A43     		orrs	r2, r1
 1397 003e 1A61     		str	r2, [r3, #16]
 872:Drivers/STM32F0xx_HAL_Driver/Src/stm32f0xx_hal_flash_ex.c ****     *(__IO uint16_t*)Address = Data;
 1398              		.loc 1 872 6
 1399 0040 7B68     		ldr	r3, [r7, #4]
 1400              		.loc 1 872 30
 1401 0042 FA1C     		adds	r2, r7, #3
 1402 0044 1278     		ldrb	r2, [r2]
 1403 0046 92B2     		uxth	r2, r2
 1404 0048 1A80     		strh	r2, [r3]
 873:Drivers/STM32F0xx_HAL_Driver/Src/stm32f0xx_hal_flash_ex.c ****     
 874:Drivers/STM32F0xx_HAL_Driver/Src/stm32f0xx_hal_flash_ex.c ****     /* Wait for last operation to be completed */
 875:Drivers/STM32F0xx_HAL_Driver/Src/stm32f0xx_hal_flash_ex.c ****     status = FLASH_WaitForLastOperation((uint32_t)FLASH_TIMEOUT_VALUE);
 1405              		.loc 1 875 14
 1406 004a 3C18     		adds	r4, r7, r0
 1407 004c 094B     		ldr	r3, .L70
 1408 004e 1800     		movs	r0, r3
 1409 0050 FFF7FEFF 		bl	FLASH_WaitForLastOperation
 1410 0054 0300     		movs	r3, r0
 1411 0056 2370     		strb	r3, [r4]
 876:Drivers/STM32F0xx_HAL_Driver/Src/stm32f0xx_hal_flash_ex.c ****     
 877:Drivers/STM32F0xx_HAL_Driver/Src/stm32f0xx_hal_flash_ex.c ****     /* If the program operation is completed, disable the OPTPG Bit */
 878:Drivers/STM32F0xx_HAL_Driver/Src/stm32f0xx_hal_flash_ex.c ****     CLEAR_BIT(FLASH->CR, FLASH_CR_OPTPG);
 1412              		.loc 1 878 5
 1413 0058 084B     		ldr	r3, .L70+8
 1414 005a 1A69     		ldr	r2, [r3, #16]
 1415 005c 074B     		ldr	r3, .L70+8
 1416 005e 1021     		movs	r1, #16
 1417 0060 8A43     		bics	r2, r1
 1418 0062 1A61     		str	r2, [r3, #16]
 1419              	.L68:
ARM GAS  C:\Users\mason\AppData\Local\Temp\ccXzLFKH.s 			page 41


 879:Drivers/STM32F0xx_HAL_Driver/Src/stm32f0xx_hal_flash_ex.c ****   }
 880:Drivers/STM32F0xx_HAL_Driver/Src/stm32f0xx_hal_flash_ex.c ****   /* Return the Option Byte Data Program Status */
 881:Drivers/STM32F0xx_HAL_Driver/Src/stm32f0xx_hal_flash_ex.c ****   return status;
 1420              		.loc 1 881 10
 1421 0064 0F23     		movs	r3, #15
 1422 0066 FB18     		adds	r3, r7, r3
 1423 0068 1B78     		ldrb	r3, [r3]
 882:Drivers/STM32F0xx_HAL_Driver/Src/stm32f0xx_hal_flash_ex.c **** }
 1424              		.loc 1 882 1
 1425 006a 1800     		movs	r0, r3
 1426 006c BD46     		mov	sp, r7
 1427 006e 04B0     		add	sp, sp, #16
 1428              		@ sp needed
 1429 0070 B0BD     		pop	{r4, r5, r7, pc}
 1430              	.L71:
 1431 0072 C046     		.align	2
 1432              	.L70:
 1433 0074 50C30000 		.word	50000
 1434 0078 00000000 		.word	pFlash
 1435 007c 00200240 		.word	1073881088
 1436              		.cfi_endproc
 1437              	.LFE51:
 1439              		.section	.text.FLASH_OB_GetWRP,"ax",%progbits
 1440              		.align	1
 1441              		.syntax unified
 1442              		.code	16
 1443              		.thumb_func
 1445              	FLASH_OB_GetWRP:
 1446              	.LFB52:
 883:Drivers/STM32F0xx_HAL_Driver/Src/stm32f0xx_hal_flash_ex.c **** 
 884:Drivers/STM32F0xx_HAL_Driver/Src/stm32f0xx_hal_flash_ex.c **** /**
 885:Drivers/STM32F0xx_HAL_Driver/Src/stm32f0xx_hal_flash_ex.c ****   * @brief  Return the FLASH Write Protection Option Bytes value.
 886:Drivers/STM32F0xx_HAL_Driver/Src/stm32f0xx_hal_flash_ex.c ****   * @retval The FLASH Write Protection Option Bytes value
 887:Drivers/STM32F0xx_HAL_Driver/Src/stm32f0xx_hal_flash_ex.c ****   */
 888:Drivers/STM32F0xx_HAL_Driver/Src/stm32f0xx_hal_flash_ex.c **** static uint32_t FLASH_OB_GetWRP(void)
 889:Drivers/STM32F0xx_HAL_Driver/Src/stm32f0xx_hal_flash_ex.c **** {
 1447              		.loc 1 889 1
 1448              		.cfi_startproc
 1449              		@ args = 0, pretend = 0, frame = 0
 1450              		@ frame_needed = 1, uses_anonymous_args = 0
 1451 0000 80B5     		push	{r7, lr}
 1452              	.LCFI35:
 1453              		.cfi_def_cfa_offset 8
 1454              		.cfi_offset 7, -8
 1455              		.cfi_offset 14, -4
 1456 0002 00AF     		add	r7, sp, #0
 1457              	.LCFI36:
 1458              		.cfi_def_cfa_register 7
 890:Drivers/STM32F0xx_HAL_Driver/Src/stm32f0xx_hal_flash_ex.c ****   /* Return the FLASH write protection Register value */
 891:Drivers/STM32F0xx_HAL_Driver/Src/stm32f0xx_hal_flash_ex.c ****   return (uint32_t)(READ_REG(FLASH->WRPR));
 1459              		.loc 1 891 21
 1460 0004 024B     		ldr	r3, .L74
 1461              		.loc 1 891 10
 1462 0006 1B6A     		ldr	r3, [r3, #32]
 892:Drivers/STM32F0xx_HAL_Driver/Src/stm32f0xx_hal_flash_ex.c **** }
 1463              		.loc 1 892 1
 1464 0008 1800     		movs	r0, r3
ARM GAS  C:\Users\mason\AppData\Local\Temp\ccXzLFKH.s 			page 42


 1465 000a BD46     		mov	sp, r7
 1466              		@ sp needed
 1467 000c 80BD     		pop	{r7, pc}
 1468              	.L75:
 1469 000e C046     		.align	2
 1470              	.L74:
 1471 0010 00200240 		.word	1073881088
 1472              		.cfi_endproc
 1473              	.LFE52:
 1475              		.section	.text.FLASH_OB_GetRDP,"ax",%progbits
 1476              		.align	1
 1477              		.syntax unified
 1478              		.code	16
 1479              		.thumb_func
 1481              	FLASH_OB_GetRDP:
 1482              	.LFB53:
 893:Drivers/STM32F0xx_HAL_Driver/Src/stm32f0xx_hal_flash_ex.c **** 
 894:Drivers/STM32F0xx_HAL_Driver/Src/stm32f0xx_hal_flash_ex.c **** /**
 895:Drivers/STM32F0xx_HAL_Driver/Src/stm32f0xx_hal_flash_ex.c ****   * @brief  Returns the FLASH Read Protection level.
 896:Drivers/STM32F0xx_HAL_Driver/Src/stm32f0xx_hal_flash_ex.c ****   * @retval FLASH RDP level
 897:Drivers/STM32F0xx_HAL_Driver/Src/stm32f0xx_hal_flash_ex.c ****   *         This parameter can be one of the following values:
 898:Drivers/STM32F0xx_HAL_Driver/Src/stm32f0xx_hal_flash_ex.c ****   *            @arg @ref OB_RDP_LEVEL_0 No protection
 899:Drivers/STM32F0xx_HAL_Driver/Src/stm32f0xx_hal_flash_ex.c ****   *            @arg @ref OB_RDP_LEVEL_1 Read protection of the memory
 900:Drivers/STM32F0xx_HAL_Driver/Src/stm32f0xx_hal_flash_ex.c ****   *            @arg @ref OB_RDP_LEVEL_2 Full chip protection
 901:Drivers/STM32F0xx_HAL_Driver/Src/stm32f0xx_hal_flash_ex.c ****   */
 902:Drivers/STM32F0xx_HAL_Driver/Src/stm32f0xx_hal_flash_ex.c **** static uint32_t FLASH_OB_GetRDP(void)
 903:Drivers/STM32F0xx_HAL_Driver/Src/stm32f0xx_hal_flash_ex.c **** {
 1483              		.loc 1 903 1
 1484              		.cfi_startproc
 1485              		@ args = 0, pretend = 0, frame = 8
 1486              		@ frame_needed = 1, uses_anonymous_args = 0
 1487 0000 80B5     		push	{r7, lr}
 1488              	.LCFI37:
 1489              		.cfi_def_cfa_offset 8
 1490              		.cfi_offset 7, -8
 1491              		.cfi_offset 14, -4
 1492 0002 82B0     		sub	sp, sp, #8
 1493              	.LCFI38:
 1494              		.cfi_def_cfa_offset 16
 1495 0004 00AF     		add	r7, sp, #0
 1496              	.LCFI39:
 1497              		.cfi_def_cfa_register 7
 904:Drivers/STM32F0xx_HAL_Driver/Src/stm32f0xx_hal_flash_ex.c ****   uint32_t tmp_reg;
 905:Drivers/STM32F0xx_HAL_Driver/Src/stm32f0xx_hal_flash_ex.c ****   
 906:Drivers/STM32F0xx_HAL_Driver/Src/stm32f0xx_hal_flash_ex.c ****   /* Read RDP level bits */
 907:Drivers/STM32F0xx_HAL_Driver/Src/stm32f0xx_hal_flash_ex.c ****   tmp_reg = READ_BIT(FLASH->OBR, (FLASH_OBR_RDPRT1 | FLASH_OBR_RDPRT2));
 1498              		.loc 1 907 13
 1499 0006 0A4B     		ldr	r3, .L80
 1500 0008 DB69     		ldr	r3, [r3, #28]
 1501              		.loc 1 907 11
 1502 000a 0622     		movs	r2, #6
 1503 000c 1340     		ands	r3, r2
 1504 000e 7B60     		str	r3, [r7, #4]
 908:Drivers/STM32F0xx_HAL_Driver/Src/stm32f0xx_hal_flash_ex.c **** 
 909:Drivers/STM32F0xx_HAL_Driver/Src/stm32f0xx_hal_flash_ex.c ****   if (tmp_reg == 0U)
 1505              		.loc 1 909 6
 1506 0010 7B68     		ldr	r3, [r7, #4]
ARM GAS  C:\Users\mason\AppData\Local\Temp\ccXzLFKH.s 			page 43


 1507 0012 002B     		cmp	r3, #0
 1508 0014 01D1     		bne	.L77
 910:Drivers/STM32F0xx_HAL_Driver/Src/stm32f0xx_hal_flash_ex.c ****   {
 911:Drivers/STM32F0xx_HAL_Driver/Src/stm32f0xx_hal_flash_ex.c ****     return OB_RDP_LEVEL_0;
 1509              		.loc 1 911 12
 1510 0016 AA23     		movs	r3, #170
 1511 0018 06E0     		b	.L78
 1512              	.L77:
 912:Drivers/STM32F0xx_HAL_Driver/Src/stm32f0xx_hal_flash_ex.c ****   }
 913:Drivers/STM32F0xx_HAL_Driver/Src/stm32f0xx_hal_flash_ex.c ****   else if ((tmp_reg & FLASH_OBR_RDPRT2) == FLASH_OBR_RDPRT2)
 1513              		.loc 1 913 21
 1514 001a 7B68     		ldr	r3, [r7, #4]
 1515 001c 0422     		movs	r2, #4
 1516 001e 1340     		ands	r3, r2
 1517              		.loc 1 913 11
 1518 0020 01D0     		beq	.L79
 914:Drivers/STM32F0xx_HAL_Driver/Src/stm32f0xx_hal_flash_ex.c ****   {
 915:Drivers/STM32F0xx_HAL_Driver/Src/stm32f0xx_hal_flash_ex.c ****     return OB_RDP_LEVEL_2;
 1519              		.loc 1 915 12
 1520 0022 CC23     		movs	r3, #204
 1521 0024 00E0     		b	.L78
 1522              	.L79:
 916:Drivers/STM32F0xx_HAL_Driver/Src/stm32f0xx_hal_flash_ex.c ****   }
 917:Drivers/STM32F0xx_HAL_Driver/Src/stm32f0xx_hal_flash_ex.c ****   else 
 918:Drivers/STM32F0xx_HAL_Driver/Src/stm32f0xx_hal_flash_ex.c ****   {
 919:Drivers/STM32F0xx_HAL_Driver/Src/stm32f0xx_hal_flash_ex.c ****     return OB_RDP_LEVEL_1;
 1523              		.loc 1 919 12
 1524 0026 BB23     		movs	r3, #187
 1525              	.L78:
 920:Drivers/STM32F0xx_HAL_Driver/Src/stm32f0xx_hal_flash_ex.c ****   }
 921:Drivers/STM32F0xx_HAL_Driver/Src/stm32f0xx_hal_flash_ex.c **** }
 1526              		.loc 1 921 1
 1527 0028 1800     		movs	r0, r3
 1528 002a BD46     		mov	sp, r7
 1529 002c 02B0     		add	sp, sp, #8
 1530              		@ sp needed
 1531 002e 80BD     		pop	{r7, pc}
 1532              	.L81:
 1533              		.align	2
 1534              	.L80:
 1535 0030 00200240 		.word	1073881088
 1536              		.cfi_endproc
 1537              	.LFE53:
 1539              		.section	.text.FLASH_OB_GetUser,"ax",%progbits
 1540              		.align	1
 1541              		.syntax unified
 1542              		.code	16
 1543              		.thumb_func
 1545              	FLASH_OB_GetUser:
 1546              	.LFB54:
 922:Drivers/STM32F0xx_HAL_Driver/Src/stm32f0xx_hal_flash_ex.c **** 
 923:Drivers/STM32F0xx_HAL_Driver/Src/stm32f0xx_hal_flash_ex.c **** /**
 924:Drivers/STM32F0xx_HAL_Driver/Src/stm32f0xx_hal_flash_ex.c ****   * @brief  Return the FLASH User Option Byte value.
 925:Drivers/STM32F0xx_HAL_Driver/Src/stm32f0xx_hal_flash_ex.c ****   * @retval  The FLASH User Option Bytes values: IWDG_SW(Bit0), RST_STOP(Bit1), RST_STDBY(Bit2), nB
 926:Drivers/STM32F0xx_HAL_Driver/Src/stm32f0xx_hal_flash_ex.c ****   *         VDDA_Analog_Monitoring(Bit5) and SRAM_Parity_Enable(Bit6). 
 927:Drivers/STM32F0xx_HAL_Driver/Src/stm32f0xx_hal_flash_ex.c ****   *         For few devices, following option bytes are available: nBOOT0(Bit3) & BOOT_SEL(Bit7).
 928:Drivers/STM32F0xx_HAL_Driver/Src/stm32f0xx_hal_flash_ex.c ****   */
ARM GAS  C:\Users\mason\AppData\Local\Temp\ccXzLFKH.s 			page 44


 929:Drivers/STM32F0xx_HAL_Driver/Src/stm32f0xx_hal_flash_ex.c **** static uint8_t FLASH_OB_GetUser(void)
 930:Drivers/STM32F0xx_HAL_Driver/Src/stm32f0xx_hal_flash_ex.c **** {
 1547              		.loc 1 930 1
 1548              		.cfi_startproc
 1549              		@ args = 0, pretend = 0, frame = 0
 1550              		@ frame_needed = 1, uses_anonymous_args = 0
 1551 0000 80B5     		push	{r7, lr}
 1552              	.LCFI40:
 1553              		.cfi_def_cfa_offset 8
 1554              		.cfi_offset 7, -8
 1555              		.cfi_offset 14, -4
 1556 0002 00AF     		add	r7, sp, #0
 1557              	.LCFI41:
 1558              		.cfi_def_cfa_register 7
 931:Drivers/STM32F0xx_HAL_Driver/Src/stm32f0xx_hal_flash_ex.c ****   /* Return the User Option Byte */
 932:Drivers/STM32F0xx_HAL_Driver/Src/stm32f0xx_hal_flash_ex.c ****   return (uint8_t)((READ_REG(FLASH->OBR) & FLASH_OBR_USER) >> FLASH_POSITION_IWDGSW_BIT);
 1559              		.loc 1 932 21
 1560 0004 044B     		ldr	r3, .L84
 1561 0006 DB69     		ldr	r3, [r3, #28]
 1562              		.loc 1 932 60
 1563 0008 1B0A     		lsrs	r3, r3, #8
 1564              		.loc 1 932 10
 1565 000a DBB2     		uxtb	r3, r3
 1566 000c 7722     		movs	r2, #119
 1567 000e 1340     		ands	r3, r2
 1568 0010 DBB2     		uxtb	r3, r3
 933:Drivers/STM32F0xx_HAL_Driver/Src/stm32f0xx_hal_flash_ex.c **** }
 1569              		.loc 1 933 1
 1570 0012 1800     		movs	r0, r3
 1571 0014 BD46     		mov	sp, r7
 1572              		@ sp needed
 1573 0016 80BD     		pop	{r7, pc}
 1574              	.L85:
 1575              		.align	2
 1576              	.L84:
 1577 0018 00200240 		.word	1073881088
 1578              		.cfi_endproc
 1579              	.LFE54:
 1581              		.section	.text.FLASH_PageErase,"ax",%progbits
 1582              		.align	1
 1583              		.global	FLASH_PageErase
 1584              		.syntax unified
 1585              		.code	16
 1586              		.thumb_func
 1588              	FLASH_PageErase:
 1589              	.LFB55:
 934:Drivers/STM32F0xx_HAL_Driver/Src/stm32f0xx_hal_flash_ex.c **** 
 935:Drivers/STM32F0xx_HAL_Driver/Src/stm32f0xx_hal_flash_ex.c **** /**
 936:Drivers/STM32F0xx_HAL_Driver/Src/stm32f0xx_hal_flash_ex.c ****   * @}
 937:Drivers/STM32F0xx_HAL_Driver/Src/stm32f0xx_hal_flash_ex.c ****   */
 938:Drivers/STM32F0xx_HAL_Driver/Src/stm32f0xx_hal_flash_ex.c **** 
 939:Drivers/STM32F0xx_HAL_Driver/Src/stm32f0xx_hal_flash_ex.c **** /**
 940:Drivers/STM32F0xx_HAL_Driver/Src/stm32f0xx_hal_flash_ex.c ****   * @}
 941:Drivers/STM32F0xx_HAL_Driver/Src/stm32f0xx_hal_flash_ex.c ****   */
 942:Drivers/STM32F0xx_HAL_Driver/Src/stm32f0xx_hal_flash_ex.c **** 
 943:Drivers/STM32F0xx_HAL_Driver/Src/stm32f0xx_hal_flash_ex.c **** /** @addtogroup FLASH
 944:Drivers/STM32F0xx_HAL_Driver/Src/stm32f0xx_hal_flash_ex.c ****   * @{
ARM GAS  C:\Users\mason\AppData\Local\Temp\ccXzLFKH.s 			page 45


 945:Drivers/STM32F0xx_HAL_Driver/Src/stm32f0xx_hal_flash_ex.c ****   */
 946:Drivers/STM32F0xx_HAL_Driver/Src/stm32f0xx_hal_flash_ex.c **** 
 947:Drivers/STM32F0xx_HAL_Driver/Src/stm32f0xx_hal_flash_ex.c **** /** @addtogroup FLASH_Private_Functions
 948:Drivers/STM32F0xx_HAL_Driver/Src/stm32f0xx_hal_flash_ex.c ****  * @{
 949:Drivers/STM32F0xx_HAL_Driver/Src/stm32f0xx_hal_flash_ex.c ****  */
 950:Drivers/STM32F0xx_HAL_Driver/Src/stm32f0xx_hal_flash_ex.c **** 
 951:Drivers/STM32F0xx_HAL_Driver/Src/stm32f0xx_hal_flash_ex.c **** /**
 952:Drivers/STM32F0xx_HAL_Driver/Src/stm32f0xx_hal_flash_ex.c ****   * @brief  Erase the specified FLASH memory page
 953:Drivers/STM32F0xx_HAL_Driver/Src/stm32f0xx_hal_flash_ex.c ****   * @param  PageAddress FLASH page to erase
 954:Drivers/STM32F0xx_HAL_Driver/Src/stm32f0xx_hal_flash_ex.c ****   *         The value of this parameter depend on device used within the same series      
 955:Drivers/STM32F0xx_HAL_Driver/Src/stm32f0xx_hal_flash_ex.c ****   * 
 956:Drivers/STM32F0xx_HAL_Driver/Src/stm32f0xx_hal_flash_ex.c ****   * @retval None
 957:Drivers/STM32F0xx_HAL_Driver/Src/stm32f0xx_hal_flash_ex.c ****   */
 958:Drivers/STM32F0xx_HAL_Driver/Src/stm32f0xx_hal_flash_ex.c **** void FLASH_PageErase(uint32_t PageAddress)
 959:Drivers/STM32F0xx_HAL_Driver/Src/stm32f0xx_hal_flash_ex.c **** {
 1590              		.loc 1 959 1
 1591              		.cfi_startproc
 1592              		@ args = 0, pretend = 0, frame = 8
 1593              		@ frame_needed = 1, uses_anonymous_args = 0
 1594 0000 80B5     		push	{r7, lr}
 1595              	.LCFI42:
 1596              		.cfi_def_cfa_offset 8
 1597              		.cfi_offset 7, -8
 1598              		.cfi_offset 14, -4
 1599 0002 82B0     		sub	sp, sp, #8
 1600              	.LCFI43:
 1601              		.cfi_def_cfa_offset 16
 1602 0004 00AF     		add	r7, sp, #0
 1603              	.LCFI44:
 1604              		.cfi_def_cfa_register 7
 1605 0006 7860     		str	r0, [r7, #4]
 960:Drivers/STM32F0xx_HAL_Driver/Src/stm32f0xx_hal_flash_ex.c ****   /* Clean the error context */
 961:Drivers/STM32F0xx_HAL_Driver/Src/stm32f0xx_hal_flash_ex.c ****   pFlash.ErrorCode = HAL_FLASH_ERROR_NONE;
 1606              		.loc 1 961 20
 1607 0008 0A4B     		ldr	r3, .L87
 1608 000a 0022     		movs	r2, #0
 1609 000c DA61     		str	r2, [r3, #28]
 962:Drivers/STM32F0xx_HAL_Driver/Src/stm32f0xx_hal_flash_ex.c **** 
 963:Drivers/STM32F0xx_HAL_Driver/Src/stm32f0xx_hal_flash_ex.c ****     /* Proceed to erase the page */
 964:Drivers/STM32F0xx_HAL_Driver/Src/stm32f0xx_hal_flash_ex.c ****     SET_BIT(FLASH->CR, FLASH_CR_PER);
 1610              		.loc 1 964 5
 1611 000e 0A4B     		ldr	r3, .L87+4
 1612 0010 1A69     		ldr	r2, [r3, #16]
 1613 0012 094B     		ldr	r3, .L87+4
 1614 0014 0221     		movs	r1, #2
 1615 0016 0A43     		orrs	r2, r1
 1616 0018 1A61     		str	r2, [r3, #16]
 965:Drivers/STM32F0xx_HAL_Driver/Src/stm32f0xx_hal_flash_ex.c ****     WRITE_REG(FLASH->AR, PageAddress);
 1617              		.loc 1 965 5
 1618 001a 074B     		ldr	r3, .L87+4
 1619 001c 7A68     		ldr	r2, [r7, #4]
 1620 001e 5A61     		str	r2, [r3, #20]
 966:Drivers/STM32F0xx_HAL_Driver/Src/stm32f0xx_hal_flash_ex.c ****     SET_BIT(FLASH->CR, FLASH_CR_STRT);
 1621              		.loc 1 966 5
 1622 0020 054B     		ldr	r3, .L87+4
 1623 0022 1A69     		ldr	r2, [r3, #16]
 1624 0024 044B     		ldr	r3, .L87+4
ARM GAS  C:\Users\mason\AppData\Local\Temp\ccXzLFKH.s 			page 46


 1625 0026 4021     		movs	r1, #64
 1626 0028 0A43     		orrs	r2, r1
 1627 002a 1A61     		str	r2, [r3, #16]
 967:Drivers/STM32F0xx_HAL_Driver/Src/stm32f0xx_hal_flash_ex.c **** }
 1628              		.loc 1 967 1
 1629 002c C046     		nop
 1630 002e BD46     		mov	sp, r7
 1631 0030 02B0     		add	sp, sp, #8
 1632              		@ sp needed
 1633 0032 80BD     		pop	{r7, pc}
 1634              	.L88:
 1635              		.align	2
 1636              	.L87:
 1637 0034 00000000 		.word	pFlash
 1638 0038 00200240 		.word	1073881088
 1639              		.cfi_endproc
 1640              	.LFE55:
 1642              		.text
 1643              	.Letext0:
 1644              		.file 2 "c:\\program files (x86)\\openocdarmgccbuildtools\\gcc-arm-none-eabi-10.3-2021.10-win32\\a
 1645              		.file 3 "c:\\program files (x86)\\openocdarmgccbuildtools\\gcc-arm-none-eabi-10.3-2021.10-win32\\a
 1646              		.file 4 "Drivers/CMSIS/Device/ST/STM32F0xx/Include/stm32f031x6.h"
 1647              		.file 5 "Drivers/STM32F0xx_HAL_Driver/Inc/stm32f0xx_hal_def.h"
 1648              		.file 6 "Drivers/STM32F0xx_HAL_Driver/Inc/stm32f0xx_hal_flash.h"
 1649              		.file 7 "Drivers/STM32F0xx_HAL_Driver/Inc/stm32f0xx_hal_flash_ex.h"
ARM GAS  C:\Users\mason\AppData\Local\Temp\ccXzLFKH.s 			page 47

