ARM GAS  C:\Users\mason\AppData\Local\Temp\ccu1VdX1.s 			page 1


   1              		.cpu cortex-m0
   2              		.arch armv6s-m
   3              		.fpu softvfp
   4              		.eabi_attribute 20, 1
   5              		.eabi_attribute 21, 1
   6              		.eabi_attribute 23, 3
   7              		.eabi_attribute 24, 1
   8              		.eabi_attribute 25, 1
   9              		.eabi_attribute 26, 1
  10              		.eabi_attribute 30, 6
  11              		.eabi_attribute 34, 0
  12              		.eabi_attribute 18, 4
  13              		.file	"stm32f0xx_hal_gpio.c"
  14              		.text
  15              	.Ltext0:
  16              		.cfi_sections	.debug_frame
  17              		.section	.text.HAL_GPIO_Init,"ax",%progbits
  18              		.align	1
  19              		.global	HAL_GPIO_Init
  20              		.syntax unified
  21              		.code	16
  22              		.thumb_func
  24              	HAL_GPIO_Init:
  25              	.LFB40:
  26              		.file 1 "Drivers/STM32F0xx_HAL_Driver/Src/stm32f0xx_hal_gpio.c"
   1:Drivers/STM32F0xx_HAL_Driver/Src/stm32f0xx_hal_gpio.c **** /**
   2:Drivers/STM32F0xx_HAL_Driver/Src/stm32f0xx_hal_gpio.c ****   ******************************************************************************
   3:Drivers/STM32F0xx_HAL_Driver/Src/stm32f0xx_hal_gpio.c ****   * @file    stm32f0xx_hal_gpio.c
   4:Drivers/STM32F0xx_HAL_Driver/Src/stm32f0xx_hal_gpio.c ****   * @author  MCD Application Team
   5:Drivers/STM32F0xx_HAL_Driver/Src/stm32f0xx_hal_gpio.c ****   * @brief   GPIO HAL module driver.
   6:Drivers/STM32F0xx_HAL_Driver/Src/stm32f0xx_hal_gpio.c ****   *          This file provides firmware functions to manage the following 
   7:Drivers/STM32F0xx_HAL_Driver/Src/stm32f0xx_hal_gpio.c ****   *          functionalities of the General Purpose Input/Output (GPIO) peripheral:
   8:Drivers/STM32F0xx_HAL_Driver/Src/stm32f0xx_hal_gpio.c ****   *           + Initialization and de-initialization functions
   9:Drivers/STM32F0xx_HAL_Driver/Src/stm32f0xx_hal_gpio.c ****   *           + IO operation functions
  10:Drivers/STM32F0xx_HAL_Driver/Src/stm32f0xx_hal_gpio.c ****   *
  11:Drivers/STM32F0xx_HAL_Driver/Src/stm32f0xx_hal_gpio.c ****   ******************************************************************************
  12:Drivers/STM32F0xx_HAL_Driver/Src/stm32f0xx_hal_gpio.c ****   * @attention
  13:Drivers/STM32F0xx_HAL_Driver/Src/stm32f0xx_hal_gpio.c ****   *
  14:Drivers/STM32F0xx_HAL_Driver/Src/stm32f0xx_hal_gpio.c ****   * Copyright (c) 2016 STMicroelectronics.
  15:Drivers/STM32F0xx_HAL_Driver/Src/stm32f0xx_hal_gpio.c ****   * All rights reserved.
  16:Drivers/STM32F0xx_HAL_Driver/Src/stm32f0xx_hal_gpio.c ****   *
  17:Drivers/STM32F0xx_HAL_Driver/Src/stm32f0xx_hal_gpio.c ****   * This software is licensed under terms that can be found in the LICENSE file
  18:Drivers/STM32F0xx_HAL_Driver/Src/stm32f0xx_hal_gpio.c ****   * in the root directory of this software component.
  19:Drivers/STM32F0xx_HAL_Driver/Src/stm32f0xx_hal_gpio.c ****   * If no LICENSE file comes with this software, it is provided AS-IS.
  20:Drivers/STM32F0xx_HAL_Driver/Src/stm32f0xx_hal_gpio.c ****   *
  21:Drivers/STM32F0xx_HAL_Driver/Src/stm32f0xx_hal_gpio.c ****   ******************************************************************************
  22:Drivers/STM32F0xx_HAL_Driver/Src/stm32f0xx_hal_gpio.c ****   @verbatim
  23:Drivers/STM32F0xx_HAL_Driver/Src/stm32f0xx_hal_gpio.c ****   ==============================================================================
  24:Drivers/STM32F0xx_HAL_Driver/Src/stm32f0xx_hal_gpio.c ****                     ##### GPIO Peripheral features #####
  25:Drivers/STM32F0xx_HAL_Driver/Src/stm32f0xx_hal_gpio.c ****   ==============================================================================         
  26:Drivers/STM32F0xx_HAL_Driver/Src/stm32f0xx_hal_gpio.c ****   [..] 
  27:Drivers/STM32F0xx_HAL_Driver/Src/stm32f0xx_hal_gpio.c ****     (+) Each port bit of the general-purpose I/O (GPIO) ports can be individually
  28:Drivers/STM32F0xx_HAL_Driver/Src/stm32f0xx_hal_gpio.c ****   configured by software in several modes:
  29:Drivers/STM32F0xx_HAL_Driver/Src/stm32f0xx_hal_gpio.c ****         (++) Input mode
  30:Drivers/STM32F0xx_HAL_Driver/Src/stm32f0xx_hal_gpio.c ****         (++) Analog mode
  31:Drivers/STM32F0xx_HAL_Driver/Src/stm32f0xx_hal_gpio.c ****         (++) Output mode
  32:Drivers/STM32F0xx_HAL_Driver/Src/stm32f0xx_hal_gpio.c ****         (++) Alternate function mode
ARM GAS  C:\Users\mason\AppData\Local\Temp\ccu1VdX1.s 			page 2


  33:Drivers/STM32F0xx_HAL_Driver/Src/stm32f0xx_hal_gpio.c ****         (++) External interrupt/event lines
  34:Drivers/STM32F0xx_HAL_Driver/Src/stm32f0xx_hal_gpio.c ****  
  35:Drivers/STM32F0xx_HAL_Driver/Src/stm32f0xx_hal_gpio.c ****     (+) During and just after reset, the alternate functions and external interrupt
  36:Drivers/STM32F0xx_HAL_Driver/Src/stm32f0xx_hal_gpio.c ****   lines are not active and the I/O ports are configured in input floating mode.
  37:Drivers/STM32F0xx_HAL_Driver/Src/stm32f0xx_hal_gpio.c ****   
  38:Drivers/STM32F0xx_HAL_Driver/Src/stm32f0xx_hal_gpio.c ****     (+) All GPIO pins have weak internal pull-up and pull-down resistors, which can be
  39:Drivers/STM32F0xx_HAL_Driver/Src/stm32f0xx_hal_gpio.c ****   activated or not.
  40:Drivers/STM32F0xx_HAL_Driver/Src/stm32f0xx_hal_gpio.c ****            
  41:Drivers/STM32F0xx_HAL_Driver/Src/stm32f0xx_hal_gpio.c ****     (+) In Output or Alternate mode, each IO can be configured on open-drain or push-pull
  42:Drivers/STM32F0xx_HAL_Driver/Src/stm32f0xx_hal_gpio.c ****   type and the IO speed can be selected depending on the VDD value.
  43:Drivers/STM32F0xx_HAL_Driver/Src/stm32f0xx_hal_gpio.c ****        
  44:Drivers/STM32F0xx_HAL_Driver/Src/stm32f0xx_hal_gpio.c ****     (+) The microcontroller IO pins are connected to onboard peripherals/modules through a
  45:Drivers/STM32F0xx_HAL_Driver/Src/stm32f0xx_hal_gpio.c ****         multiplexer that allows only one peripheral alternate function (AF) connected
  46:Drivers/STM32F0xx_HAL_Driver/Src/stm32f0xx_hal_gpio.c ****   to an IO pin at a time. In this way, there can be no conflict between peripherals 
  47:Drivers/STM32F0xx_HAL_Driver/Src/stm32f0xx_hal_gpio.c ****   sharing the same IO pin. 
  48:Drivers/STM32F0xx_HAL_Driver/Src/stm32f0xx_hal_gpio.c ****   
  49:Drivers/STM32F0xx_HAL_Driver/Src/stm32f0xx_hal_gpio.c ****     (+) All ports have external interrupt/event capability. To use external interrupt
  50:Drivers/STM32F0xx_HAL_Driver/Src/stm32f0xx_hal_gpio.c ****   lines, the port must be configured in input mode. All available GPIO pins are 
  51:Drivers/STM32F0xx_HAL_Driver/Src/stm32f0xx_hal_gpio.c ****   connected to the 16 external interrupt/event lines from EXTI0 to EXTI15.
  52:Drivers/STM32F0xx_HAL_Driver/Src/stm32f0xx_hal_gpio.c ****   
  53:Drivers/STM32F0xx_HAL_Driver/Src/stm32f0xx_hal_gpio.c ****     (+) The external interrupt/event controller consists of up to 28 edge detectors
  54:Drivers/STM32F0xx_HAL_Driver/Src/stm32f0xx_hal_gpio.c ****         (16 lines are connected to GPIO) for generating event/interrupt requests (each
  55:Drivers/STM32F0xx_HAL_Driver/Src/stm32f0xx_hal_gpio.c ****         input line can be independently configured to select the type (interrupt or event)
  56:Drivers/STM32F0xx_HAL_Driver/Src/stm32f0xx_hal_gpio.c ****         and the corresponding trigger event (rising or falling or both). Each line can
  57:Drivers/STM32F0xx_HAL_Driver/Src/stm32f0xx_hal_gpio.c ****         also be masked independently.
  58:Drivers/STM32F0xx_HAL_Driver/Src/stm32f0xx_hal_gpio.c ****    
  59:Drivers/STM32F0xx_HAL_Driver/Src/stm32f0xx_hal_gpio.c ****             ##### How to use this driver #####
  60:Drivers/STM32F0xx_HAL_Driver/Src/stm32f0xx_hal_gpio.c ****   ==============================================================================  
  61:Drivers/STM32F0xx_HAL_Driver/Src/stm32f0xx_hal_gpio.c ****   [..]
  62:Drivers/STM32F0xx_HAL_Driver/Src/stm32f0xx_hal_gpio.c ****    (#) Enable the GPIO AHB clock using the following function : __HAL_RCC_GPIOx_CLK_ENABLE(). 
  63:Drivers/STM32F0xx_HAL_Driver/Src/stm32f0xx_hal_gpio.c ****                                     
  64:Drivers/STM32F0xx_HAL_Driver/Src/stm32f0xx_hal_gpio.c ****    (#) Configure the GPIO pin(s) using HAL_GPIO_Init().
  65:Drivers/STM32F0xx_HAL_Driver/Src/stm32f0xx_hal_gpio.c ****        (++) Configure the IO mode using "Mode" member from GPIO_InitTypeDef structure
  66:Drivers/STM32F0xx_HAL_Driver/Src/stm32f0xx_hal_gpio.c ****        (++) Activate Pull-up, Pull-down resistor using "Pull" member from GPIO_InitTypeDef 
  67:Drivers/STM32F0xx_HAL_Driver/Src/stm32f0xx_hal_gpio.c ****             structure.
  68:Drivers/STM32F0xx_HAL_Driver/Src/stm32f0xx_hal_gpio.c ****        (++) In case of Output or alternate function mode selection: the speed is 
  69:Drivers/STM32F0xx_HAL_Driver/Src/stm32f0xx_hal_gpio.c ****              configured through "Speed" member from GPIO_InitTypeDef structure.
  70:Drivers/STM32F0xx_HAL_Driver/Src/stm32f0xx_hal_gpio.c ****         (++) In alternate mode is selection, the alternate function connected to the IO
  71:Drivers/STM32F0xx_HAL_Driver/Src/stm32f0xx_hal_gpio.c ****              is configured through "Alternate" member from GPIO_InitTypeDef structure.
  72:Drivers/STM32F0xx_HAL_Driver/Src/stm32f0xx_hal_gpio.c ****        (++) Analog mode is required when a pin is to be used as ADC channel 
  73:Drivers/STM32F0xx_HAL_Driver/Src/stm32f0xx_hal_gpio.c ****             or DAC output.
  74:Drivers/STM32F0xx_HAL_Driver/Src/stm32f0xx_hal_gpio.c ****        (++) In case of external interrupt/event selection the "Mode" member from 
  75:Drivers/STM32F0xx_HAL_Driver/Src/stm32f0xx_hal_gpio.c ****             GPIO_InitTypeDef structure select the type (interrupt or event) and 
  76:Drivers/STM32F0xx_HAL_Driver/Src/stm32f0xx_hal_gpio.c ****             the corresponding trigger event (rising or falling or both).
  77:Drivers/STM32F0xx_HAL_Driver/Src/stm32f0xx_hal_gpio.c ****   
  78:Drivers/STM32F0xx_HAL_Driver/Src/stm32f0xx_hal_gpio.c ****    (#) In case of external interrupt/event mode selection, configure NVIC IRQ priority 
  79:Drivers/STM32F0xx_HAL_Driver/Src/stm32f0xx_hal_gpio.c ****        mapped to the EXTI line using HAL_NVIC_SetPriority() and enable it using
  80:Drivers/STM32F0xx_HAL_Driver/Src/stm32f0xx_hal_gpio.c ****        HAL_NVIC_EnableIRQ().
  81:Drivers/STM32F0xx_HAL_Driver/Src/stm32f0xx_hal_gpio.c ****   
  82:Drivers/STM32F0xx_HAL_Driver/Src/stm32f0xx_hal_gpio.c ****    (#) HAL_GPIO_DeInit allows to set register values to their reset value. It's also 
  83:Drivers/STM32F0xx_HAL_Driver/Src/stm32f0xx_hal_gpio.c ****        recommended to use it to unconfigure pin which was used as an external interrupt 
  84:Drivers/STM32F0xx_HAL_Driver/Src/stm32f0xx_hal_gpio.c ****        or in event mode. That's the only way to reset corresponding bit in EXTI & SYSCFG 
  85:Drivers/STM32F0xx_HAL_Driver/Src/stm32f0xx_hal_gpio.c ****        registers.
  86:Drivers/STM32F0xx_HAL_Driver/Src/stm32f0xx_hal_gpio.c ****   
  87:Drivers/STM32F0xx_HAL_Driver/Src/stm32f0xx_hal_gpio.c ****    (#) To get the level of a pin configured in input mode use HAL_GPIO_ReadPin().
  88:Drivers/STM32F0xx_HAL_Driver/Src/stm32f0xx_hal_gpio.c ****   
  89:Drivers/STM32F0xx_HAL_Driver/Src/stm32f0xx_hal_gpio.c ****    (#) To set/reset the level of a pin configured in output mode use 
ARM GAS  C:\Users\mason\AppData\Local\Temp\ccu1VdX1.s 			page 3


  90:Drivers/STM32F0xx_HAL_Driver/Src/stm32f0xx_hal_gpio.c ****        HAL_GPIO_WritePin()/HAL_GPIO_TogglePin().
  91:Drivers/STM32F0xx_HAL_Driver/Src/stm32f0xx_hal_gpio.c ****   
  92:Drivers/STM32F0xx_HAL_Driver/Src/stm32f0xx_hal_gpio.c ****    (#) To lock pin configuration until next reset use HAL_GPIO_LockPin().
  93:Drivers/STM32F0xx_HAL_Driver/Src/stm32f0xx_hal_gpio.c ****   
  94:Drivers/STM32F0xx_HAL_Driver/Src/stm32f0xx_hal_gpio.c ****    (#) During and just after reset, the alternate functions are not 
  95:Drivers/STM32F0xx_HAL_Driver/Src/stm32f0xx_hal_gpio.c ****        active and the GPIO pins are configured in input floating mode (except JTAG
  96:Drivers/STM32F0xx_HAL_Driver/Src/stm32f0xx_hal_gpio.c ****        pins).
  97:Drivers/STM32F0xx_HAL_Driver/Src/stm32f0xx_hal_gpio.c ****   
  98:Drivers/STM32F0xx_HAL_Driver/Src/stm32f0xx_hal_gpio.c ****    (#) The LSE oscillator pins OSC32_IN and OSC32_OUT can be used as general purpose 
  99:Drivers/STM32F0xx_HAL_Driver/Src/stm32f0xx_hal_gpio.c ****        (PC14 and PC15, respectively) when the LSE oscillator is off. The LSE has 
 100:Drivers/STM32F0xx_HAL_Driver/Src/stm32f0xx_hal_gpio.c ****        priority over the GPIO function.
 101:Drivers/STM32F0xx_HAL_Driver/Src/stm32f0xx_hal_gpio.c ****   
 102:Drivers/STM32F0xx_HAL_Driver/Src/stm32f0xx_hal_gpio.c ****    (#) The HSE oscillator pins OSC_IN/OSC_OUT can be used as 
 103:Drivers/STM32F0xx_HAL_Driver/Src/stm32f0xx_hal_gpio.c ****         general purpose PF0 and PF1, respectively, when the HSE oscillator is off.
 104:Drivers/STM32F0xx_HAL_Driver/Src/stm32f0xx_hal_gpio.c ****        The HSE has priority over the GPIO function.
 105:Drivers/STM32F0xx_HAL_Driver/Src/stm32f0xx_hal_gpio.c ****   
 106:Drivers/STM32F0xx_HAL_Driver/Src/stm32f0xx_hal_gpio.c ****   @endverbatim
 107:Drivers/STM32F0xx_HAL_Driver/Src/stm32f0xx_hal_gpio.c ****   ******************************************************************************
 108:Drivers/STM32F0xx_HAL_Driver/Src/stm32f0xx_hal_gpio.c ****   */
 109:Drivers/STM32F0xx_HAL_Driver/Src/stm32f0xx_hal_gpio.c **** 
 110:Drivers/STM32F0xx_HAL_Driver/Src/stm32f0xx_hal_gpio.c **** /* Includes ------------------------------------------------------------------*/
 111:Drivers/STM32F0xx_HAL_Driver/Src/stm32f0xx_hal_gpio.c **** #include "stm32f0xx_hal.h"
 112:Drivers/STM32F0xx_HAL_Driver/Src/stm32f0xx_hal_gpio.c **** 
 113:Drivers/STM32F0xx_HAL_Driver/Src/stm32f0xx_hal_gpio.c **** /** @addtogroup STM32F0xx_HAL_Driver
 114:Drivers/STM32F0xx_HAL_Driver/Src/stm32f0xx_hal_gpio.c ****   * @{
 115:Drivers/STM32F0xx_HAL_Driver/Src/stm32f0xx_hal_gpio.c ****   */
 116:Drivers/STM32F0xx_HAL_Driver/Src/stm32f0xx_hal_gpio.c **** 
 117:Drivers/STM32F0xx_HAL_Driver/Src/stm32f0xx_hal_gpio.c **** /** @defgroup GPIO GPIO
 118:Drivers/STM32F0xx_HAL_Driver/Src/stm32f0xx_hal_gpio.c ****   * @brief GPIO HAL module driver
 119:Drivers/STM32F0xx_HAL_Driver/Src/stm32f0xx_hal_gpio.c ****   * @{
 120:Drivers/STM32F0xx_HAL_Driver/Src/stm32f0xx_hal_gpio.c ****   */
 121:Drivers/STM32F0xx_HAL_Driver/Src/stm32f0xx_hal_gpio.c **** 
 122:Drivers/STM32F0xx_HAL_Driver/Src/stm32f0xx_hal_gpio.c **** /** MISRA C:2012 deviation rule has been granted for following rules:
 123:Drivers/STM32F0xx_HAL_Driver/Src/stm32f0xx_hal_gpio.c ****   * Rule-18.1_d - Medium: Array pointer `GPIOx' is accessed with index [..,..]
 124:Drivers/STM32F0xx_HAL_Driver/Src/stm32f0xx_hal_gpio.c ****   * which may be out of array bounds [..,UNKNOWN] in following APIs:
 125:Drivers/STM32F0xx_HAL_Driver/Src/stm32f0xx_hal_gpio.c ****   * HAL_GPIO_Init
 126:Drivers/STM32F0xx_HAL_Driver/Src/stm32f0xx_hal_gpio.c ****   * HAL_GPIO_DeInit
 127:Drivers/STM32F0xx_HAL_Driver/Src/stm32f0xx_hal_gpio.c ****   */
 128:Drivers/STM32F0xx_HAL_Driver/Src/stm32f0xx_hal_gpio.c **** 
 129:Drivers/STM32F0xx_HAL_Driver/Src/stm32f0xx_hal_gpio.c **** #ifdef HAL_GPIO_MODULE_ENABLED
 130:Drivers/STM32F0xx_HAL_Driver/Src/stm32f0xx_hal_gpio.c **** 
 131:Drivers/STM32F0xx_HAL_Driver/Src/stm32f0xx_hal_gpio.c **** /* Private typedef -----------------------------------------------------------*/
 132:Drivers/STM32F0xx_HAL_Driver/Src/stm32f0xx_hal_gpio.c **** /* Private defines -----------------------------------------------------------*/
 133:Drivers/STM32F0xx_HAL_Driver/Src/stm32f0xx_hal_gpio.c **** /** @addtogroup GPIO_Private_Constants GPIO Private Constants
 134:Drivers/STM32F0xx_HAL_Driver/Src/stm32f0xx_hal_gpio.c ****   * @{
 135:Drivers/STM32F0xx_HAL_Driver/Src/stm32f0xx_hal_gpio.c ****   */
 136:Drivers/STM32F0xx_HAL_Driver/Src/stm32f0xx_hal_gpio.c **** #define GPIO_NUMBER           16U
 137:Drivers/STM32F0xx_HAL_Driver/Src/stm32f0xx_hal_gpio.c **** /**
 138:Drivers/STM32F0xx_HAL_Driver/Src/stm32f0xx_hal_gpio.c ****   * @}
 139:Drivers/STM32F0xx_HAL_Driver/Src/stm32f0xx_hal_gpio.c ****   */
 140:Drivers/STM32F0xx_HAL_Driver/Src/stm32f0xx_hal_gpio.c **** 
 141:Drivers/STM32F0xx_HAL_Driver/Src/stm32f0xx_hal_gpio.c **** /* Private macros ------------------------------------------------------------*/
 142:Drivers/STM32F0xx_HAL_Driver/Src/stm32f0xx_hal_gpio.c **** /* Private variables ---------------------------------------------------------*/
 143:Drivers/STM32F0xx_HAL_Driver/Src/stm32f0xx_hal_gpio.c **** /* Private function prototypes -----------------------------------------------*/
 144:Drivers/STM32F0xx_HAL_Driver/Src/stm32f0xx_hal_gpio.c **** /* Exported functions --------------------------------------------------------*/
 145:Drivers/STM32F0xx_HAL_Driver/Src/stm32f0xx_hal_gpio.c **** 
 146:Drivers/STM32F0xx_HAL_Driver/Src/stm32f0xx_hal_gpio.c **** /** @defgroup GPIO_Exported_Functions GPIO Exported Functions
ARM GAS  C:\Users\mason\AppData\Local\Temp\ccu1VdX1.s 			page 4


 147:Drivers/STM32F0xx_HAL_Driver/Src/stm32f0xx_hal_gpio.c ****   * @{
 148:Drivers/STM32F0xx_HAL_Driver/Src/stm32f0xx_hal_gpio.c ****   */
 149:Drivers/STM32F0xx_HAL_Driver/Src/stm32f0xx_hal_gpio.c **** 
 150:Drivers/STM32F0xx_HAL_Driver/Src/stm32f0xx_hal_gpio.c **** /** @defgroup GPIO_Exported_Functions_Group1 Initialization/de-initialization functions 
 151:Drivers/STM32F0xx_HAL_Driver/Src/stm32f0xx_hal_gpio.c ****  *  @brief    Initialization and Configuration functions 
 152:Drivers/STM32F0xx_HAL_Driver/Src/stm32f0xx_hal_gpio.c ****  *
 153:Drivers/STM32F0xx_HAL_Driver/Src/stm32f0xx_hal_gpio.c **** @verbatim    
 154:Drivers/STM32F0xx_HAL_Driver/Src/stm32f0xx_hal_gpio.c ****  ===============================================================================
 155:Drivers/STM32F0xx_HAL_Driver/Src/stm32f0xx_hal_gpio.c ****               ##### Initialization and de-initialization functions #####
 156:Drivers/STM32F0xx_HAL_Driver/Src/stm32f0xx_hal_gpio.c ****  ===============================================================================
 157:Drivers/STM32F0xx_HAL_Driver/Src/stm32f0xx_hal_gpio.c ****  
 158:Drivers/STM32F0xx_HAL_Driver/Src/stm32f0xx_hal_gpio.c **** @endverbatim
 159:Drivers/STM32F0xx_HAL_Driver/Src/stm32f0xx_hal_gpio.c ****   * @{
 160:Drivers/STM32F0xx_HAL_Driver/Src/stm32f0xx_hal_gpio.c ****   */
 161:Drivers/STM32F0xx_HAL_Driver/Src/stm32f0xx_hal_gpio.c **** 
 162:Drivers/STM32F0xx_HAL_Driver/Src/stm32f0xx_hal_gpio.c **** /**
 163:Drivers/STM32F0xx_HAL_Driver/Src/stm32f0xx_hal_gpio.c ****   * @brief  Initialize the GPIOx peripheral according to the specified parameters in the GPIO_Init.
 164:Drivers/STM32F0xx_HAL_Driver/Src/stm32f0xx_hal_gpio.c ****   * @param  GPIOx where x can be (A..F) to select the GPIO peripheral for STM32F0 family
 165:Drivers/STM32F0xx_HAL_Driver/Src/stm32f0xx_hal_gpio.c ****   * @param  GPIO_Init pointer to a GPIO_InitTypeDef structure that contains
 166:Drivers/STM32F0xx_HAL_Driver/Src/stm32f0xx_hal_gpio.c ****   *         the configuration information for the specified GPIO peripheral.
 167:Drivers/STM32F0xx_HAL_Driver/Src/stm32f0xx_hal_gpio.c ****   * @retval None
 168:Drivers/STM32F0xx_HAL_Driver/Src/stm32f0xx_hal_gpio.c ****   */
 169:Drivers/STM32F0xx_HAL_Driver/Src/stm32f0xx_hal_gpio.c **** void HAL_GPIO_Init(GPIO_TypeDef  *GPIOx, GPIO_InitTypeDef *GPIO_Init)
 170:Drivers/STM32F0xx_HAL_Driver/Src/stm32f0xx_hal_gpio.c **** {
  27              		.loc 1 170 1
  28              		.cfi_startproc
  29              		@ args = 0, pretend = 0, frame = 24
  30              		@ frame_needed = 1, uses_anonymous_args = 0
  31 0000 80B5     		push	{r7, lr}
  32              	.LCFI0:
  33              		.cfi_def_cfa_offset 8
  34              		.cfi_offset 7, -8
  35              		.cfi_offset 14, -4
  36 0002 86B0     		sub	sp, sp, #24
  37              	.LCFI1:
  38              		.cfi_def_cfa_offset 32
  39 0004 00AF     		add	r7, sp, #0
  40              	.LCFI2:
  41              		.cfi_def_cfa_register 7
  42 0006 7860     		str	r0, [r7, #4]
  43 0008 3960     		str	r1, [r7]
 171:Drivers/STM32F0xx_HAL_Driver/Src/stm32f0xx_hal_gpio.c ****   uint32_t position = 0x00u;
  44              		.loc 1 171 12
  45 000a 0023     		movs	r3, #0
  46 000c 7B61     		str	r3, [r7, #20]
 172:Drivers/STM32F0xx_HAL_Driver/Src/stm32f0xx_hal_gpio.c ****   uint32_t iocurrent;
 173:Drivers/STM32F0xx_HAL_Driver/Src/stm32f0xx_hal_gpio.c ****   uint32_t temp;
 174:Drivers/STM32F0xx_HAL_Driver/Src/stm32f0xx_hal_gpio.c **** 
 175:Drivers/STM32F0xx_HAL_Driver/Src/stm32f0xx_hal_gpio.c ****   /* Check the parameters */
 176:Drivers/STM32F0xx_HAL_Driver/Src/stm32f0xx_hal_gpio.c ****   assert_param(IS_GPIO_ALL_INSTANCE(GPIOx));
 177:Drivers/STM32F0xx_HAL_Driver/Src/stm32f0xx_hal_gpio.c ****   assert_param(IS_GPIO_PIN(GPIO_Init->Pin));
 178:Drivers/STM32F0xx_HAL_Driver/Src/stm32f0xx_hal_gpio.c ****   assert_param(IS_GPIO_MODE(GPIO_Init->Mode));
 179:Drivers/STM32F0xx_HAL_Driver/Src/stm32f0xx_hal_gpio.c **** 
 180:Drivers/STM32F0xx_HAL_Driver/Src/stm32f0xx_hal_gpio.c ****   /* Configure the port pins */
 181:Drivers/STM32F0xx_HAL_Driver/Src/stm32f0xx_hal_gpio.c ****   while (((GPIO_Init->Pin) >> position) != 0x00u)
  47              		.loc 1 181 9
  48 000e 49E1     		b	.L2
ARM GAS  C:\Users\mason\AppData\Local\Temp\ccu1VdX1.s 			page 5


  49              	.L18:
 182:Drivers/STM32F0xx_HAL_Driver/Src/stm32f0xx_hal_gpio.c ****   {
 183:Drivers/STM32F0xx_HAL_Driver/Src/stm32f0xx_hal_gpio.c ****     /* Get current io position */
 184:Drivers/STM32F0xx_HAL_Driver/Src/stm32f0xx_hal_gpio.c ****     iocurrent = (GPIO_Init->Pin) & (1uL << position);
  50              		.loc 1 184 27
  51 0010 3B68     		ldr	r3, [r7]
  52 0012 1B68     		ldr	r3, [r3]
  53              		.loc 1 184 41
  54 0014 0121     		movs	r1, #1
  55 0016 7A69     		ldr	r2, [r7, #20]
  56 0018 9140     		lsls	r1, r1, r2
  57 001a 0A00     		movs	r2, r1
  58              		.loc 1 184 15
  59 001c 1340     		ands	r3, r2
  60 001e FB60     		str	r3, [r7, #12]
 185:Drivers/STM32F0xx_HAL_Driver/Src/stm32f0xx_hal_gpio.c **** 
 186:Drivers/STM32F0xx_HAL_Driver/Src/stm32f0xx_hal_gpio.c ****     if (iocurrent != 0x00u)
  61              		.loc 1 186 8
  62 0020 FB68     		ldr	r3, [r7, #12]
  63 0022 002B     		cmp	r3, #0
  64 0024 00D1     		bne	.LCB33
  65 0026 3AE1     		b	.L3	@long jump
  66              	.LCB33:
 187:Drivers/STM32F0xx_HAL_Driver/Src/stm32f0xx_hal_gpio.c ****     {
 188:Drivers/STM32F0xx_HAL_Driver/Src/stm32f0xx_hal_gpio.c ****       /*--------------------- GPIO Mode Configuration ------------------------*/
 189:Drivers/STM32F0xx_HAL_Driver/Src/stm32f0xx_hal_gpio.c ****       /* In case of Output or Alternate function mode selection */
 190:Drivers/STM32F0xx_HAL_Driver/Src/stm32f0xx_hal_gpio.c ****       if(((GPIO_Init->Mode & GPIO_MODE) == MODE_OUTPUT) ||
  67              		.loc 1 190 21
  68 0028 3B68     		ldr	r3, [r7]
  69 002a 5B68     		ldr	r3, [r3, #4]
  70              		.loc 1 190 28
  71 002c 0322     		movs	r2, #3
  72 002e 1340     		ands	r3, r2
  73              		.loc 1 190 9
  74 0030 012B     		cmp	r3, #1
  75 0032 05D0     		beq	.L4
 191:Drivers/STM32F0xx_HAL_Driver/Src/stm32f0xx_hal_gpio.c ****          ((GPIO_Init->Mode & GPIO_MODE) == MODE_AF))
  76              		.loc 1 191 21 discriminator 1
  77 0034 3B68     		ldr	r3, [r7]
  78 0036 5B68     		ldr	r3, [r3, #4]
  79              		.loc 1 191 28 discriminator 1
  80 0038 0322     		movs	r2, #3
  81 003a 1340     		ands	r3, r2
 190:Drivers/STM32F0xx_HAL_Driver/Src/stm32f0xx_hal_gpio.c ****          ((GPIO_Init->Mode & GPIO_MODE) == MODE_AF))
  82              		.loc 1 190 57 discriminator 1
  83 003c 022B     		cmp	r3, #2
  84 003e 30D1     		bne	.L5
  85              	.L4:
 192:Drivers/STM32F0xx_HAL_Driver/Src/stm32f0xx_hal_gpio.c ****       {
 193:Drivers/STM32F0xx_HAL_Driver/Src/stm32f0xx_hal_gpio.c ****         /* Check the Speed parameter */
 194:Drivers/STM32F0xx_HAL_Driver/Src/stm32f0xx_hal_gpio.c ****         assert_param(IS_GPIO_SPEED(GPIO_Init->Speed));
 195:Drivers/STM32F0xx_HAL_Driver/Src/stm32f0xx_hal_gpio.c ****         /* Configure the IO Speed */
 196:Drivers/STM32F0xx_HAL_Driver/Src/stm32f0xx_hal_gpio.c ****         temp = GPIOx->OSPEEDR;
  86              		.loc 1 196 14
  87 0040 7B68     		ldr	r3, [r7, #4]
  88 0042 9B68     		ldr	r3, [r3, #8]
  89 0044 3B61     		str	r3, [r7, #16]
ARM GAS  C:\Users\mason\AppData\Local\Temp\ccu1VdX1.s 			page 6


 197:Drivers/STM32F0xx_HAL_Driver/Src/stm32f0xx_hal_gpio.c ****         temp &= ~(GPIO_OSPEEDER_OSPEEDR0 << (position * 2u));
  90              		.loc 1 197 55
  91 0046 7B69     		ldr	r3, [r7, #20]
  92 0048 5B00     		lsls	r3, r3, #1
  93              		.loc 1 197 42
  94 004a 0322     		movs	r2, #3
  95 004c 9A40     		lsls	r2, r2, r3
  96 004e 1300     		movs	r3, r2
  97              		.loc 1 197 17
  98 0050 DA43     		mvns	r2, r3
  99              		.loc 1 197 14
 100 0052 3B69     		ldr	r3, [r7, #16]
 101 0054 1340     		ands	r3, r2
 102 0056 3B61     		str	r3, [r7, #16]
 198:Drivers/STM32F0xx_HAL_Driver/Src/stm32f0xx_hal_gpio.c ****         temp |= (GPIO_Init->Speed << (position * 2u));
 103              		.loc 1 198 27
 104 0058 3B68     		ldr	r3, [r7]
 105 005a DA68     		ldr	r2, [r3, #12]
 106              		.loc 1 198 48
 107 005c 7B69     		ldr	r3, [r7, #20]
 108 005e 5B00     		lsls	r3, r3, #1
 109              		.loc 1 198 35
 110 0060 9A40     		lsls	r2, r2, r3
 111 0062 1300     		movs	r3, r2
 112              		.loc 1 198 14
 113 0064 3A69     		ldr	r2, [r7, #16]
 114 0066 1343     		orrs	r3, r2
 115 0068 3B61     		str	r3, [r7, #16]
 199:Drivers/STM32F0xx_HAL_Driver/Src/stm32f0xx_hal_gpio.c ****         GPIOx->OSPEEDR = temp;
 116              		.loc 1 199 24
 117 006a 7B68     		ldr	r3, [r7, #4]
 118 006c 3A69     		ldr	r2, [r7, #16]
 119 006e 9A60     		str	r2, [r3, #8]
 200:Drivers/STM32F0xx_HAL_Driver/Src/stm32f0xx_hal_gpio.c **** 
 201:Drivers/STM32F0xx_HAL_Driver/Src/stm32f0xx_hal_gpio.c ****         /* Configure the IO Output Type */
 202:Drivers/STM32F0xx_HAL_Driver/Src/stm32f0xx_hal_gpio.c ****         temp = GPIOx->OTYPER;
 120              		.loc 1 202 14
 121 0070 7B68     		ldr	r3, [r7, #4]
 122 0072 5B68     		ldr	r3, [r3, #4]
 123 0074 3B61     		str	r3, [r7, #16]
 203:Drivers/STM32F0xx_HAL_Driver/Src/stm32f0xx_hal_gpio.c ****         temp &= ~(GPIO_OTYPER_OT_0 << position) ;
 124              		.loc 1 203 36
 125 0076 0122     		movs	r2, #1
 126 0078 7B69     		ldr	r3, [r7, #20]
 127 007a 9A40     		lsls	r2, r2, r3
 128 007c 1300     		movs	r3, r2
 129              		.loc 1 203 17
 130 007e DA43     		mvns	r2, r3
 131              		.loc 1 203 14
 132 0080 3B69     		ldr	r3, [r7, #16]
 133 0082 1340     		ands	r3, r2
 134 0084 3B61     		str	r3, [r7, #16]
 204:Drivers/STM32F0xx_HAL_Driver/Src/stm32f0xx_hal_gpio.c ****         temp |= (((GPIO_Init->Mode & OUTPUT_TYPE) >> OUTPUT_TYPE_Pos) << position);
 135              		.loc 1 204 29
 136 0086 3B68     		ldr	r3, [r7]
 137 0088 5B68     		ldr	r3, [r3, #4]
 138              		.loc 1 204 51
ARM GAS  C:\Users\mason\AppData\Local\Temp\ccu1VdX1.s 			page 7


 139 008a 1B09     		lsrs	r3, r3, #4
 140 008c 0122     		movs	r2, #1
 141 008e 1A40     		ands	r2, r3
 142              		.loc 1 204 71
 143 0090 7B69     		ldr	r3, [r7, #20]
 144 0092 9A40     		lsls	r2, r2, r3
 145 0094 1300     		movs	r3, r2
 146              		.loc 1 204 14
 147 0096 3A69     		ldr	r2, [r7, #16]
 148 0098 1343     		orrs	r3, r2
 149 009a 3B61     		str	r3, [r7, #16]
 205:Drivers/STM32F0xx_HAL_Driver/Src/stm32f0xx_hal_gpio.c ****         GPIOx->OTYPER = temp;
 150              		.loc 1 205 23
 151 009c 7B68     		ldr	r3, [r7, #4]
 152 009e 3A69     		ldr	r2, [r7, #16]
 153 00a0 5A60     		str	r2, [r3, #4]
 154              	.L5:
 206:Drivers/STM32F0xx_HAL_Driver/Src/stm32f0xx_hal_gpio.c ****       }
 207:Drivers/STM32F0xx_HAL_Driver/Src/stm32f0xx_hal_gpio.c ****       
 208:Drivers/STM32F0xx_HAL_Driver/Src/stm32f0xx_hal_gpio.c ****       if((GPIO_Init->Mode & GPIO_MODE) != MODE_ANALOG)
 155              		.loc 1 208 20
 156 00a2 3B68     		ldr	r3, [r7]
 157 00a4 5B68     		ldr	r3, [r3, #4]
 158              		.loc 1 208 27
 159 00a6 0322     		movs	r2, #3
 160 00a8 1340     		ands	r3, r2
 161              		.loc 1 208 9
 162 00aa 032B     		cmp	r3, #3
 163 00ac 17D0     		beq	.L6
 209:Drivers/STM32F0xx_HAL_Driver/Src/stm32f0xx_hal_gpio.c ****       {
 210:Drivers/STM32F0xx_HAL_Driver/Src/stm32f0xx_hal_gpio.c ****         /* Check the Pull parameter */
 211:Drivers/STM32F0xx_HAL_Driver/Src/stm32f0xx_hal_gpio.c ****         assert_param(IS_GPIO_PULL(GPIO_Init->Pull));
 212:Drivers/STM32F0xx_HAL_Driver/Src/stm32f0xx_hal_gpio.c **** 
 213:Drivers/STM32F0xx_HAL_Driver/Src/stm32f0xx_hal_gpio.c ****         /* Activate the Pull-up or Pull down resistor for the current IO */
 214:Drivers/STM32F0xx_HAL_Driver/Src/stm32f0xx_hal_gpio.c ****         temp = GPIOx->PUPDR;
 164              		.loc 1 214 14
 165 00ae 7B68     		ldr	r3, [r7, #4]
 166 00b0 DB68     		ldr	r3, [r3, #12]
 167 00b2 3B61     		str	r3, [r7, #16]
 215:Drivers/STM32F0xx_HAL_Driver/Src/stm32f0xx_hal_gpio.c ****         temp &= ~(GPIO_PUPDR_PUPDR0 << (position * 2u));
 168              		.loc 1 215 50
 169 00b4 7B69     		ldr	r3, [r7, #20]
 170 00b6 5B00     		lsls	r3, r3, #1
 171              		.loc 1 215 37
 172 00b8 0322     		movs	r2, #3
 173 00ba 9A40     		lsls	r2, r2, r3
 174 00bc 1300     		movs	r3, r2
 175              		.loc 1 215 17
 176 00be DA43     		mvns	r2, r3
 177              		.loc 1 215 14
 178 00c0 3B69     		ldr	r3, [r7, #16]
 179 00c2 1340     		ands	r3, r2
 180 00c4 3B61     		str	r3, [r7, #16]
 216:Drivers/STM32F0xx_HAL_Driver/Src/stm32f0xx_hal_gpio.c ****         temp |= ((GPIO_Init->Pull) << (position * 2u));
 181              		.loc 1 216 28
 182 00c6 3B68     		ldr	r3, [r7]
 183 00c8 9A68     		ldr	r2, [r3, #8]
ARM GAS  C:\Users\mason\AppData\Local\Temp\ccu1VdX1.s 			page 8


 184              		.loc 1 216 49
 185 00ca 7B69     		ldr	r3, [r7, #20]
 186 00cc 5B00     		lsls	r3, r3, #1
 187              		.loc 1 216 36
 188 00ce 9A40     		lsls	r2, r2, r3
 189 00d0 1300     		movs	r3, r2
 190              		.loc 1 216 14
 191 00d2 3A69     		ldr	r2, [r7, #16]
 192 00d4 1343     		orrs	r3, r2
 193 00d6 3B61     		str	r3, [r7, #16]
 217:Drivers/STM32F0xx_HAL_Driver/Src/stm32f0xx_hal_gpio.c ****         GPIOx->PUPDR = temp;
 194              		.loc 1 217 22
 195 00d8 7B68     		ldr	r3, [r7, #4]
 196 00da 3A69     		ldr	r2, [r7, #16]
 197 00dc DA60     		str	r2, [r3, #12]
 198              	.L6:
 218:Drivers/STM32F0xx_HAL_Driver/Src/stm32f0xx_hal_gpio.c ****       }
 219:Drivers/STM32F0xx_HAL_Driver/Src/stm32f0xx_hal_gpio.c **** 
 220:Drivers/STM32F0xx_HAL_Driver/Src/stm32f0xx_hal_gpio.c ****       /* In case of Alternate function mode selection */
 221:Drivers/STM32F0xx_HAL_Driver/Src/stm32f0xx_hal_gpio.c ****       if((GPIO_Init->Mode & GPIO_MODE) == MODE_AF)
 199              		.loc 1 221 20
 200 00de 3B68     		ldr	r3, [r7]
 201 00e0 5B68     		ldr	r3, [r3, #4]
 202              		.loc 1 221 27
 203 00e2 0322     		movs	r2, #3
 204 00e4 1340     		ands	r3, r2
 205              		.loc 1 221 9
 206 00e6 022B     		cmp	r3, #2
 207 00e8 23D1     		bne	.L7
 222:Drivers/STM32F0xx_HAL_Driver/Src/stm32f0xx_hal_gpio.c ****       {
 223:Drivers/STM32F0xx_HAL_Driver/Src/stm32f0xx_hal_gpio.c ****         /* Check the Alternate function parameters */
 224:Drivers/STM32F0xx_HAL_Driver/Src/stm32f0xx_hal_gpio.c ****         assert_param(IS_GPIO_AF_INSTANCE(GPIOx));
 225:Drivers/STM32F0xx_HAL_Driver/Src/stm32f0xx_hal_gpio.c ****         assert_param(IS_GPIO_AF(GPIO_Init->Alternate));
 226:Drivers/STM32F0xx_HAL_Driver/Src/stm32f0xx_hal_gpio.c **** 
 227:Drivers/STM32F0xx_HAL_Driver/Src/stm32f0xx_hal_gpio.c ****         /* Configure Alternate function mapped with the current IO */
 228:Drivers/STM32F0xx_HAL_Driver/Src/stm32f0xx_hal_gpio.c ****         temp = GPIOx->AFR[position >> 3u];
 208              		.loc 1 228 36
 209 00ea 7B69     		ldr	r3, [r7, #20]
 210 00ec DA08     		lsrs	r2, r3, #3
 211              		.loc 1 228 14
 212 00ee 7B68     		ldr	r3, [r7, #4]
 213 00f0 0832     		adds	r2, r2, #8
 214 00f2 9200     		lsls	r2, r2, #2
 215 00f4 D358     		ldr	r3, [r2, r3]
 216 00f6 3B61     		str	r3, [r7, #16]
 229:Drivers/STM32F0xx_HAL_Driver/Src/stm32f0xx_hal_gpio.c ****         temp &= ~(0xFu << ((position & 0x07u) * 4u));
 217              		.loc 1 229 38
 218 00f8 7B69     		ldr	r3, [r7, #20]
 219 00fa 0722     		movs	r2, #7
 220 00fc 1340     		ands	r3, r2
 221              		.loc 1 229 47
 222 00fe 9B00     		lsls	r3, r3, #2
 223              		.loc 1 229 24
 224 0100 0F22     		movs	r2, #15
 225 0102 9A40     		lsls	r2, r2, r3
 226 0104 1300     		movs	r3, r2
 227              		.loc 1 229 17
ARM GAS  C:\Users\mason\AppData\Local\Temp\ccu1VdX1.s 			page 9


 228 0106 DA43     		mvns	r2, r3
 229              		.loc 1 229 14
 230 0108 3B69     		ldr	r3, [r7, #16]
 231 010a 1340     		ands	r3, r2
 232 010c 3B61     		str	r3, [r7, #16]
 230:Drivers/STM32F0xx_HAL_Driver/Src/stm32f0xx_hal_gpio.c ****         temp |= ((GPIO_Init->Alternate) << ((position & 0x07u) * 4u));
 233              		.loc 1 230 28
 234 010e 3B68     		ldr	r3, [r7]
 235 0110 1A69     		ldr	r2, [r3, #16]
 236              		.loc 1 230 55
 237 0112 7B69     		ldr	r3, [r7, #20]
 238 0114 0721     		movs	r1, #7
 239 0116 0B40     		ands	r3, r1
 240              		.loc 1 230 64
 241 0118 9B00     		lsls	r3, r3, #2
 242              		.loc 1 230 41
 243 011a 9A40     		lsls	r2, r2, r3
 244 011c 1300     		movs	r3, r2
 245              		.loc 1 230 14
 246 011e 3A69     		ldr	r2, [r7, #16]
 247 0120 1343     		orrs	r3, r2
 248 0122 3B61     		str	r3, [r7, #16]
 231:Drivers/STM32F0xx_HAL_Driver/Src/stm32f0xx_hal_gpio.c ****         GPIOx->AFR[position >> 3u] = temp;
 249              		.loc 1 231 29
 250 0124 7B69     		ldr	r3, [r7, #20]
 251 0126 DA08     		lsrs	r2, r3, #3
 252              		.loc 1 231 36
 253 0128 7B68     		ldr	r3, [r7, #4]
 254 012a 0832     		adds	r2, r2, #8
 255 012c 9200     		lsls	r2, r2, #2
 256 012e 3969     		ldr	r1, [r7, #16]
 257 0130 D150     		str	r1, [r2, r3]
 258              	.L7:
 232:Drivers/STM32F0xx_HAL_Driver/Src/stm32f0xx_hal_gpio.c ****       }
 233:Drivers/STM32F0xx_HAL_Driver/Src/stm32f0xx_hal_gpio.c **** 
 234:Drivers/STM32F0xx_HAL_Driver/Src/stm32f0xx_hal_gpio.c ****       /* Configure IO Direction mode (Input, Output, Alternate or Analog) */
 235:Drivers/STM32F0xx_HAL_Driver/Src/stm32f0xx_hal_gpio.c ****       temp = GPIOx->MODER;
 259              		.loc 1 235 12
 260 0132 7B68     		ldr	r3, [r7, #4]
 261 0134 1B68     		ldr	r3, [r3]
 262 0136 3B61     		str	r3, [r7, #16]
 236:Drivers/STM32F0xx_HAL_Driver/Src/stm32f0xx_hal_gpio.c ****       temp &= ~(GPIO_MODER_MODER0 << (position * 2u));
 263              		.loc 1 236 48
 264 0138 7B69     		ldr	r3, [r7, #20]
 265 013a 5B00     		lsls	r3, r3, #1
 266              		.loc 1 236 35
 267 013c 0322     		movs	r2, #3
 268 013e 9A40     		lsls	r2, r2, r3
 269 0140 1300     		movs	r3, r2
 270              		.loc 1 236 15
 271 0142 DA43     		mvns	r2, r3
 272              		.loc 1 236 12
 273 0144 3B69     		ldr	r3, [r7, #16]
 274 0146 1340     		ands	r3, r2
 275 0148 3B61     		str	r3, [r7, #16]
 237:Drivers/STM32F0xx_HAL_Driver/Src/stm32f0xx_hal_gpio.c ****       temp |= ((GPIO_Init->Mode & GPIO_MODE) << (position * 2u));
 276              		.loc 1 237 26
ARM GAS  C:\Users\mason\AppData\Local\Temp\ccu1VdX1.s 			page 10


 277 014a 3B68     		ldr	r3, [r7]
 278 014c 5B68     		ldr	r3, [r3, #4]
 279              		.loc 1 237 33
 280 014e 0322     		movs	r2, #3
 281 0150 1A40     		ands	r2, r3
 282              		.loc 1 237 59
 283 0152 7B69     		ldr	r3, [r7, #20]
 284 0154 5B00     		lsls	r3, r3, #1
 285              		.loc 1 237 46
 286 0156 9A40     		lsls	r2, r2, r3
 287 0158 1300     		movs	r3, r2
 288              		.loc 1 237 12
 289 015a 3A69     		ldr	r2, [r7, #16]
 290 015c 1343     		orrs	r3, r2
 291 015e 3B61     		str	r3, [r7, #16]
 238:Drivers/STM32F0xx_HAL_Driver/Src/stm32f0xx_hal_gpio.c ****       GPIOx->MODER = temp;
 292              		.loc 1 238 20
 293 0160 7B68     		ldr	r3, [r7, #4]
 294 0162 3A69     		ldr	r2, [r7, #16]
 295 0164 1A60     		str	r2, [r3]
 239:Drivers/STM32F0xx_HAL_Driver/Src/stm32f0xx_hal_gpio.c **** 
 240:Drivers/STM32F0xx_HAL_Driver/Src/stm32f0xx_hal_gpio.c ****       /*--------------------- EXTI Mode Configuration ------------------------*/
 241:Drivers/STM32F0xx_HAL_Driver/Src/stm32f0xx_hal_gpio.c ****       /* Configure the External Interrupt or event for the current IO */
 242:Drivers/STM32F0xx_HAL_Driver/Src/stm32f0xx_hal_gpio.c ****       if((GPIO_Init->Mode & EXTI_MODE) != 0x00u)
 296              		.loc 1 242 20
 297 0166 3B68     		ldr	r3, [r7]
 298 0168 5A68     		ldr	r2, [r3, #4]
 299              		.loc 1 242 27
 300 016a C023     		movs	r3, #192
 301 016c 9B02     		lsls	r3, r3, #10
 302 016e 1340     		ands	r3, r2
 303              		.loc 1 242 9
 304 0170 00D1     		bne	.LCB206
 305 0172 94E0     		b	.L3	@long jump
 306              	.LCB206:
 307              	.LBB2:
 243:Drivers/STM32F0xx_HAL_Driver/Src/stm32f0xx_hal_gpio.c ****       {
 244:Drivers/STM32F0xx_HAL_Driver/Src/stm32f0xx_hal_gpio.c ****         /* Enable SYSCFG Clock */
 245:Drivers/STM32F0xx_HAL_Driver/Src/stm32f0xx_hal_gpio.c ****         __HAL_RCC_SYSCFG_CLK_ENABLE();
 308              		.loc 1 245 9
 309 0174 514B     		ldr	r3, .L19
 310 0176 9A69     		ldr	r2, [r3, #24]
 311 0178 504B     		ldr	r3, .L19
 312 017a 0121     		movs	r1, #1
 313 017c 0A43     		orrs	r2, r1
 314 017e 9A61     		str	r2, [r3, #24]
 315 0180 4E4B     		ldr	r3, .L19
 316 0182 9B69     		ldr	r3, [r3, #24]
 317 0184 0122     		movs	r2, #1
 318 0186 1340     		ands	r3, r2
 319 0188 BB60     		str	r3, [r7, #8]
 320 018a BB68     		ldr	r3, [r7, #8]
 321              	.LBE2:
 246:Drivers/STM32F0xx_HAL_Driver/Src/stm32f0xx_hal_gpio.c **** 
 247:Drivers/STM32F0xx_HAL_Driver/Src/stm32f0xx_hal_gpio.c ****         temp = SYSCFG->EXTICR[position >> 2u];
 322              		.loc 1 247 22
 323 018c 4C4A     		ldr	r2, .L19+4
ARM GAS  C:\Users\mason\AppData\Local\Temp\ccu1VdX1.s 			page 11


 324              		.loc 1 247 40
 325 018e 7B69     		ldr	r3, [r7, #20]
 326 0190 9B08     		lsrs	r3, r3, #2
 327              		.loc 1 247 14
 328 0192 0233     		adds	r3, r3, #2
 329 0194 9B00     		lsls	r3, r3, #2
 330 0196 9B58     		ldr	r3, [r3, r2]
 331 0198 3B61     		str	r3, [r7, #16]
 248:Drivers/STM32F0xx_HAL_Driver/Src/stm32f0xx_hal_gpio.c ****         temp &= ~(0x0FuL << (4u * (position & 0x03u)));
 332              		.loc 1 248 45
 333 019a 7B69     		ldr	r3, [r7, #20]
 334 019c 0322     		movs	r2, #3
 335 019e 1340     		ands	r3, r2
 336              		.loc 1 248 33
 337 01a0 9B00     		lsls	r3, r3, #2
 338              		.loc 1 248 26
 339 01a2 0F22     		movs	r2, #15
 340 01a4 9A40     		lsls	r2, r2, r3
 341 01a6 1300     		movs	r3, r2
 342              		.loc 1 248 17
 343 01a8 DA43     		mvns	r2, r3
 344              		.loc 1 248 14
 345 01aa 3B69     		ldr	r3, [r7, #16]
 346 01ac 1340     		ands	r3, r2
 347 01ae 3B61     		str	r3, [r7, #16]
 249:Drivers/STM32F0xx_HAL_Driver/Src/stm32f0xx_hal_gpio.c ****         temp |= (GPIO_GET_INDEX(GPIOx) << (4u * (position & 0x03u)));
 348              		.loc 1 249 18
 349 01b0 7A68     		ldr	r2, [r7, #4]
 350 01b2 9023     		movs	r3, #144
 351 01b4 DB05     		lsls	r3, r3, #23
 352 01b6 9A42     		cmp	r2, r3
 353 01b8 0DD0     		beq	.L8
 354              		.loc 1 249 18 is_stmt 0 discriminator 1
 355 01ba 7B68     		ldr	r3, [r7, #4]
 356 01bc 414A     		ldr	r2, .L19+8
 357 01be 9342     		cmp	r3, r2
 358 01c0 07D0     		beq	.L9
 359              		.loc 1 249 18 discriminator 3
 360 01c2 7B68     		ldr	r3, [r7, #4]
 361 01c4 404A     		ldr	r2, .L19+12
 362 01c6 9342     		cmp	r3, r2
 363 01c8 01D1     		bne	.L10
 364              		.loc 1 249 18 discriminator 5
 365 01ca 0223     		movs	r3, #2
 366 01cc 04E0     		b	.L13
 367              	.L10:
 368              		.loc 1 249 18 discriminator 6
 369 01ce 0523     		movs	r3, #5
 370 01d0 02E0     		b	.L13
 371              	.L9:
 372              		.loc 1 249 18 discriminator 4
 373 01d2 0123     		movs	r3, #1
 374 01d4 00E0     		b	.L13
 375              	.L8:
 376              		.loc 1 249 18 discriminator 2
 377 01d6 0023     		movs	r3, #0
 378              	.L13:
ARM GAS  C:\Users\mason\AppData\Local\Temp\ccu1VdX1.s 			page 12


 379              		.loc 1 249 59 is_stmt 1 discriminator 12
 380 01d8 7A69     		ldr	r2, [r7, #20]
 381 01da 0321     		movs	r1, #3
 382 01dc 0A40     		ands	r2, r1
 383              		.loc 1 249 47 discriminator 12
 384 01de 9200     		lsls	r2, r2, #2
 385              		.loc 1 249 40 discriminator 12
 386 01e0 9340     		lsls	r3, r3, r2
 387              		.loc 1 249 14 discriminator 12
 388 01e2 3A69     		ldr	r2, [r7, #16]
 389 01e4 1343     		orrs	r3, r2
 390 01e6 3B61     		str	r3, [r7, #16]
 250:Drivers/STM32F0xx_HAL_Driver/Src/stm32f0xx_hal_gpio.c ****         SYSCFG->EXTICR[position >> 2u] = temp;
 391              		.loc 1 250 15 discriminator 12
 392 01e8 3549     		ldr	r1, .L19+4
 393              		.loc 1 250 33 discriminator 12
 394 01ea 7B69     		ldr	r3, [r7, #20]
 395 01ec 9B08     		lsrs	r3, r3, #2
 396              		.loc 1 250 40 discriminator 12
 397 01ee 0233     		adds	r3, r3, #2
 398 01f0 9B00     		lsls	r3, r3, #2
 399 01f2 3A69     		ldr	r2, [r7, #16]
 400 01f4 5A50     		str	r2, [r3, r1]
 251:Drivers/STM32F0xx_HAL_Driver/Src/stm32f0xx_hal_gpio.c **** 
 252:Drivers/STM32F0xx_HAL_Driver/Src/stm32f0xx_hal_gpio.c ****         /* Clear Rising Falling edge configuration */
 253:Drivers/STM32F0xx_HAL_Driver/Src/stm32f0xx_hal_gpio.c ****         temp = EXTI->RTSR;
 401              		.loc 1 253 20 discriminator 12
 402 01f6 354B     		ldr	r3, .L19+16
 403              		.loc 1 253 14 discriminator 12
 404 01f8 9B68     		ldr	r3, [r3, #8]
 405 01fa 3B61     		str	r3, [r7, #16]
 254:Drivers/STM32F0xx_HAL_Driver/Src/stm32f0xx_hal_gpio.c ****         temp &= ~(iocurrent);
 406              		.loc 1 254 17 discriminator 12
 407 01fc FB68     		ldr	r3, [r7, #12]
 408 01fe DA43     		mvns	r2, r3
 409              		.loc 1 254 14 discriminator 12
 410 0200 3B69     		ldr	r3, [r7, #16]
 411 0202 1340     		ands	r3, r2
 412 0204 3B61     		str	r3, [r7, #16]
 255:Drivers/STM32F0xx_HAL_Driver/Src/stm32f0xx_hal_gpio.c ****         if((GPIO_Init->Mode & TRIGGER_RISING) != 0x00u)
 413              		.loc 1 255 22 discriminator 12
 414 0206 3B68     		ldr	r3, [r7]
 415 0208 5A68     		ldr	r2, [r3, #4]
 416              		.loc 1 255 29 discriminator 12
 417 020a 8023     		movs	r3, #128
 418 020c 5B03     		lsls	r3, r3, #13
 419 020e 1340     		ands	r3, r2
 420              		.loc 1 255 11 discriminator 12
 421 0210 03D0     		beq	.L14
 256:Drivers/STM32F0xx_HAL_Driver/Src/stm32f0xx_hal_gpio.c ****         {
 257:Drivers/STM32F0xx_HAL_Driver/Src/stm32f0xx_hal_gpio.c ****           temp |= iocurrent;
 422              		.loc 1 257 16
 423 0212 3A69     		ldr	r2, [r7, #16]
 424 0214 FB68     		ldr	r3, [r7, #12]
 425 0216 1343     		orrs	r3, r2
 426 0218 3B61     		str	r3, [r7, #16]
 427              	.L14:
ARM GAS  C:\Users\mason\AppData\Local\Temp\ccu1VdX1.s 			page 13


 258:Drivers/STM32F0xx_HAL_Driver/Src/stm32f0xx_hal_gpio.c ****         }
 259:Drivers/STM32F0xx_HAL_Driver/Src/stm32f0xx_hal_gpio.c ****         EXTI->RTSR = temp;
 428              		.loc 1 259 13
 429 021a 2C4B     		ldr	r3, .L19+16
 430              		.loc 1 259 20
 431 021c 3A69     		ldr	r2, [r7, #16]
 432 021e 9A60     		str	r2, [r3, #8]
 260:Drivers/STM32F0xx_HAL_Driver/Src/stm32f0xx_hal_gpio.c **** 
 261:Drivers/STM32F0xx_HAL_Driver/Src/stm32f0xx_hal_gpio.c ****         temp = EXTI->FTSR;
 433              		.loc 1 261 20
 434 0220 2A4B     		ldr	r3, .L19+16
 435              		.loc 1 261 14
 436 0222 DB68     		ldr	r3, [r3, #12]
 437 0224 3B61     		str	r3, [r7, #16]
 262:Drivers/STM32F0xx_HAL_Driver/Src/stm32f0xx_hal_gpio.c ****         temp &= ~(iocurrent);
 438              		.loc 1 262 17
 439 0226 FB68     		ldr	r3, [r7, #12]
 440 0228 DA43     		mvns	r2, r3
 441              		.loc 1 262 14
 442 022a 3B69     		ldr	r3, [r7, #16]
 443 022c 1340     		ands	r3, r2
 444 022e 3B61     		str	r3, [r7, #16]
 263:Drivers/STM32F0xx_HAL_Driver/Src/stm32f0xx_hal_gpio.c ****         if((GPIO_Init->Mode & TRIGGER_FALLING) != 0x00u)
 445              		.loc 1 263 22
 446 0230 3B68     		ldr	r3, [r7]
 447 0232 5A68     		ldr	r2, [r3, #4]
 448              		.loc 1 263 29
 449 0234 8023     		movs	r3, #128
 450 0236 9B03     		lsls	r3, r3, #14
 451 0238 1340     		ands	r3, r2
 452              		.loc 1 263 11
 453 023a 03D0     		beq	.L15
 264:Drivers/STM32F0xx_HAL_Driver/Src/stm32f0xx_hal_gpio.c ****         {
 265:Drivers/STM32F0xx_HAL_Driver/Src/stm32f0xx_hal_gpio.c ****           temp |= iocurrent;
 454              		.loc 1 265 16
 455 023c 3A69     		ldr	r2, [r7, #16]
 456 023e FB68     		ldr	r3, [r7, #12]
 457 0240 1343     		orrs	r3, r2
 458 0242 3B61     		str	r3, [r7, #16]
 459              	.L15:
 266:Drivers/STM32F0xx_HAL_Driver/Src/stm32f0xx_hal_gpio.c ****         }
 267:Drivers/STM32F0xx_HAL_Driver/Src/stm32f0xx_hal_gpio.c ****         EXTI->FTSR = temp;
 460              		.loc 1 267 13
 461 0244 214B     		ldr	r3, .L19+16
 462              		.loc 1 267 20
 463 0246 3A69     		ldr	r2, [r7, #16]
 464 0248 DA60     		str	r2, [r3, #12]
 268:Drivers/STM32F0xx_HAL_Driver/Src/stm32f0xx_hal_gpio.c **** 
 269:Drivers/STM32F0xx_HAL_Driver/Src/stm32f0xx_hal_gpio.c ****         /* Clear EXTI line configuration */
 270:Drivers/STM32F0xx_HAL_Driver/Src/stm32f0xx_hal_gpio.c ****         temp = EXTI->EMR;
 465              		.loc 1 270 20
 466 024a 204B     		ldr	r3, .L19+16
 467              		.loc 1 270 14
 468 024c 5B68     		ldr	r3, [r3, #4]
 469 024e 3B61     		str	r3, [r7, #16]
 271:Drivers/STM32F0xx_HAL_Driver/Src/stm32f0xx_hal_gpio.c ****         temp &= ~(iocurrent);
 470              		.loc 1 271 17
ARM GAS  C:\Users\mason\AppData\Local\Temp\ccu1VdX1.s 			page 14


 471 0250 FB68     		ldr	r3, [r7, #12]
 472 0252 DA43     		mvns	r2, r3
 473              		.loc 1 271 14
 474 0254 3B69     		ldr	r3, [r7, #16]
 475 0256 1340     		ands	r3, r2
 476 0258 3B61     		str	r3, [r7, #16]
 272:Drivers/STM32F0xx_HAL_Driver/Src/stm32f0xx_hal_gpio.c ****         if((GPIO_Init->Mode & EXTI_EVT) != 0x00u)
 477              		.loc 1 272 22
 478 025a 3B68     		ldr	r3, [r7]
 479 025c 5A68     		ldr	r2, [r3, #4]
 480              		.loc 1 272 29
 481 025e 8023     		movs	r3, #128
 482 0260 9B02     		lsls	r3, r3, #10
 483 0262 1340     		ands	r3, r2
 484              		.loc 1 272 11
 485 0264 03D0     		beq	.L16
 273:Drivers/STM32F0xx_HAL_Driver/Src/stm32f0xx_hal_gpio.c ****         {
 274:Drivers/STM32F0xx_HAL_Driver/Src/stm32f0xx_hal_gpio.c ****           temp |= iocurrent;
 486              		.loc 1 274 16
 487 0266 3A69     		ldr	r2, [r7, #16]
 488 0268 FB68     		ldr	r3, [r7, #12]
 489 026a 1343     		orrs	r3, r2
 490 026c 3B61     		str	r3, [r7, #16]
 491              	.L16:
 275:Drivers/STM32F0xx_HAL_Driver/Src/stm32f0xx_hal_gpio.c ****         }
 276:Drivers/STM32F0xx_HAL_Driver/Src/stm32f0xx_hal_gpio.c ****         EXTI->EMR = temp;
 492              		.loc 1 276 13
 493 026e 174B     		ldr	r3, .L19+16
 494              		.loc 1 276 19
 495 0270 3A69     		ldr	r2, [r7, #16]
 496 0272 5A60     		str	r2, [r3, #4]
 277:Drivers/STM32F0xx_HAL_Driver/Src/stm32f0xx_hal_gpio.c **** 
 278:Drivers/STM32F0xx_HAL_Driver/Src/stm32f0xx_hal_gpio.c ****         temp = EXTI->IMR;
 497              		.loc 1 278 20
 498 0274 154B     		ldr	r3, .L19+16
 499              		.loc 1 278 14
 500 0276 1B68     		ldr	r3, [r3]
 501 0278 3B61     		str	r3, [r7, #16]
 279:Drivers/STM32F0xx_HAL_Driver/Src/stm32f0xx_hal_gpio.c ****         temp &= ~(iocurrent);
 502              		.loc 1 279 17
 503 027a FB68     		ldr	r3, [r7, #12]
 504 027c DA43     		mvns	r2, r3
 505              		.loc 1 279 14
 506 027e 3B69     		ldr	r3, [r7, #16]
 507 0280 1340     		ands	r3, r2
 508 0282 3B61     		str	r3, [r7, #16]
 280:Drivers/STM32F0xx_HAL_Driver/Src/stm32f0xx_hal_gpio.c ****         if((GPIO_Init->Mode & EXTI_IT) != 0x00u)
 509              		.loc 1 280 22
 510 0284 3B68     		ldr	r3, [r7]
 511 0286 5A68     		ldr	r2, [r3, #4]
 512              		.loc 1 280 29
 513 0288 8023     		movs	r3, #128
 514 028a 5B02     		lsls	r3, r3, #9
 515 028c 1340     		ands	r3, r2
 516              		.loc 1 280 11
 517 028e 03D0     		beq	.L17
 281:Drivers/STM32F0xx_HAL_Driver/Src/stm32f0xx_hal_gpio.c ****         {
ARM GAS  C:\Users\mason\AppData\Local\Temp\ccu1VdX1.s 			page 15


 282:Drivers/STM32F0xx_HAL_Driver/Src/stm32f0xx_hal_gpio.c ****           temp |= iocurrent;
 518              		.loc 1 282 16
 519 0290 3A69     		ldr	r2, [r7, #16]
 520 0292 FB68     		ldr	r3, [r7, #12]
 521 0294 1343     		orrs	r3, r2
 522 0296 3B61     		str	r3, [r7, #16]
 523              	.L17:
 283:Drivers/STM32F0xx_HAL_Driver/Src/stm32f0xx_hal_gpio.c ****         }
 284:Drivers/STM32F0xx_HAL_Driver/Src/stm32f0xx_hal_gpio.c ****         EXTI->IMR = temp;
 524              		.loc 1 284 13
 525 0298 0C4B     		ldr	r3, .L19+16
 526              		.loc 1 284 19
 527 029a 3A69     		ldr	r2, [r7, #16]
 528 029c 1A60     		str	r2, [r3]
 529              	.L3:
 285:Drivers/STM32F0xx_HAL_Driver/Src/stm32f0xx_hal_gpio.c ****       }
 286:Drivers/STM32F0xx_HAL_Driver/Src/stm32f0xx_hal_gpio.c ****     }
 287:Drivers/STM32F0xx_HAL_Driver/Src/stm32f0xx_hal_gpio.c **** 
 288:Drivers/STM32F0xx_HAL_Driver/Src/stm32f0xx_hal_gpio.c ****     position++;
 530              		.loc 1 288 13
 531 029e 7B69     		ldr	r3, [r7, #20]
 532 02a0 0133     		adds	r3, r3, #1
 533 02a2 7B61     		str	r3, [r7, #20]
 534              	.L2:
 181:Drivers/STM32F0xx_HAL_Driver/Src/stm32f0xx_hal_gpio.c ****   {
 535              		.loc 1 181 21
 536 02a4 3B68     		ldr	r3, [r7]
 537 02a6 1A68     		ldr	r2, [r3]
 181:Drivers/STM32F0xx_HAL_Driver/Src/stm32f0xx_hal_gpio.c ****   {
 538              		.loc 1 181 28
 539 02a8 7B69     		ldr	r3, [r7, #20]
 540 02aa DA40     		lsrs	r2, r2, r3
 541 02ac 131E     		subs	r3, r2, #0
 181:Drivers/STM32F0xx_HAL_Driver/Src/stm32f0xx_hal_gpio.c ****   {
 542              		.loc 1 181 9
 543 02ae 00D0     		beq	.LCB394
 544 02b0 AEE6     		b	.L18	@long jump
 545              	.LCB394:
 289:Drivers/STM32F0xx_HAL_Driver/Src/stm32f0xx_hal_gpio.c ****   } 
 290:Drivers/STM32F0xx_HAL_Driver/Src/stm32f0xx_hal_gpio.c **** }
 546              		.loc 1 290 1
 547 02b2 C046     		nop
 548 02b4 C046     		nop
 549 02b6 BD46     		mov	sp, r7
 550 02b8 06B0     		add	sp, sp, #24
 551              		@ sp needed
 552 02ba 80BD     		pop	{r7, pc}
 553              	.L20:
 554              		.align	2
 555              	.L19:
 556 02bc 00100240 		.word	1073876992
 557 02c0 00000140 		.word	1073807360
 558 02c4 00040048 		.word	1207960576
 559 02c8 00080048 		.word	1207961600
 560 02cc 00040140 		.word	1073808384
 561              		.cfi_endproc
 562              	.LFE40:
ARM GAS  C:\Users\mason\AppData\Local\Temp\ccu1VdX1.s 			page 16


 564              		.section	.text.HAL_GPIO_DeInit,"ax",%progbits
 565              		.align	1
 566              		.global	HAL_GPIO_DeInit
 567              		.syntax unified
 568              		.code	16
 569              		.thumb_func
 571              	HAL_GPIO_DeInit:
 572              	.LFB41:
 291:Drivers/STM32F0xx_HAL_Driver/Src/stm32f0xx_hal_gpio.c **** 
 292:Drivers/STM32F0xx_HAL_Driver/Src/stm32f0xx_hal_gpio.c **** /**
 293:Drivers/STM32F0xx_HAL_Driver/Src/stm32f0xx_hal_gpio.c ****   * @brief  De-initialize the GPIOx peripheral registers to their default reset values.
 294:Drivers/STM32F0xx_HAL_Driver/Src/stm32f0xx_hal_gpio.c ****   * @param  GPIOx where x can be (A..F) to select the GPIO peripheral for STM32F0 family
 295:Drivers/STM32F0xx_HAL_Driver/Src/stm32f0xx_hal_gpio.c ****   * @param  GPIO_Pin specifies the port bit to be written.
 296:Drivers/STM32F0xx_HAL_Driver/Src/stm32f0xx_hal_gpio.c ****   *         This parameter can be one of GPIO_PIN_x where x can be (0..15).
 297:Drivers/STM32F0xx_HAL_Driver/Src/stm32f0xx_hal_gpio.c ****   * @retval None
 298:Drivers/STM32F0xx_HAL_Driver/Src/stm32f0xx_hal_gpio.c ****   */
 299:Drivers/STM32F0xx_HAL_Driver/Src/stm32f0xx_hal_gpio.c **** void HAL_GPIO_DeInit(GPIO_TypeDef  *GPIOx, uint32_t GPIO_Pin)
 300:Drivers/STM32F0xx_HAL_Driver/Src/stm32f0xx_hal_gpio.c **** {
 573              		.loc 1 300 1
 574              		.cfi_startproc
 575              		@ args = 0, pretend = 0, frame = 24
 576              		@ frame_needed = 1, uses_anonymous_args = 0
 577 0000 80B5     		push	{r7, lr}
 578              	.LCFI3:
 579              		.cfi_def_cfa_offset 8
 580              		.cfi_offset 7, -8
 581              		.cfi_offset 14, -4
 582 0002 86B0     		sub	sp, sp, #24
 583              	.LCFI4:
 584              		.cfi_def_cfa_offset 32
 585 0004 00AF     		add	r7, sp, #0
 586              	.LCFI5:
 587              		.cfi_def_cfa_register 7
 588 0006 7860     		str	r0, [r7, #4]
 589 0008 3960     		str	r1, [r7]
 301:Drivers/STM32F0xx_HAL_Driver/Src/stm32f0xx_hal_gpio.c ****   uint32_t position = 0x00u;
 590              		.loc 1 301 12
 591 000a 0023     		movs	r3, #0
 592 000c 7B61     		str	r3, [r7, #20]
 302:Drivers/STM32F0xx_HAL_Driver/Src/stm32f0xx_hal_gpio.c ****   uint32_t iocurrent;
 303:Drivers/STM32F0xx_HAL_Driver/Src/stm32f0xx_hal_gpio.c ****   uint32_t tmp;
 304:Drivers/STM32F0xx_HAL_Driver/Src/stm32f0xx_hal_gpio.c **** 
 305:Drivers/STM32F0xx_HAL_Driver/Src/stm32f0xx_hal_gpio.c ****   /* Check the parameters */
 306:Drivers/STM32F0xx_HAL_Driver/Src/stm32f0xx_hal_gpio.c ****   assert_param(IS_GPIO_ALL_INSTANCE(GPIOx));
 307:Drivers/STM32F0xx_HAL_Driver/Src/stm32f0xx_hal_gpio.c ****   assert_param(IS_GPIO_PIN(GPIO_Pin));
 308:Drivers/STM32F0xx_HAL_Driver/Src/stm32f0xx_hal_gpio.c **** 
 309:Drivers/STM32F0xx_HAL_Driver/Src/stm32f0xx_hal_gpio.c ****   /* Configure the port pins */
 310:Drivers/STM32F0xx_HAL_Driver/Src/stm32f0xx_hal_gpio.c ****   while ((GPIO_Pin >> position) != 0x00u)
 593              		.loc 1 310 9
 594 000e ABE0     		b	.L22
 595              	.L31:
 311:Drivers/STM32F0xx_HAL_Driver/Src/stm32f0xx_hal_gpio.c ****   {
 312:Drivers/STM32F0xx_HAL_Driver/Src/stm32f0xx_hal_gpio.c ****     /* Get current io position */
 313:Drivers/STM32F0xx_HAL_Driver/Src/stm32f0xx_hal_gpio.c ****     iocurrent = (GPIO_Pin) & (1uL << position);
 596              		.loc 1 313 35
 597 0010 0122     		movs	r2, #1
 598 0012 7B69     		ldr	r3, [r7, #20]
ARM GAS  C:\Users\mason\AppData\Local\Temp\ccu1VdX1.s 			page 17


 599 0014 9A40     		lsls	r2, r2, r3
 600              		.loc 1 313 15
 601 0016 3B68     		ldr	r3, [r7]
 602 0018 1340     		ands	r3, r2
 603 001a 3B61     		str	r3, [r7, #16]
 314:Drivers/STM32F0xx_HAL_Driver/Src/stm32f0xx_hal_gpio.c **** 
 315:Drivers/STM32F0xx_HAL_Driver/Src/stm32f0xx_hal_gpio.c ****     if (iocurrent != 0x00u)
 604              		.loc 1 315 8
 605 001c 3B69     		ldr	r3, [r7, #16]
 606 001e 002B     		cmp	r3, #0
 607 0020 00D1     		bne	.LCB448
 608 0022 9EE0     		b	.L23	@long jump
 609              	.LCB448:
 316:Drivers/STM32F0xx_HAL_Driver/Src/stm32f0xx_hal_gpio.c ****     {
 317:Drivers/STM32F0xx_HAL_Driver/Src/stm32f0xx_hal_gpio.c ****       /*------------------------- EXTI Mode Configuration --------------------*/
 318:Drivers/STM32F0xx_HAL_Driver/Src/stm32f0xx_hal_gpio.c ****       /* Clear the External Interrupt or Event for the current IO */
 319:Drivers/STM32F0xx_HAL_Driver/Src/stm32f0xx_hal_gpio.c **** 
 320:Drivers/STM32F0xx_HAL_Driver/Src/stm32f0xx_hal_gpio.c ****       tmp = SYSCFG->EXTICR[position >> 2u];
 610              		.loc 1 320 19
 611 0024 564A     		ldr	r2, .L32
 612              		.loc 1 320 37
 613 0026 7B69     		ldr	r3, [r7, #20]
 614 0028 9B08     		lsrs	r3, r3, #2
 615              		.loc 1 320 11
 616 002a 0233     		adds	r3, r3, #2
 617 002c 9B00     		lsls	r3, r3, #2
 618 002e 9B58     		ldr	r3, [r3, r2]
 619 0030 FB60     		str	r3, [r7, #12]
 321:Drivers/STM32F0xx_HAL_Driver/Src/stm32f0xx_hal_gpio.c ****       tmp &= (0x0FuL << (4u * (position & 0x03u)));
 620              		.loc 1 321 41
 621 0032 7B69     		ldr	r3, [r7, #20]
 622 0034 0322     		movs	r2, #3
 623 0036 1340     		ands	r3, r2
 624              		.loc 1 321 29
 625 0038 9B00     		lsls	r3, r3, #2
 626              		.loc 1 321 22
 627 003a 0F22     		movs	r2, #15
 628 003c 9A40     		lsls	r2, r2, r3
 629              		.loc 1 321 11
 630 003e FB68     		ldr	r3, [r7, #12]
 631 0040 1340     		ands	r3, r2
 632 0042 FB60     		str	r3, [r7, #12]
 322:Drivers/STM32F0xx_HAL_Driver/Src/stm32f0xx_hal_gpio.c ****       if (tmp == (GPIO_GET_INDEX(GPIOx) << (4u * (position & 0x03u))))
 633              		.loc 1 322 19
 634 0044 7A68     		ldr	r2, [r7, #4]
 635 0046 9023     		movs	r3, #144
 636 0048 DB05     		lsls	r3, r3, #23
 637 004a 9A42     		cmp	r2, r3
 638 004c 0DD0     		beq	.L24
 639              		.loc 1 322 19 is_stmt 0 discriminator 1
 640 004e 7B68     		ldr	r3, [r7, #4]
 641 0050 4C4A     		ldr	r2, .L32+4
 642 0052 9342     		cmp	r3, r2
 643 0054 07D0     		beq	.L25
 644              		.loc 1 322 19 discriminator 3
 645 0056 7B68     		ldr	r3, [r7, #4]
 646 0058 4B4A     		ldr	r2, .L32+8
ARM GAS  C:\Users\mason\AppData\Local\Temp\ccu1VdX1.s 			page 18


 647 005a 9342     		cmp	r3, r2
 648 005c 01D1     		bne	.L26
 649              		.loc 1 322 19 discriminator 5
 650 005e 0223     		movs	r3, #2
 651 0060 04E0     		b	.L29
 652              	.L26:
 653              		.loc 1 322 19 discriminator 6
 654 0062 0523     		movs	r3, #5
 655 0064 02E0     		b	.L29
 656              	.L25:
 657              		.loc 1 322 19 discriminator 4
 658 0066 0123     		movs	r3, #1
 659 0068 00E0     		b	.L29
 660              	.L24:
 661              		.loc 1 322 19 discriminator 2
 662 006a 0023     		movs	r3, #0
 663              	.L29:
 664              		.loc 1 322 60 is_stmt 1 discriminator 12
 665 006c 7A69     		ldr	r2, [r7, #20]
 666 006e 0321     		movs	r1, #3
 667 0070 0A40     		ands	r2, r1
 668              		.loc 1 322 48 discriminator 12
 669 0072 9200     		lsls	r2, r2, #2
 670              		.loc 1 322 41 discriminator 12
 671 0074 9340     		lsls	r3, r3, r2
 672              		.loc 1 322 10 discriminator 12
 673 0076 FA68     		ldr	r2, [r7, #12]
 674 0078 9A42     		cmp	r2, r3
 675 007a 32D1     		bne	.L30
 323:Drivers/STM32F0xx_HAL_Driver/Src/stm32f0xx_hal_gpio.c ****       {
 324:Drivers/STM32F0xx_HAL_Driver/Src/stm32f0xx_hal_gpio.c ****         /* Clear EXTI line configuration */
 325:Drivers/STM32F0xx_HAL_Driver/Src/stm32f0xx_hal_gpio.c ****         EXTI->IMR &= ~((uint32_t)iocurrent);
 676              		.loc 1 325 19
 677 007c 434B     		ldr	r3, .L32+12
 678 007e 1A68     		ldr	r2, [r3]
 679              		.loc 1 325 22
 680 0080 3B69     		ldr	r3, [r7, #16]
 681 0082 D943     		mvns	r1, r3
 682              		.loc 1 325 19
 683 0084 414B     		ldr	r3, .L32+12
 684 0086 0A40     		ands	r2, r1
 685 0088 1A60     		str	r2, [r3]
 326:Drivers/STM32F0xx_HAL_Driver/Src/stm32f0xx_hal_gpio.c ****         EXTI->EMR &= ~((uint32_t)iocurrent);
 686              		.loc 1 326 19
 687 008a 404B     		ldr	r3, .L32+12
 688 008c 5A68     		ldr	r2, [r3, #4]
 689              		.loc 1 326 22
 690 008e 3B69     		ldr	r3, [r7, #16]
 691 0090 D943     		mvns	r1, r3
 692              		.loc 1 326 19
 693 0092 3E4B     		ldr	r3, .L32+12
 694 0094 0A40     		ands	r2, r1
 695 0096 5A60     		str	r2, [r3, #4]
 327:Drivers/STM32F0xx_HAL_Driver/Src/stm32f0xx_hal_gpio.c ****         
 328:Drivers/STM32F0xx_HAL_Driver/Src/stm32f0xx_hal_gpio.c ****         /* Clear Rising Falling edge configuration */
 329:Drivers/STM32F0xx_HAL_Driver/Src/stm32f0xx_hal_gpio.c ****         EXTI->FTSR &= ~((uint32_t)iocurrent);
 696              		.loc 1 329 20
ARM GAS  C:\Users\mason\AppData\Local\Temp\ccu1VdX1.s 			page 19


 697 0098 3C4B     		ldr	r3, .L32+12
 698 009a DA68     		ldr	r2, [r3, #12]
 699              		.loc 1 329 23
 700 009c 3B69     		ldr	r3, [r7, #16]
 701 009e D943     		mvns	r1, r3
 702              		.loc 1 329 20
 703 00a0 3A4B     		ldr	r3, .L32+12
 704 00a2 0A40     		ands	r2, r1
 705 00a4 DA60     		str	r2, [r3, #12]
 330:Drivers/STM32F0xx_HAL_Driver/Src/stm32f0xx_hal_gpio.c ****         EXTI->RTSR &= ~((uint32_t)iocurrent);
 706              		.loc 1 330 20
 707 00a6 394B     		ldr	r3, .L32+12
 708 00a8 9A68     		ldr	r2, [r3, #8]
 709              		.loc 1 330 23
 710 00aa 3B69     		ldr	r3, [r7, #16]
 711 00ac D943     		mvns	r1, r3
 712              		.loc 1 330 20
 713 00ae 374B     		ldr	r3, .L32+12
 714 00b0 0A40     		ands	r2, r1
 715 00b2 9A60     		str	r2, [r3, #8]
 331:Drivers/STM32F0xx_HAL_Driver/Src/stm32f0xx_hal_gpio.c **** 
 332:Drivers/STM32F0xx_HAL_Driver/Src/stm32f0xx_hal_gpio.c ****         /* Configure the External Interrupt or event for the current IO */
 333:Drivers/STM32F0xx_HAL_Driver/Src/stm32f0xx_hal_gpio.c ****         tmp = 0x0FuL << (4u * (position & 0x03u));
 716              		.loc 1 333 41
 717 00b4 7B69     		ldr	r3, [r7, #20]
 718 00b6 0322     		movs	r2, #3
 719 00b8 1340     		ands	r3, r2
 720              		.loc 1 333 29
 721 00ba 9B00     		lsls	r3, r3, #2
 722              		.loc 1 333 13
 723 00bc 0F22     		movs	r2, #15
 724 00be 9A40     		lsls	r2, r2, r3
 725 00c0 1300     		movs	r3, r2
 726 00c2 FB60     		str	r3, [r7, #12]
 334:Drivers/STM32F0xx_HAL_Driver/Src/stm32f0xx_hal_gpio.c ****         SYSCFG->EXTICR[position >> 2u] &= ~tmp;
 727              		.loc 1 334 40
 728 00c4 2E4A     		ldr	r2, .L32
 729 00c6 7B69     		ldr	r3, [r7, #20]
 730 00c8 9B08     		lsrs	r3, r3, #2
 731 00ca 0233     		adds	r3, r3, #2
 732 00cc 9B00     		lsls	r3, r3, #2
 733 00ce 9A58     		ldr	r2, [r3, r2]
 734              		.loc 1 334 43
 735 00d0 FB68     		ldr	r3, [r7, #12]
 736 00d2 D943     		mvns	r1, r3
 737              		.loc 1 334 40
 738 00d4 2A48     		ldr	r0, .L32
 739 00d6 7B69     		ldr	r3, [r7, #20]
 740 00d8 9B08     		lsrs	r3, r3, #2
 741 00da 0A40     		ands	r2, r1
 742 00dc 0233     		adds	r3, r3, #2
 743 00de 9B00     		lsls	r3, r3, #2
 744 00e0 1A50     		str	r2, [r3, r0]
 745              	.L30:
 335:Drivers/STM32F0xx_HAL_Driver/Src/stm32f0xx_hal_gpio.c ****       }
 336:Drivers/STM32F0xx_HAL_Driver/Src/stm32f0xx_hal_gpio.c **** 
 337:Drivers/STM32F0xx_HAL_Driver/Src/stm32f0xx_hal_gpio.c ****       /*------------------------- GPIO Mode Configuration --------------------*/
ARM GAS  C:\Users\mason\AppData\Local\Temp\ccu1VdX1.s 			page 20


 338:Drivers/STM32F0xx_HAL_Driver/Src/stm32f0xx_hal_gpio.c ****       /* Configure IO Direction in Input Floating Mode */
 339:Drivers/STM32F0xx_HAL_Driver/Src/stm32f0xx_hal_gpio.c ****       GPIOx->MODER &= ~(GPIO_MODER_MODER0 << (position * 2u));
 746              		.loc 1 339 20
 747 00e2 7B68     		ldr	r3, [r7, #4]
 748 00e4 1B68     		ldr	r3, [r3]
 749              		.loc 1 339 56
 750 00e6 7A69     		ldr	r2, [r7, #20]
 751 00e8 5200     		lsls	r2, r2, #1
 752              		.loc 1 339 43
 753 00ea 0321     		movs	r1, #3
 754 00ec 9140     		lsls	r1, r1, r2
 755 00ee 0A00     		movs	r2, r1
 756              		.loc 1 339 23
 757 00f0 D243     		mvns	r2, r2
 758              		.loc 1 339 20
 759 00f2 1A40     		ands	r2, r3
 760 00f4 7B68     		ldr	r3, [r7, #4]
 761 00f6 1A60     		str	r2, [r3]
 340:Drivers/STM32F0xx_HAL_Driver/Src/stm32f0xx_hal_gpio.c **** 
 341:Drivers/STM32F0xx_HAL_Driver/Src/stm32f0xx_hal_gpio.c ****       /* Configure the default Alternate Function in current IO */
 342:Drivers/STM32F0xx_HAL_Driver/Src/stm32f0xx_hal_gpio.c ****       GPIOx->AFR[position >> 3u] &= ~(0xFu << ((uint32_t)(position & 0x07u) * 4u)) ;
 762              		.loc 1 342 34
 763 00f8 7B69     		ldr	r3, [r7, #20]
 764 00fa DA08     		lsrs	r2, r3, #3
 765 00fc 7B68     		ldr	r3, [r7, #4]
 766 00fe 0832     		adds	r2, r2, #8
 767 0100 9200     		lsls	r2, r2, #2
 768 0102 D358     		ldr	r3, [r2, r3]
 769              		.loc 1 342 48
 770 0104 7A69     		ldr	r2, [r7, #20]
 771 0106 0721     		movs	r1, #7
 772 0108 0A40     		ands	r2, r1
 773              		.loc 1 342 77
 774 010a 9200     		lsls	r2, r2, #2
 775              		.loc 1 342 44
 776 010c 0F21     		movs	r1, #15
 777 010e 9140     		lsls	r1, r1, r2
 778 0110 0A00     		movs	r2, r1
 779              		.loc 1 342 37
 780 0112 D143     		mvns	r1, r2
 781              		.loc 1 342 34
 782 0114 7A69     		ldr	r2, [r7, #20]
 783 0116 D208     		lsrs	r2, r2, #3
 784 0118 1940     		ands	r1, r3
 785 011a 7B68     		ldr	r3, [r7, #4]
 786 011c 0832     		adds	r2, r2, #8
 787 011e 9200     		lsls	r2, r2, #2
 788 0120 D150     		str	r1, [r2, r3]
 343:Drivers/STM32F0xx_HAL_Driver/Src/stm32f0xx_hal_gpio.c **** 
 344:Drivers/STM32F0xx_HAL_Driver/Src/stm32f0xx_hal_gpio.c ****       /* Deactivate the Pull-up and Pull-down resistor for the current IO */
 345:Drivers/STM32F0xx_HAL_Driver/Src/stm32f0xx_hal_gpio.c ****       GPIOx->PUPDR &= ~(GPIO_PUPDR_PUPDR0 << (position * 2u));
 789              		.loc 1 345 20
 790 0122 7B68     		ldr	r3, [r7, #4]
 791 0124 DB68     		ldr	r3, [r3, #12]
 792              		.loc 1 345 56
 793 0126 7A69     		ldr	r2, [r7, #20]
 794 0128 5200     		lsls	r2, r2, #1
ARM GAS  C:\Users\mason\AppData\Local\Temp\ccu1VdX1.s 			page 21


 795              		.loc 1 345 43
 796 012a 0321     		movs	r1, #3
 797 012c 9140     		lsls	r1, r1, r2
 798 012e 0A00     		movs	r2, r1
 799              		.loc 1 345 23
 800 0130 D243     		mvns	r2, r2
 801              		.loc 1 345 20
 802 0132 1A40     		ands	r2, r3
 803 0134 7B68     		ldr	r3, [r7, #4]
 804 0136 DA60     		str	r2, [r3, #12]
 346:Drivers/STM32F0xx_HAL_Driver/Src/stm32f0xx_hal_gpio.c **** 
 347:Drivers/STM32F0xx_HAL_Driver/Src/stm32f0xx_hal_gpio.c ****       /* Configure the default value IO Output Type */
 348:Drivers/STM32F0xx_HAL_Driver/Src/stm32f0xx_hal_gpio.c ****       GPIOx->OTYPER  &= ~(GPIO_OTYPER_OT_0 << position) ;
 805              		.loc 1 348 22
 806 0138 7B68     		ldr	r3, [r7, #4]
 807 013a 5B68     		ldr	r3, [r3, #4]
 808              		.loc 1 348 44
 809 013c 0121     		movs	r1, #1
 810 013e 7A69     		ldr	r2, [r7, #20]
 811 0140 9140     		lsls	r1, r1, r2
 812 0142 0A00     		movs	r2, r1
 813              		.loc 1 348 25
 814 0144 D243     		mvns	r2, r2
 815              		.loc 1 348 22
 816 0146 1A40     		ands	r2, r3
 817 0148 7B68     		ldr	r3, [r7, #4]
 818 014a 5A60     		str	r2, [r3, #4]
 349:Drivers/STM32F0xx_HAL_Driver/Src/stm32f0xx_hal_gpio.c **** 
 350:Drivers/STM32F0xx_HAL_Driver/Src/stm32f0xx_hal_gpio.c ****       /* Configure the default value for IO Speed */
 351:Drivers/STM32F0xx_HAL_Driver/Src/stm32f0xx_hal_gpio.c ****       GPIOx->OSPEEDR &= ~(GPIO_OSPEEDER_OSPEEDR0 << (position * 2u));
 819              		.loc 1 351 22
 820 014c 7B68     		ldr	r3, [r7, #4]
 821 014e 9B68     		ldr	r3, [r3, #8]
 822              		.loc 1 351 63
 823 0150 7A69     		ldr	r2, [r7, #20]
 824 0152 5200     		lsls	r2, r2, #1
 825              		.loc 1 351 50
 826 0154 0321     		movs	r1, #3
 827 0156 9140     		lsls	r1, r1, r2
 828 0158 0A00     		movs	r2, r1
 829              		.loc 1 351 25
 830 015a D243     		mvns	r2, r2
 831              		.loc 1 351 22
 832 015c 1A40     		ands	r2, r3
 833 015e 7B68     		ldr	r3, [r7, #4]
 834 0160 9A60     		str	r2, [r3, #8]
 835              	.L23:
 352:Drivers/STM32F0xx_HAL_Driver/Src/stm32f0xx_hal_gpio.c **** 
 353:Drivers/STM32F0xx_HAL_Driver/Src/stm32f0xx_hal_gpio.c ****     }
 354:Drivers/STM32F0xx_HAL_Driver/Src/stm32f0xx_hal_gpio.c **** 
 355:Drivers/STM32F0xx_HAL_Driver/Src/stm32f0xx_hal_gpio.c ****     position++;
 836              		.loc 1 355 13
 837 0162 7B69     		ldr	r3, [r7, #20]
 838 0164 0133     		adds	r3, r3, #1
 839 0166 7B61     		str	r3, [r7, #20]
 840              	.L22:
 310:Drivers/STM32F0xx_HAL_Driver/Src/stm32f0xx_hal_gpio.c ****   {
ARM GAS  C:\Users\mason\AppData\Local\Temp\ccu1VdX1.s 			page 22


 841              		.loc 1 310 20
 842 0168 3A68     		ldr	r2, [r7]
 843 016a 7B69     		ldr	r3, [r7, #20]
 844 016c DA40     		lsrs	r2, r2, r3
 845 016e 131E     		subs	r3, r2, #0
 310:Drivers/STM32F0xx_HAL_Driver/Src/stm32f0xx_hal_gpio.c ****   {
 846              		.loc 1 310 9
 847 0170 00D0     		beq	.LCB633
 848 0172 4DE7     		b	.L31	@long jump
 849              	.LCB633:
 356:Drivers/STM32F0xx_HAL_Driver/Src/stm32f0xx_hal_gpio.c ****   }
 357:Drivers/STM32F0xx_HAL_Driver/Src/stm32f0xx_hal_gpio.c **** }
 850              		.loc 1 357 1
 851 0174 C046     		nop
 852 0176 C046     		nop
 853 0178 BD46     		mov	sp, r7
 854 017a 06B0     		add	sp, sp, #24
 855              		@ sp needed
 856 017c 80BD     		pop	{r7, pc}
 857              	.L33:
 858 017e C046     		.align	2
 859              	.L32:
 860 0180 00000140 		.word	1073807360
 861 0184 00040048 		.word	1207960576
 862 0188 00080048 		.word	1207961600
 863 018c 00040140 		.word	1073808384
 864              		.cfi_endproc
 865              	.LFE41:
 867              		.section	.text.HAL_GPIO_ReadPin,"ax",%progbits
 868              		.align	1
 869              		.global	HAL_GPIO_ReadPin
 870              		.syntax unified
 871              		.code	16
 872              		.thumb_func
 874              	HAL_GPIO_ReadPin:
 875              	.LFB42:
 358:Drivers/STM32F0xx_HAL_Driver/Src/stm32f0xx_hal_gpio.c **** 
 359:Drivers/STM32F0xx_HAL_Driver/Src/stm32f0xx_hal_gpio.c **** /**
 360:Drivers/STM32F0xx_HAL_Driver/Src/stm32f0xx_hal_gpio.c ****   * @}
 361:Drivers/STM32F0xx_HAL_Driver/Src/stm32f0xx_hal_gpio.c ****   */
 362:Drivers/STM32F0xx_HAL_Driver/Src/stm32f0xx_hal_gpio.c **** 
 363:Drivers/STM32F0xx_HAL_Driver/Src/stm32f0xx_hal_gpio.c **** /** @defgroup GPIO_Exported_Functions_Group2 IO operation functions 
 364:Drivers/STM32F0xx_HAL_Driver/Src/stm32f0xx_hal_gpio.c ****  *  @brief GPIO Read, Write, Toggle, Lock and EXTI management functions.
 365:Drivers/STM32F0xx_HAL_Driver/Src/stm32f0xx_hal_gpio.c ****  *
 366:Drivers/STM32F0xx_HAL_Driver/Src/stm32f0xx_hal_gpio.c **** @verbatim   
 367:Drivers/STM32F0xx_HAL_Driver/Src/stm32f0xx_hal_gpio.c ****  ===============================================================================
 368:Drivers/STM32F0xx_HAL_Driver/Src/stm32f0xx_hal_gpio.c ****                        ##### IO operation functions #####
 369:Drivers/STM32F0xx_HAL_Driver/Src/stm32f0xx_hal_gpio.c ****  ===============================================================================  
 370:Drivers/STM32F0xx_HAL_Driver/Src/stm32f0xx_hal_gpio.c **** 
 371:Drivers/STM32F0xx_HAL_Driver/Src/stm32f0xx_hal_gpio.c **** @endverbatim
 372:Drivers/STM32F0xx_HAL_Driver/Src/stm32f0xx_hal_gpio.c ****   * @{
 373:Drivers/STM32F0xx_HAL_Driver/Src/stm32f0xx_hal_gpio.c ****   */
 374:Drivers/STM32F0xx_HAL_Driver/Src/stm32f0xx_hal_gpio.c **** 
 375:Drivers/STM32F0xx_HAL_Driver/Src/stm32f0xx_hal_gpio.c **** /**
 376:Drivers/STM32F0xx_HAL_Driver/Src/stm32f0xx_hal_gpio.c ****   * @brief  Read the specified input port pin.
 377:Drivers/STM32F0xx_HAL_Driver/Src/stm32f0xx_hal_gpio.c ****   * @param  GPIOx where x can be (A..F) to select the GPIO peripheral for STM32F0 family
 378:Drivers/STM32F0xx_HAL_Driver/Src/stm32f0xx_hal_gpio.c ****   * @param  GPIO_Pin specifies the port bit to read.
ARM GAS  C:\Users\mason\AppData\Local\Temp\ccu1VdX1.s 			page 23


 379:Drivers/STM32F0xx_HAL_Driver/Src/stm32f0xx_hal_gpio.c ****   *         This parameter can be GPIO_PIN_x where x can be (0..15).
 380:Drivers/STM32F0xx_HAL_Driver/Src/stm32f0xx_hal_gpio.c ****   * @retval The input port pin value.
 381:Drivers/STM32F0xx_HAL_Driver/Src/stm32f0xx_hal_gpio.c ****   */
 382:Drivers/STM32F0xx_HAL_Driver/Src/stm32f0xx_hal_gpio.c **** GPIO_PinState HAL_GPIO_ReadPin(GPIO_TypeDef* GPIOx, uint16_t GPIO_Pin)
 383:Drivers/STM32F0xx_HAL_Driver/Src/stm32f0xx_hal_gpio.c **** {
 876              		.loc 1 383 1
 877              		.cfi_startproc
 878              		@ args = 0, pretend = 0, frame = 16
 879              		@ frame_needed = 1, uses_anonymous_args = 0
 880 0000 80B5     		push	{r7, lr}
 881              	.LCFI6:
 882              		.cfi_def_cfa_offset 8
 883              		.cfi_offset 7, -8
 884              		.cfi_offset 14, -4
 885 0002 84B0     		sub	sp, sp, #16
 886              	.LCFI7:
 887              		.cfi_def_cfa_offset 24
 888 0004 00AF     		add	r7, sp, #0
 889              	.LCFI8:
 890              		.cfi_def_cfa_register 7
 891 0006 7860     		str	r0, [r7, #4]
 892 0008 0A00     		movs	r2, r1
 893 000a BB1C     		adds	r3, r7, #2
 894 000c 1A80     		strh	r2, [r3]
 384:Drivers/STM32F0xx_HAL_Driver/Src/stm32f0xx_hal_gpio.c ****   GPIO_PinState bitstatus;
 385:Drivers/STM32F0xx_HAL_Driver/Src/stm32f0xx_hal_gpio.c **** 
 386:Drivers/STM32F0xx_HAL_Driver/Src/stm32f0xx_hal_gpio.c ****   /* Check the parameters */
 387:Drivers/STM32F0xx_HAL_Driver/Src/stm32f0xx_hal_gpio.c ****   assert_param(IS_GPIO_PIN(GPIO_Pin));
 388:Drivers/STM32F0xx_HAL_Driver/Src/stm32f0xx_hal_gpio.c **** 
 389:Drivers/STM32F0xx_HAL_Driver/Src/stm32f0xx_hal_gpio.c ****   if ((GPIOx->IDR & GPIO_Pin) != (uint32_t)GPIO_PIN_RESET)
 895              		.loc 1 389 13
 896 000e 7B68     		ldr	r3, [r7, #4]
 897 0010 1B69     		ldr	r3, [r3, #16]
 898              		.loc 1 389 19
 899 0012 BA1C     		adds	r2, r7, #2
 900 0014 1288     		ldrh	r2, [r2]
 901 0016 1340     		ands	r3, r2
 902              		.loc 1 389 6
 903 0018 04D0     		beq	.L35
 390:Drivers/STM32F0xx_HAL_Driver/Src/stm32f0xx_hal_gpio.c ****   {
 391:Drivers/STM32F0xx_HAL_Driver/Src/stm32f0xx_hal_gpio.c ****     bitstatus = GPIO_PIN_SET;
 904              		.loc 1 391 15
 905 001a 0F23     		movs	r3, #15
 906 001c FB18     		adds	r3, r7, r3
 907 001e 0122     		movs	r2, #1
 908 0020 1A70     		strb	r2, [r3]
 909 0022 03E0     		b	.L36
 910              	.L35:
 392:Drivers/STM32F0xx_HAL_Driver/Src/stm32f0xx_hal_gpio.c ****   }
 393:Drivers/STM32F0xx_HAL_Driver/Src/stm32f0xx_hal_gpio.c ****   else
 394:Drivers/STM32F0xx_HAL_Driver/Src/stm32f0xx_hal_gpio.c ****   {
 395:Drivers/STM32F0xx_HAL_Driver/Src/stm32f0xx_hal_gpio.c ****     bitstatus = GPIO_PIN_RESET;
 911              		.loc 1 395 15
 912 0024 0F23     		movs	r3, #15
 913 0026 FB18     		adds	r3, r7, r3
 914 0028 0022     		movs	r2, #0
 915 002a 1A70     		strb	r2, [r3]
ARM GAS  C:\Users\mason\AppData\Local\Temp\ccu1VdX1.s 			page 24


 916              	.L36:
 396:Drivers/STM32F0xx_HAL_Driver/Src/stm32f0xx_hal_gpio.c ****   }
 397:Drivers/STM32F0xx_HAL_Driver/Src/stm32f0xx_hal_gpio.c ****   return bitstatus;
 917              		.loc 1 397 10
 918 002c 0F23     		movs	r3, #15
 919 002e FB18     		adds	r3, r7, r3
 920 0030 1B78     		ldrb	r3, [r3]
 398:Drivers/STM32F0xx_HAL_Driver/Src/stm32f0xx_hal_gpio.c ****   }
 921              		.loc 1 398 3
 922 0032 1800     		movs	r0, r3
 923 0034 BD46     		mov	sp, r7
 924 0036 04B0     		add	sp, sp, #16
 925              		@ sp needed
 926 0038 80BD     		pop	{r7, pc}
 927              		.cfi_endproc
 928              	.LFE42:
 930              		.section	.text.HAL_GPIO_WritePin,"ax",%progbits
 931              		.align	1
 932              		.global	HAL_GPIO_WritePin
 933              		.syntax unified
 934              		.code	16
 935              		.thumb_func
 937              	HAL_GPIO_WritePin:
 938              	.LFB43:
 399:Drivers/STM32F0xx_HAL_Driver/Src/stm32f0xx_hal_gpio.c **** 
 400:Drivers/STM32F0xx_HAL_Driver/Src/stm32f0xx_hal_gpio.c **** /**
 401:Drivers/STM32F0xx_HAL_Driver/Src/stm32f0xx_hal_gpio.c ****   * @brief  Set or clear the selected data port bit.
 402:Drivers/STM32F0xx_HAL_Driver/Src/stm32f0xx_hal_gpio.c ****   * @note   This function uses GPIOx_BSRR and GPIOx_BRR registers to allow atomic read/modify
 403:Drivers/STM32F0xx_HAL_Driver/Src/stm32f0xx_hal_gpio.c ****   *         accesses. In this way, there is no risk of an IRQ occurring between
 404:Drivers/STM32F0xx_HAL_Driver/Src/stm32f0xx_hal_gpio.c ****   *         the read and the modify access.
 405:Drivers/STM32F0xx_HAL_Driver/Src/stm32f0xx_hal_gpio.c ****   *
 406:Drivers/STM32F0xx_HAL_Driver/Src/stm32f0xx_hal_gpio.c ****   * @param  GPIOx where x can be (A..H) to select the GPIO peripheral for STM32F0 family
 407:Drivers/STM32F0xx_HAL_Driver/Src/stm32f0xx_hal_gpio.c ****   * @param  GPIO_Pin specifies the port bit to be written.
 408:Drivers/STM32F0xx_HAL_Driver/Src/stm32f0xx_hal_gpio.c ****   *          This parameter can be one of GPIO_PIN_x where x can be (0..15).
 409:Drivers/STM32F0xx_HAL_Driver/Src/stm32f0xx_hal_gpio.c ****   * @param  PinState specifies the value to be written to the selected bit.
 410:Drivers/STM32F0xx_HAL_Driver/Src/stm32f0xx_hal_gpio.c ****   *          This parameter can be one of the GPIO_PinState enum values:
 411:Drivers/STM32F0xx_HAL_Driver/Src/stm32f0xx_hal_gpio.c ****   *            @arg GPIO_PIN_RESET: to clear the port pin
 412:Drivers/STM32F0xx_HAL_Driver/Src/stm32f0xx_hal_gpio.c ****   *            @arg GPIO_PIN_SET: to set the port pin
 413:Drivers/STM32F0xx_HAL_Driver/Src/stm32f0xx_hal_gpio.c ****   * @retval None
 414:Drivers/STM32F0xx_HAL_Driver/Src/stm32f0xx_hal_gpio.c ****   */
 415:Drivers/STM32F0xx_HAL_Driver/Src/stm32f0xx_hal_gpio.c **** void HAL_GPIO_WritePin(GPIO_TypeDef* GPIOx, uint16_t GPIO_Pin, GPIO_PinState PinState)
 416:Drivers/STM32F0xx_HAL_Driver/Src/stm32f0xx_hal_gpio.c **** {
 939              		.loc 1 416 1
 940              		.cfi_startproc
 941              		@ args = 0, pretend = 0, frame = 8
 942              		@ frame_needed = 1, uses_anonymous_args = 0
 943 0000 80B5     		push	{r7, lr}
 944              	.LCFI9:
 945              		.cfi_def_cfa_offset 8
 946              		.cfi_offset 7, -8
 947              		.cfi_offset 14, -4
 948 0002 82B0     		sub	sp, sp, #8
 949              	.LCFI10:
 950              		.cfi_def_cfa_offset 16
 951 0004 00AF     		add	r7, sp, #0
 952              	.LCFI11:
 953              		.cfi_def_cfa_register 7
ARM GAS  C:\Users\mason\AppData\Local\Temp\ccu1VdX1.s 			page 25


 954 0006 7860     		str	r0, [r7, #4]
 955 0008 0800     		movs	r0, r1
 956 000a 1100     		movs	r1, r2
 957 000c BB1C     		adds	r3, r7, #2
 958 000e 021C     		adds	r2, r0, #0
 959 0010 1A80     		strh	r2, [r3]
 960 0012 7B1C     		adds	r3, r7, #1
 961 0014 0A1C     		adds	r2, r1, #0
 962 0016 1A70     		strb	r2, [r3]
 417:Drivers/STM32F0xx_HAL_Driver/Src/stm32f0xx_hal_gpio.c ****   /* Check the parameters */
 418:Drivers/STM32F0xx_HAL_Driver/Src/stm32f0xx_hal_gpio.c ****   assert_param(IS_GPIO_PIN(GPIO_Pin));
 419:Drivers/STM32F0xx_HAL_Driver/Src/stm32f0xx_hal_gpio.c ****   assert_param(IS_GPIO_PIN_ACTION(PinState));
 420:Drivers/STM32F0xx_HAL_Driver/Src/stm32f0xx_hal_gpio.c **** 
 421:Drivers/STM32F0xx_HAL_Driver/Src/stm32f0xx_hal_gpio.c ****   if (PinState != GPIO_PIN_RESET)
 963              		.loc 1 421 6
 964 0018 7B1C     		adds	r3, r7, #1
 965 001a 1B78     		ldrb	r3, [r3]
 966 001c 002B     		cmp	r3, #0
 967 001e 04D0     		beq	.L39
 422:Drivers/STM32F0xx_HAL_Driver/Src/stm32f0xx_hal_gpio.c ****   {
 423:Drivers/STM32F0xx_HAL_Driver/Src/stm32f0xx_hal_gpio.c ****     GPIOx->BSRR = (uint32_t)GPIO_Pin;
 968              		.loc 1 423 19
 969 0020 BB1C     		adds	r3, r7, #2
 970 0022 1A88     		ldrh	r2, [r3]
 971              		.loc 1 423 17
 972 0024 7B68     		ldr	r3, [r7, #4]
 973 0026 9A61     		str	r2, [r3, #24]
 424:Drivers/STM32F0xx_HAL_Driver/Src/stm32f0xx_hal_gpio.c ****   }
 425:Drivers/STM32F0xx_HAL_Driver/Src/stm32f0xx_hal_gpio.c ****   else
 426:Drivers/STM32F0xx_HAL_Driver/Src/stm32f0xx_hal_gpio.c ****   {
 427:Drivers/STM32F0xx_HAL_Driver/Src/stm32f0xx_hal_gpio.c ****     GPIOx->BRR = (uint32_t)GPIO_Pin;
 428:Drivers/STM32F0xx_HAL_Driver/Src/stm32f0xx_hal_gpio.c ****   }
 429:Drivers/STM32F0xx_HAL_Driver/Src/stm32f0xx_hal_gpio.c **** }
 974              		.loc 1 429 1
 975 0028 03E0     		b	.L41
 976              	.L39:
 427:Drivers/STM32F0xx_HAL_Driver/Src/stm32f0xx_hal_gpio.c ****   }
 977              		.loc 1 427 18
 978 002a BB1C     		adds	r3, r7, #2
 979 002c 1A88     		ldrh	r2, [r3]
 427:Drivers/STM32F0xx_HAL_Driver/Src/stm32f0xx_hal_gpio.c ****   }
 980              		.loc 1 427 16
 981 002e 7B68     		ldr	r3, [r7, #4]
 982 0030 9A62     		str	r2, [r3, #40]
 983              	.L41:
 984              		.loc 1 429 1
 985 0032 C046     		nop
 986 0034 BD46     		mov	sp, r7
 987 0036 02B0     		add	sp, sp, #8
 988              		@ sp needed
 989 0038 80BD     		pop	{r7, pc}
 990              		.cfi_endproc
 991              	.LFE43:
 993              		.section	.text.HAL_GPIO_TogglePin,"ax",%progbits
 994              		.align	1
 995              		.global	HAL_GPIO_TogglePin
 996              		.syntax unified
ARM GAS  C:\Users\mason\AppData\Local\Temp\ccu1VdX1.s 			page 26


 997              		.code	16
 998              		.thumb_func
 1000              	HAL_GPIO_TogglePin:
 1001              	.LFB44:
 430:Drivers/STM32F0xx_HAL_Driver/Src/stm32f0xx_hal_gpio.c ****   
 431:Drivers/STM32F0xx_HAL_Driver/Src/stm32f0xx_hal_gpio.c **** /**
 432:Drivers/STM32F0xx_HAL_Driver/Src/stm32f0xx_hal_gpio.c ****   * @brief  Toggle the specified GPIO pin.
 433:Drivers/STM32F0xx_HAL_Driver/Src/stm32f0xx_hal_gpio.c ****   * @param  GPIOx where x can be (A..F) to select the GPIO peripheral for STM32F0 family
 434:Drivers/STM32F0xx_HAL_Driver/Src/stm32f0xx_hal_gpio.c ****   * @param  GPIO_Pin specifies the pin to be toggled.
 435:Drivers/STM32F0xx_HAL_Driver/Src/stm32f0xx_hal_gpio.c ****   * @retval None
 436:Drivers/STM32F0xx_HAL_Driver/Src/stm32f0xx_hal_gpio.c ****   */
 437:Drivers/STM32F0xx_HAL_Driver/Src/stm32f0xx_hal_gpio.c **** void HAL_GPIO_TogglePin(GPIO_TypeDef* GPIOx, uint16_t GPIO_Pin)
 438:Drivers/STM32F0xx_HAL_Driver/Src/stm32f0xx_hal_gpio.c **** {
 1002              		.loc 1 438 1
 1003              		.cfi_startproc
 1004              		@ args = 0, pretend = 0, frame = 16
 1005              		@ frame_needed = 1, uses_anonymous_args = 0
 1006 0000 80B5     		push	{r7, lr}
 1007              	.LCFI12:
 1008              		.cfi_def_cfa_offset 8
 1009              		.cfi_offset 7, -8
 1010              		.cfi_offset 14, -4
 1011 0002 84B0     		sub	sp, sp, #16
 1012              	.LCFI13:
 1013              		.cfi_def_cfa_offset 24
 1014 0004 00AF     		add	r7, sp, #0
 1015              	.LCFI14:
 1016              		.cfi_def_cfa_register 7
 1017 0006 7860     		str	r0, [r7, #4]
 1018 0008 0A00     		movs	r2, r1
 1019 000a BB1C     		adds	r3, r7, #2
 1020 000c 1A80     		strh	r2, [r3]
 439:Drivers/STM32F0xx_HAL_Driver/Src/stm32f0xx_hal_gpio.c ****   uint32_t odr;
 440:Drivers/STM32F0xx_HAL_Driver/Src/stm32f0xx_hal_gpio.c **** 
 441:Drivers/STM32F0xx_HAL_Driver/Src/stm32f0xx_hal_gpio.c ****   /* Check the parameters */
 442:Drivers/STM32F0xx_HAL_Driver/Src/stm32f0xx_hal_gpio.c ****   assert_param(IS_GPIO_PIN(GPIO_Pin));
 443:Drivers/STM32F0xx_HAL_Driver/Src/stm32f0xx_hal_gpio.c **** 
 444:Drivers/STM32F0xx_HAL_Driver/Src/stm32f0xx_hal_gpio.c ****   /* get current Output Data Register value */
 445:Drivers/STM32F0xx_HAL_Driver/Src/stm32f0xx_hal_gpio.c ****   odr = GPIOx->ODR;
 1021              		.loc 1 445 7
 1022 000e 7B68     		ldr	r3, [r7, #4]
 1023 0010 5B69     		ldr	r3, [r3, #20]
 1024 0012 FB60     		str	r3, [r7, #12]
 446:Drivers/STM32F0xx_HAL_Driver/Src/stm32f0xx_hal_gpio.c **** 
 447:Drivers/STM32F0xx_HAL_Driver/Src/stm32f0xx_hal_gpio.c ****   /* Set selected pins that were at low level, and reset ones that were high */
 448:Drivers/STM32F0xx_HAL_Driver/Src/stm32f0xx_hal_gpio.c ****   GPIOx->BSRR = ((odr & GPIO_Pin) << GPIO_NUMBER) | (~odr & GPIO_Pin);
 1025              		.loc 1 448 23
 1026 0014 BB1C     		adds	r3, r7, #2
 1027 0016 1B88     		ldrh	r3, [r3]
 1028 0018 FA68     		ldr	r2, [r7, #12]
 1029 001a 1340     		ands	r3, r2
 1030              		.loc 1 448 35
 1031 001c 1A04     		lsls	r2, r3, #16
 1032              		.loc 1 448 54
 1033 001e FB68     		ldr	r3, [r7, #12]
 1034 0020 DB43     		mvns	r3, r3
 1035              		.loc 1 448 59
ARM GAS  C:\Users\mason\AppData\Local\Temp\ccu1VdX1.s 			page 27


 1036 0022 B91C     		adds	r1, r7, #2
 1037 0024 0988     		ldrh	r1, [r1]
 1038 0026 0B40     		ands	r3, r1
 1039              		.loc 1 448 51
 1040 0028 1A43     		orrs	r2, r3
 1041              		.loc 1 448 15
 1042 002a 7B68     		ldr	r3, [r7, #4]
 1043 002c 9A61     		str	r2, [r3, #24]
 449:Drivers/STM32F0xx_HAL_Driver/Src/stm32f0xx_hal_gpio.c **** }
 1044              		.loc 1 449 1
 1045 002e C046     		nop
 1046 0030 BD46     		mov	sp, r7
 1047 0032 04B0     		add	sp, sp, #16
 1048              		@ sp needed
 1049 0034 80BD     		pop	{r7, pc}
 1050              		.cfi_endproc
 1051              	.LFE44:
 1053              		.section	.text.HAL_GPIO_LockPin,"ax",%progbits
 1054              		.align	1
 1055              		.global	HAL_GPIO_LockPin
 1056              		.syntax unified
 1057              		.code	16
 1058              		.thumb_func
 1060              	HAL_GPIO_LockPin:
 1061              	.LFB45:
 450:Drivers/STM32F0xx_HAL_Driver/Src/stm32f0xx_hal_gpio.c **** 
 451:Drivers/STM32F0xx_HAL_Driver/Src/stm32f0xx_hal_gpio.c **** /**
 452:Drivers/STM32F0xx_HAL_Driver/Src/stm32f0xx_hal_gpio.c **** * @brief  Locks GPIO Pins configuration registers.
 453:Drivers/STM32F0xx_HAL_Driver/Src/stm32f0xx_hal_gpio.c **** * @note   The locked registers are GPIOx_MODER, GPIOx_OTYPER, GPIOx_OSPEEDR,
 454:Drivers/STM32F0xx_HAL_Driver/Src/stm32f0xx_hal_gpio.c **** *         GPIOx_PUPDR, GPIOx_AFRL and GPIOx_AFRH.
 455:Drivers/STM32F0xx_HAL_Driver/Src/stm32f0xx_hal_gpio.c **** * @note   The configuration of the locked GPIO pins can no longer be modified
 456:Drivers/STM32F0xx_HAL_Driver/Src/stm32f0xx_hal_gpio.c **** *         until the next reset.
 457:Drivers/STM32F0xx_HAL_Driver/Src/stm32f0xx_hal_gpio.c ****   * @param  GPIOx where x can be (A..F) to select the GPIO peripheral for STM32F0 family
 458:Drivers/STM32F0xx_HAL_Driver/Src/stm32f0xx_hal_gpio.c ****   * @param  GPIO_Pin specifies the port bits to be locked.
 459:Drivers/STM32F0xx_HAL_Driver/Src/stm32f0xx_hal_gpio.c **** *         This parameter can be any combination of GPIO_Pin_x where x can be (0..15).
 460:Drivers/STM32F0xx_HAL_Driver/Src/stm32f0xx_hal_gpio.c **** * @retval None
 461:Drivers/STM32F0xx_HAL_Driver/Src/stm32f0xx_hal_gpio.c **** */
 462:Drivers/STM32F0xx_HAL_Driver/Src/stm32f0xx_hal_gpio.c **** HAL_StatusTypeDef HAL_GPIO_LockPin(GPIO_TypeDef* GPIOx, uint16_t GPIO_Pin)
 463:Drivers/STM32F0xx_HAL_Driver/Src/stm32f0xx_hal_gpio.c **** {
 1062              		.loc 1 463 1
 1063              		.cfi_startproc
 1064              		@ args = 0, pretend = 0, frame = 16
 1065              		@ frame_needed = 1, uses_anonymous_args = 0
 1066 0000 80B5     		push	{r7, lr}
 1067              	.LCFI15:
 1068              		.cfi_def_cfa_offset 8
 1069              		.cfi_offset 7, -8
 1070              		.cfi_offset 14, -4
 1071 0002 84B0     		sub	sp, sp, #16
 1072              	.LCFI16:
 1073              		.cfi_def_cfa_offset 24
 1074 0004 00AF     		add	r7, sp, #0
 1075              	.LCFI17:
 1076              		.cfi_def_cfa_register 7
 1077 0006 7860     		str	r0, [r7, #4]
 1078 0008 0A00     		movs	r2, r1
 1079 000a BB1C     		adds	r3, r7, #2
ARM GAS  C:\Users\mason\AppData\Local\Temp\ccu1VdX1.s 			page 28


 1080 000c 1A80     		strh	r2, [r3]
 464:Drivers/STM32F0xx_HAL_Driver/Src/stm32f0xx_hal_gpio.c ****   __IO uint32_t tmp = GPIO_LCKR_LCKK;
 1081              		.loc 1 464 17
 1082 000e 8023     		movs	r3, #128
 1083 0010 5B02     		lsls	r3, r3, #9
 1084 0012 FB60     		str	r3, [r7, #12]
 465:Drivers/STM32F0xx_HAL_Driver/Src/stm32f0xx_hal_gpio.c **** 
 466:Drivers/STM32F0xx_HAL_Driver/Src/stm32f0xx_hal_gpio.c ****   /* Check the parameters */
 467:Drivers/STM32F0xx_HAL_Driver/Src/stm32f0xx_hal_gpio.c ****   assert_param(IS_GPIO_LOCK_INSTANCE(GPIOx));
 468:Drivers/STM32F0xx_HAL_Driver/Src/stm32f0xx_hal_gpio.c ****   assert_param(IS_GPIO_PIN(GPIO_Pin));
 469:Drivers/STM32F0xx_HAL_Driver/Src/stm32f0xx_hal_gpio.c **** 
 470:Drivers/STM32F0xx_HAL_Driver/Src/stm32f0xx_hal_gpio.c ****   /* Apply lock key write sequence */
 471:Drivers/STM32F0xx_HAL_Driver/Src/stm32f0xx_hal_gpio.c ****   SET_BIT(tmp, GPIO_Pin);
 1085              		.loc 1 471 3
 1086 0014 BB1C     		adds	r3, r7, #2
 1087 0016 1A88     		ldrh	r2, [r3]
 1088 0018 FB68     		ldr	r3, [r7, #12]
 1089 001a 1343     		orrs	r3, r2
 1090 001c FB60     		str	r3, [r7, #12]
 472:Drivers/STM32F0xx_HAL_Driver/Src/stm32f0xx_hal_gpio.c ****   /* Set LCKx bit(s): LCKK='1' + LCK[15-0] */
 473:Drivers/STM32F0xx_HAL_Driver/Src/stm32f0xx_hal_gpio.c ****   GPIOx->LCKR = tmp;
 1091              		.loc 1 473 15
 1092 001e FA68     		ldr	r2, [r7, #12]
 1093 0020 7B68     		ldr	r3, [r7, #4]
 1094 0022 DA61     		str	r2, [r3, #28]
 474:Drivers/STM32F0xx_HAL_Driver/Src/stm32f0xx_hal_gpio.c ****   /* Reset LCKx bit(s): LCKK='0' + LCK[15-0] */
 475:Drivers/STM32F0xx_HAL_Driver/Src/stm32f0xx_hal_gpio.c ****   GPIOx->LCKR = GPIO_Pin;
 1095              		.loc 1 475 15
 1096 0024 BB1C     		adds	r3, r7, #2
 1097 0026 1A88     		ldrh	r2, [r3]
 1098 0028 7B68     		ldr	r3, [r7, #4]
 1099 002a DA61     		str	r2, [r3, #28]
 476:Drivers/STM32F0xx_HAL_Driver/Src/stm32f0xx_hal_gpio.c ****   /* Set LCKx bit(s): LCKK='1' + LCK[15-0] */
 477:Drivers/STM32F0xx_HAL_Driver/Src/stm32f0xx_hal_gpio.c ****   GPIOx->LCKR = tmp;
 1100              		.loc 1 477 15
 1101 002c FA68     		ldr	r2, [r7, #12]
 1102 002e 7B68     		ldr	r3, [r7, #4]
 1103 0030 DA61     		str	r2, [r3, #28]
 478:Drivers/STM32F0xx_HAL_Driver/Src/stm32f0xx_hal_gpio.c ****   /* Read LCKK register. This read is mandatory to complete key lock sequence */
 479:Drivers/STM32F0xx_HAL_Driver/Src/stm32f0xx_hal_gpio.c ****   tmp = GPIOx->LCKR;
 1104              		.loc 1 479 14
 1105 0032 7B68     		ldr	r3, [r7, #4]
 1106 0034 DB69     		ldr	r3, [r3, #28]
 1107              		.loc 1 479 7
 1108 0036 FB60     		str	r3, [r7, #12]
 480:Drivers/STM32F0xx_HAL_Driver/Src/stm32f0xx_hal_gpio.c **** 
 481:Drivers/STM32F0xx_HAL_Driver/Src/stm32f0xx_hal_gpio.c ****   /* read again in order to confirm lock is active */
 482:Drivers/STM32F0xx_HAL_Driver/Src/stm32f0xx_hal_gpio.c ****  if((GPIOx->LCKR & GPIO_LCKR_LCKK) != 0x00u)
 1109              		.loc 1 482 11
 1110 0038 7B68     		ldr	r3, [r7, #4]
 1111 003a DA69     		ldr	r2, [r3, #28]
 1112              		.loc 1 482 18
 1113 003c 8023     		movs	r3, #128
 1114 003e 5B02     		lsls	r3, r3, #9
 1115 0040 1340     		ands	r3, r2
 1116              		.loc 1 482 4
 1117 0042 01D0     		beq	.L44
ARM GAS  C:\Users\mason\AppData\Local\Temp\ccu1VdX1.s 			page 29


 483:Drivers/STM32F0xx_HAL_Driver/Src/stm32f0xx_hal_gpio.c ****   {
 484:Drivers/STM32F0xx_HAL_Driver/Src/stm32f0xx_hal_gpio.c ****     return HAL_OK;
 1118              		.loc 1 484 12
 1119 0044 0023     		movs	r3, #0
 1120 0046 00E0     		b	.L45
 1121              	.L44:
 485:Drivers/STM32F0xx_HAL_Driver/Src/stm32f0xx_hal_gpio.c ****   }
 486:Drivers/STM32F0xx_HAL_Driver/Src/stm32f0xx_hal_gpio.c ****   else
 487:Drivers/STM32F0xx_HAL_Driver/Src/stm32f0xx_hal_gpio.c ****   {
 488:Drivers/STM32F0xx_HAL_Driver/Src/stm32f0xx_hal_gpio.c ****     return HAL_ERROR;
 1122              		.loc 1 488 12
 1123 0048 0123     		movs	r3, #1
 1124              	.L45:
 489:Drivers/STM32F0xx_HAL_Driver/Src/stm32f0xx_hal_gpio.c ****   }
 490:Drivers/STM32F0xx_HAL_Driver/Src/stm32f0xx_hal_gpio.c **** }
 1125              		.loc 1 490 1
 1126 004a 1800     		movs	r0, r3
 1127 004c BD46     		mov	sp, r7
 1128 004e 04B0     		add	sp, sp, #16
 1129              		@ sp needed
 1130 0050 80BD     		pop	{r7, pc}
 1131              		.cfi_endproc
 1132              	.LFE45:
 1134              		.section	.text.HAL_GPIO_EXTI_IRQHandler,"ax",%progbits
 1135              		.align	1
 1136              		.global	HAL_GPIO_EXTI_IRQHandler
 1137              		.syntax unified
 1138              		.code	16
 1139              		.thumb_func
 1141              	HAL_GPIO_EXTI_IRQHandler:
 1142              	.LFB46:
 491:Drivers/STM32F0xx_HAL_Driver/Src/stm32f0xx_hal_gpio.c **** 
 492:Drivers/STM32F0xx_HAL_Driver/Src/stm32f0xx_hal_gpio.c **** /**
 493:Drivers/STM32F0xx_HAL_Driver/Src/stm32f0xx_hal_gpio.c ****   * @brief  Handle EXTI interrupt request.
 494:Drivers/STM32F0xx_HAL_Driver/Src/stm32f0xx_hal_gpio.c ****   * @param  GPIO_Pin Specifies the port pin connected to corresponding EXTI line.
 495:Drivers/STM32F0xx_HAL_Driver/Src/stm32f0xx_hal_gpio.c ****   * @retval None
 496:Drivers/STM32F0xx_HAL_Driver/Src/stm32f0xx_hal_gpio.c ****   */
 497:Drivers/STM32F0xx_HAL_Driver/Src/stm32f0xx_hal_gpio.c **** void HAL_GPIO_EXTI_IRQHandler(uint16_t GPIO_Pin)
 498:Drivers/STM32F0xx_HAL_Driver/Src/stm32f0xx_hal_gpio.c **** {
 1143              		.loc 1 498 1
 1144              		.cfi_startproc
 1145              		@ args = 0, pretend = 0, frame = 8
 1146              		@ frame_needed = 1, uses_anonymous_args = 0
 1147 0000 80B5     		push	{r7, lr}
 1148              	.LCFI18:
 1149              		.cfi_def_cfa_offset 8
 1150              		.cfi_offset 7, -8
 1151              		.cfi_offset 14, -4
 1152 0002 82B0     		sub	sp, sp, #8
 1153              	.LCFI19:
 1154              		.cfi_def_cfa_offset 16
 1155 0004 00AF     		add	r7, sp, #0
 1156              	.LCFI20:
 1157              		.cfi_def_cfa_register 7
 1158 0006 0200     		movs	r2, r0
 1159 0008 BB1D     		adds	r3, r7, #6
 1160 000a 1A80     		strh	r2, [r3]
ARM GAS  C:\Users\mason\AppData\Local\Temp\ccu1VdX1.s 			page 30


 499:Drivers/STM32F0xx_HAL_Driver/Src/stm32f0xx_hal_gpio.c ****   /* EXTI line interrupt detected */
 500:Drivers/STM32F0xx_HAL_Driver/Src/stm32f0xx_hal_gpio.c ****   if(__HAL_GPIO_EXTI_GET_IT(GPIO_Pin) != 0x00u)
 1161              		.loc 1 500 6
 1162 000c 094B     		ldr	r3, .L49
 1163 000e 5B69     		ldr	r3, [r3, #20]
 1164 0010 BA1D     		adds	r2, r7, #6
 1165 0012 1288     		ldrh	r2, [r2]
 1166 0014 1340     		ands	r3, r2
 1167              		.loc 1 500 5
 1168 0016 08D0     		beq	.L48
 501:Drivers/STM32F0xx_HAL_Driver/Src/stm32f0xx_hal_gpio.c ****   { 
 502:Drivers/STM32F0xx_HAL_Driver/Src/stm32f0xx_hal_gpio.c ****     __HAL_GPIO_EXTI_CLEAR_IT(GPIO_Pin);
 1169              		.loc 1 502 5
 1170 0018 064B     		ldr	r3, .L49
 1171 001a BA1D     		adds	r2, r7, #6
 1172 001c 1288     		ldrh	r2, [r2]
 1173 001e 5A61     		str	r2, [r3, #20]
 503:Drivers/STM32F0xx_HAL_Driver/Src/stm32f0xx_hal_gpio.c ****     HAL_GPIO_EXTI_Callback(GPIO_Pin);
 1174              		.loc 1 503 5
 1175 0020 BB1D     		adds	r3, r7, #6
 1176 0022 1B88     		ldrh	r3, [r3]
 1177 0024 1800     		movs	r0, r3
 1178 0026 FFF7FEFF 		bl	HAL_GPIO_EXTI_Callback
 1179              	.L48:
 504:Drivers/STM32F0xx_HAL_Driver/Src/stm32f0xx_hal_gpio.c ****   }
 505:Drivers/STM32F0xx_HAL_Driver/Src/stm32f0xx_hal_gpio.c **** }
 1180              		.loc 1 505 1
 1181 002a C046     		nop
 1182 002c BD46     		mov	sp, r7
 1183 002e 02B0     		add	sp, sp, #8
 1184              		@ sp needed
 1185 0030 80BD     		pop	{r7, pc}
 1186              	.L50:
 1187 0032 C046     		.align	2
 1188              	.L49:
 1189 0034 00040140 		.word	1073808384
 1190              		.cfi_endproc
 1191              	.LFE46:
 1193              		.section	.text.HAL_GPIO_EXTI_Callback,"ax",%progbits
 1194              		.align	1
 1195              		.weak	HAL_GPIO_EXTI_Callback
 1196              		.syntax unified
 1197              		.code	16
 1198              		.thumb_func
 1200              	HAL_GPIO_EXTI_Callback:
 1201              	.LFB47:
 506:Drivers/STM32F0xx_HAL_Driver/Src/stm32f0xx_hal_gpio.c **** 
 507:Drivers/STM32F0xx_HAL_Driver/Src/stm32f0xx_hal_gpio.c **** /**
 508:Drivers/STM32F0xx_HAL_Driver/Src/stm32f0xx_hal_gpio.c ****   * @brief  EXTI line detection callback.
 509:Drivers/STM32F0xx_HAL_Driver/Src/stm32f0xx_hal_gpio.c ****   * @param  GPIO_Pin Specifies the port pin connected to corresponding EXTI line.
 510:Drivers/STM32F0xx_HAL_Driver/Src/stm32f0xx_hal_gpio.c ****   * @retval None
 511:Drivers/STM32F0xx_HAL_Driver/Src/stm32f0xx_hal_gpio.c ****   */
 512:Drivers/STM32F0xx_HAL_Driver/Src/stm32f0xx_hal_gpio.c **** __weak void HAL_GPIO_EXTI_Callback(uint16_t GPIO_Pin)
 513:Drivers/STM32F0xx_HAL_Driver/Src/stm32f0xx_hal_gpio.c **** {
 1202              		.loc 1 513 1
 1203              		.cfi_startproc
 1204              		@ args = 0, pretend = 0, frame = 8
ARM GAS  C:\Users\mason\AppData\Local\Temp\ccu1VdX1.s 			page 31


 1205              		@ frame_needed = 1, uses_anonymous_args = 0
 1206 0000 80B5     		push	{r7, lr}
 1207              	.LCFI21:
 1208              		.cfi_def_cfa_offset 8
 1209              		.cfi_offset 7, -8
 1210              		.cfi_offset 14, -4
 1211 0002 82B0     		sub	sp, sp, #8
 1212              	.LCFI22:
 1213              		.cfi_def_cfa_offset 16
 1214 0004 00AF     		add	r7, sp, #0
 1215              	.LCFI23:
 1216              		.cfi_def_cfa_register 7
 1217 0006 0200     		movs	r2, r0
 1218 0008 BB1D     		adds	r3, r7, #6
 1219 000a 1A80     		strh	r2, [r3]
 514:Drivers/STM32F0xx_HAL_Driver/Src/stm32f0xx_hal_gpio.c ****   /* Prevent unused argument(s) compilation warning */
 515:Drivers/STM32F0xx_HAL_Driver/Src/stm32f0xx_hal_gpio.c ****   UNUSED(GPIO_Pin);
 516:Drivers/STM32F0xx_HAL_Driver/Src/stm32f0xx_hal_gpio.c **** 
 517:Drivers/STM32F0xx_HAL_Driver/Src/stm32f0xx_hal_gpio.c ****   /* NOTE: This function should not be modified, when the callback is needed,
 518:Drivers/STM32F0xx_HAL_Driver/Src/stm32f0xx_hal_gpio.c ****             the HAL_GPIO_EXTI_Callback could be implemented in the user file
 519:Drivers/STM32F0xx_HAL_Driver/Src/stm32f0xx_hal_gpio.c ****    */ 
 520:Drivers/STM32F0xx_HAL_Driver/Src/stm32f0xx_hal_gpio.c **** }
 1220              		.loc 1 520 1
 1221 000c C046     		nop
 1222 000e BD46     		mov	sp, r7
 1223 0010 02B0     		add	sp, sp, #8
 1224              		@ sp needed
 1225 0012 80BD     		pop	{r7, pc}
 1226              		.cfi_endproc
 1227              	.LFE47:
 1229              		.text
 1230              	.Letext0:
 1231              		.file 2 "c:\\program files (x86)\\openocdarmgccbuildtools\\gcc-arm-none-eabi-10.3-2021.10-win32\\a
 1232              		.file 3 "c:\\program files (x86)\\openocdarmgccbuildtools\\gcc-arm-none-eabi-10.3-2021.10-win32\\a
 1233              		.file 4 "Drivers/CMSIS/Device/ST/STM32F0xx/Include/stm32f031x6.h"
 1234              		.file 5 "Drivers/STM32F0xx_HAL_Driver/Inc/stm32f0xx_hal_def.h"
 1235              		.file 6 "Drivers/STM32F0xx_HAL_Driver/Inc/stm32f0xx_hal_gpio.h"
ARM GAS  C:\Users\mason\AppData\Local\Temp\ccu1VdX1.s 			page 32

