ARM GAS  C:\Users\mason\AppData\Local\Temp\cc7sRjNB.s 			page 1


   1              		.cpu cortex-m0
   2              		.arch armv6s-m
   3              		.fpu softvfp
   4              		.eabi_attribute 20, 1
   5              		.eabi_attribute 21, 1
   6              		.eabi_attribute 23, 3
   7              		.eabi_attribute 24, 1
   8              		.eabi_attribute 25, 1
   9              		.eabi_attribute 26, 1
  10              		.eabi_attribute 30, 6
  11              		.eabi_attribute 34, 0
  12              		.eabi_attribute 18, 4
  13              		.file	"stm32f0xx_hal_flash.c"
  14              		.text
  15              	.Ltext0:
  16              		.cfi_sections	.debug_frame
  17              		.global	pFlash
  18              		.section	.bss.pFlash,"aw",%nobits
  19              		.align	3
  22              	pFlash:
  23 0000 00000000 		.space	32
  23      00000000 
  23      00000000 
  23      00000000 
  23      00000000 
  24              		.section	.text.HAL_FLASH_Program,"ax",%progbits
  25              		.align	1
  26              		.global	HAL_FLASH_Program
  27              		.syntax unified
  28              		.code	16
  29              		.thumb_func
  31              	HAL_FLASH_Program:
  32              	.LFB40:
  33              		.file 1 "Drivers/STM32F0xx_HAL_Driver/Src/stm32f0xx_hal_flash.c"
   1:Drivers/STM32F0xx_HAL_Driver/Src/stm32f0xx_hal_flash.c **** /**
   2:Drivers/STM32F0xx_HAL_Driver/Src/stm32f0xx_hal_flash.c ****   ******************************************************************************
   3:Drivers/STM32F0xx_HAL_Driver/Src/stm32f0xx_hal_flash.c ****   * @file    stm32f0xx_hal_flash.c
   4:Drivers/STM32F0xx_HAL_Driver/Src/stm32f0xx_hal_flash.c ****   * @author  MCD Application Team
   5:Drivers/STM32F0xx_HAL_Driver/Src/stm32f0xx_hal_flash.c ****   * @brief   FLASH HAL module driver.
   6:Drivers/STM32F0xx_HAL_Driver/Src/stm32f0xx_hal_flash.c ****   *          This file provides firmware functions to manage the following 
   7:Drivers/STM32F0xx_HAL_Driver/Src/stm32f0xx_hal_flash.c ****   *          functionalities of the internal FLASH memory:
   8:Drivers/STM32F0xx_HAL_Driver/Src/stm32f0xx_hal_flash.c ****   *           + Program operations functions
   9:Drivers/STM32F0xx_HAL_Driver/Src/stm32f0xx_hal_flash.c ****   *           + Memory Control functions 
  10:Drivers/STM32F0xx_HAL_Driver/Src/stm32f0xx_hal_flash.c ****   *           + Peripheral State functions
  11:Drivers/STM32F0xx_HAL_Driver/Src/stm32f0xx_hal_flash.c ****   *         
  12:Drivers/STM32F0xx_HAL_Driver/Src/stm32f0xx_hal_flash.c ****   @verbatim
  13:Drivers/STM32F0xx_HAL_Driver/Src/stm32f0xx_hal_flash.c ****   ==============================================================================
  14:Drivers/STM32F0xx_HAL_Driver/Src/stm32f0xx_hal_flash.c ****                         ##### FLASH peripheral features #####
  15:Drivers/STM32F0xx_HAL_Driver/Src/stm32f0xx_hal_flash.c ****   ==============================================================================
  16:Drivers/STM32F0xx_HAL_Driver/Src/stm32f0xx_hal_flash.c ****   [..] The Flash memory interface manages CPU AHB I-Code and D-Code accesses 
  17:Drivers/STM32F0xx_HAL_Driver/Src/stm32f0xx_hal_flash.c ****        to the Flash memory. It implements the erase and program Flash memory operations 
  18:Drivers/STM32F0xx_HAL_Driver/Src/stm32f0xx_hal_flash.c ****        and the read and write protection mechanisms.
  19:Drivers/STM32F0xx_HAL_Driver/Src/stm32f0xx_hal_flash.c **** 
  20:Drivers/STM32F0xx_HAL_Driver/Src/stm32f0xx_hal_flash.c ****   [..] The Flash memory interface accelerates code execution with a system of instruction
  21:Drivers/STM32F0xx_HAL_Driver/Src/stm32f0xx_hal_flash.c ****       prefetch. 
  22:Drivers/STM32F0xx_HAL_Driver/Src/stm32f0xx_hal_flash.c **** 
  23:Drivers/STM32F0xx_HAL_Driver/Src/stm32f0xx_hal_flash.c ****   [..] The FLASH main features are:
ARM GAS  C:\Users\mason\AppData\Local\Temp\cc7sRjNB.s 			page 2


  24:Drivers/STM32F0xx_HAL_Driver/Src/stm32f0xx_hal_flash.c ****       (+) Flash memory read operations
  25:Drivers/STM32F0xx_HAL_Driver/Src/stm32f0xx_hal_flash.c ****       (+) Flash memory program/erase operations
  26:Drivers/STM32F0xx_HAL_Driver/Src/stm32f0xx_hal_flash.c ****       (+) Read / write protections
  27:Drivers/STM32F0xx_HAL_Driver/Src/stm32f0xx_hal_flash.c ****       (+) Prefetch on I-Code
  28:Drivers/STM32F0xx_HAL_Driver/Src/stm32f0xx_hal_flash.c ****       (+) Option Bytes programming
  29:Drivers/STM32F0xx_HAL_Driver/Src/stm32f0xx_hal_flash.c **** 
  30:Drivers/STM32F0xx_HAL_Driver/Src/stm32f0xx_hal_flash.c **** 
  31:Drivers/STM32F0xx_HAL_Driver/Src/stm32f0xx_hal_flash.c ****                      ##### How to use this driver #####
  32:Drivers/STM32F0xx_HAL_Driver/Src/stm32f0xx_hal_flash.c ****   ==============================================================================
  33:Drivers/STM32F0xx_HAL_Driver/Src/stm32f0xx_hal_flash.c ****   [..]                             
  34:Drivers/STM32F0xx_HAL_Driver/Src/stm32f0xx_hal_flash.c ****       This driver provides functions and macros to configure and program the FLASH 
  35:Drivers/STM32F0xx_HAL_Driver/Src/stm32f0xx_hal_flash.c ****       memory of all STM32F0xx devices.
  36:Drivers/STM32F0xx_HAL_Driver/Src/stm32f0xx_hal_flash.c ****     
  37:Drivers/STM32F0xx_HAL_Driver/Src/stm32f0xx_hal_flash.c ****       (#) FLASH Memory I/O Programming functions: this group includes all needed
  38:Drivers/STM32F0xx_HAL_Driver/Src/stm32f0xx_hal_flash.c ****           functions to erase and program the main memory:
  39:Drivers/STM32F0xx_HAL_Driver/Src/stm32f0xx_hal_flash.c ****         (++) Lock and Unlock the FLASH interface
  40:Drivers/STM32F0xx_HAL_Driver/Src/stm32f0xx_hal_flash.c ****         (++) Erase function: Erase page, erase all pages
  41:Drivers/STM32F0xx_HAL_Driver/Src/stm32f0xx_hal_flash.c ****         (++) Program functions: half word, word and doubleword
  42:Drivers/STM32F0xx_HAL_Driver/Src/stm32f0xx_hal_flash.c ****       (#) FLASH Option Bytes Programming functions: this group includes all needed
  43:Drivers/STM32F0xx_HAL_Driver/Src/stm32f0xx_hal_flash.c ****           functions to manage the Option Bytes:
  44:Drivers/STM32F0xx_HAL_Driver/Src/stm32f0xx_hal_flash.c ****         (++) Lock and Unlock the Option Bytes
  45:Drivers/STM32F0xx_HAL_Driver/Src/stm32f0xx_hal_flash.c ****         (++) Set/Reset the write protection
  46:Drivers/STM32F0xx_HAL_Driver/Src/stm32f0xx_hal_flash.c ****         (++) Set the Read protection Level
  47:Drivers/STM32F0xx_HAL_Driver/Src/stm32f0xx_hal_flash.c ****         (++) Program the user Option Bytes
  48:Drivers/STM32F0xx_HAL_Driver/Src/stm32f0xx_hal_flash.c ****         (++) Launch the Option Bytes loader
  49:Drivers/STM32F0xx_HAL_Driver/Src/stm32f0xx_hal_flash.c ****         (++) Erase Option Bytes
  50:Drivers/STM32F0xx_HAL_Driver/Src/stm32f0xx_hal_flash.c ****         (++) Program the data Option Bytes
  51:Drivers/STM32F0xx_HAL_Driver/Src/stm32f0xx_hal_flash.c ****         (++) Get the Write protection.
  52:Drivers/STM32F0xx_HAL_Driver/Src/stm32f0xx_hal_flash.c ****         (++) Get the user option bytes.
  53:Drivers/STM32F0xx_HAL_Driver/Src/stm32f0xx_hal_flash.c ****     
  54:Drivers/STM32F0xx_HAL_Driver/Src/stm32f0xx_hal_flash.c ****       (#) Interrupts and flags management functions : this group 
  55:Drivers/STM32F0xx_HAL_Driver/Src/stm32f0xx_hal_flash.c ****           includes all needed functions to:
  56:Drivers/STM32F0xx_HAL_Driver/Src/stm32f0xx_hal_flash.c ****         (++) Handle FLASH interrupts
  57:Drivers/STM32F0xx_HAL_Driver/Src/stm32f0xx_hal_flash.c ****         (++) Wait for last FLASH operation according to its status
  58:Drivers/STM32F0xx_HAL_Driver/Src/stm32f0xx_hal_flash.c ****         (++) Get error flag status
  59:Drivers/STM32F0xx_HAL_Driver/Src/stm32f0xx_hal_flash.c **** 
  60:Drivers/STM32F0xx_HAL_Driver/Src/stm32f0xx_hal_flash.c ****   [..] In addition to these function, this driver includes a set of macros allowing
  61:Drivers/STM32F0xx_HAL_Driver/Src/stm32f0xx_hal_flash.c ****        to handle the following operations:
  62:Drivers/STM32F0xx_HAL_Driver/Src/stm32f0xx_hal_flash.c ****       
  63:Drivers/STM32F0xx_HAL_Driver/Src/stm32f0xx_hal_flash.c ****       (+) Set/Get the latency
  64:Drivers/STM32F0xx_HAL_Driver/Src/stm32f0xx_hal_flash.c ****       (+) Enable/Disable the prefetch buffer
  65:Drivers/STM32F0xx_HAL_Driver/Src/stm32f0xx_hal_flash.c ****       (+) Enable/Disable the FLASH interrupts
  66:Drivers/STM32F0xx_HAL_Driver/Src/stm32f0xx_hal_flash.c ****       (+) Monitor the FLASH flags status
  67:Drivers/STM32F0xx_HAL_Driver/Src/stm32f0xx_hal_flash.c ****           
  68:Drivers/STM32F0xx_HAL_Driver/Src/stm32f0xx_hal_flash.c ****   @endverbatim
  69:Drivers/STM32F0xx_HAL_Driver/Src/stm32f0xx_hal_flash.c ****   ******************************************************************************
  70:Drivers/STM32F0xx_HAL_Driver/Src/stm32f0xx_hal_flash.c ****   * @attention
  71:Drivers/STM32F0xx_HAL_Driver/Src/stm32f0xx_hal_flash.c ****   *
  72:Drivers/STM32F0xx_HAL_Driver/Src/stm32f0xx_hal_flash.c ****   * Copyright (c) 2016 STMicroelectronics.
  73:Drivers/STM32F0xx_HAL_Driver/Src/stm32f0xx_hal_flash.c ****   * All rights reserved.
  74:Drivers/STM32F0xx_HAL_Driver/Src/stm32f0xx_hal_flash.c ****   *
  75:Drivers/STM32F0xx_HAL_Driver/Src/stm32f0xx_hal_flash.c ****   * This software is licensed under terms that can be found in the LICENSE file in
  76:Drivers/STM32F0xx_HAL_Driver/Src/stm32f0xx_hal_flash.c ****   * the root directory of this software component.
  77:Drivers/STM32F0xx_HAL_Driver/Src/stm32f0xx_hal_flash.c ****   * If no LICENSE file comes with this software, it is provided AS-IS.
  78:Drivers/STM32F0xx_HAL_Driver/Src/stm32f0xx_hal_flash.c ****   ******************************************************************************
  79:Drivers/STM32F0xx_HAL_Driver/Src/stm32f0xx_hal_flash.c ****   */
  80:Drivers/STM32F0xx_HAL_Driver/Src/stm32f0xx_hal_flash.c **** 
ARM GAS  C:\Users\mason\AppData\Local\Temp\cc7sRjNB.s 			page 3


  81:Drivers/STM32F0xx_HAL_Driver/Src/stm32f0xx_hal_flash.c **** /* Includes ------------------------------------------------------------------*/
  82:Drivers/STM32F0xx_HAL_Driver/Src/stm32f0xx_hal_flash.c **** #include "stm32f0xx_hal.h"
  83:Drivers/STM32F0xx_HAL_Driver/Src/stm32f0xx_hal_flash.c **** 
  84:Drivers/STM32F0xx_HAL_Driver/Src/stm32f0xx_hal_flash.c **** /** @addtogroup STM32F0xx_HAL_Driver
  85:Drivers/STM32F0xx_HAL_Driver/Src/stm32f0xx_hal_flash.c ****   * @{
  86:Drivers/STM32F0xx_HAL_Driver/Src/stm32f0xx_hal_flash.c ****   */
  87:Drivers/STM32F0xx_HAL_Driver/Src/stm32f0xx_hal_flash.c **** 
  88:Drivers/STM32F0xx_HAL_Driver/Src/stm32f0xx_hal_flash.c **** #ifdef HAL_FLASH_MODULE_ENABLED
  89:Drivers/STM32F0xx_HAL_Driver/Src/stm32f0xx_hal_flash.c **** 
  90:Drivers/STM32F0xx_HAL_Driver/Src/stm32f0xx_hal_flash.c **** /** @defgroup FLASH FLASH
  91:Drivers/STM32F0xx_HAL_Driver/Src/stm32f0xx_hal_flash.c ****   * @brief FLASH HAL module driver
  92:Drivers/STM32F0xx_HAL_Driver/Src/stm32f0xx_hal_flash.c ****   * @{
  93:Drivers/STM32F0xx_HAL_Driver/Src/stm32f0xx_hal_flash.c ****   */
  94:Drivers/STM32F0xx_HAL_Driver/Src/stm32f0xx_hal_flash.c **** 
  95:Drivers/STM32F0xx_HAL_Driver/Src/stm32f0xx_hal_flash.c **** /* Private typedef -----------------------------------------------------------*/
  96:Drivers/STM32F0xx_HAL_Driver/Src/stm32f0xx_hal_flash.c **** /* Private define ------------------------------------------------------------*/
  97:Drivers/STM32F0xx_HAL_Driver/Src/stm32f0xx_hal_flash.c **** /** @defgroup FLASH_Private_Constants FLASH Private Constants
  98:Drivers/STM32F0xx_HAL_Driver/Src/stm32f0xx_hal_flash.c ****   * @{
  99:Drivers/STM32F0xx_HAL_Driver/Src/stm32f0xx_hal_flash.c ****   */
 100:Drivers/STM32F0xx_HAL_Driver/Src/stm32f0xx_hal_flash.c **** /**
 101:Drivers/STM32F0xx_HAL_Driver/Src/stm32f0xx_hal_flash.c ****   * @}
 102:Drivers/STM32F0xx_HAL_Driver/Src/stm32f0xx_hal_flash.c ****   */
 103:Drivers/STM32F0xx_HAL_Driver/Src/stm32f0xx_hal_flash.c **** 
 104:Drivers/STM32F0xx_HAL_Driver/Src/stm32f0xx_hal_flash.c **** /* Private macro ---------------------------- ---------------------------------*/
 105:Drivers/STM32F0xx_HAL_Driver/Src/stm32f0xx_hal_flash.c **** /** @defgroup FLASH_Private_Macros FLASH Private Macros
 106:Drivers/STM32F0xx_HAL_Driver/Src/stm32f0xx_hal_flash.c ****   * @{
 107:Drivers/STM32F0xx_HAL_Driver/Src/stm32f0xx_hal_flash.c ****   */
 108:Drivers/STM32F0xx_HAL_Driver/Src/stm32f0xx_hal_flash.c ****  
 109:Drivers/STM32F0xx_HAL_Driver/Src/stm32f0xx_hal_flash.c **** /**
 110:Drivers/STM32F0xx_HAL_Driver/Src/stm32f0xx_hal_flash.c ****   * @}
 111:Drivers/STM32F0xx_HAL_Driver/Src/stm32f0xx_hal_flash.c ****   */
 112:Drivers/STM32F0xx_HAL_Driver/Src/stm32f0xx_hal_flash.c **** 
 113:Drivers/STM32F0xx_HAL_Driver/Src/stm32f0xx_hal_flash.c **** /* Private variables ---------------------------------------------------------*/
 114:Drivers/STM32F0xx_HAL_Driver/Src/stm32f0xx_hal_flash.c **** /** @defgroup FLASH_Private_Variables FLASH Private Variables
 115:Drivers/STM32F0xx_HAL_Driver/Src/stm32f0xx_hal_flash.c ****   * @{
 116:Drivers/STM32F0xx_HAL_Driver/Src/stm32f0xx_hal_flash.c ****   */
 117:Drivers/STM32F0xx_HAL_Driver/Src/stm32f0xx_hal_flash.c **** /* Variables used for Erase pages under interruption*/
 118:Drivers/STM32F0xx_HAL_Driver/Src/stm32f0xx_hal_flash.c **** FLASH_ProcessTypeDef pFlash;
 119:Drivers/STM32F0xx_HAL_Driver/Src/stm32f0xx_hal_flash.c **** /**
 120:Drivers/STM32F0xx_HAL_Driver/Src/stm32f0xx_hal_flash.c ****   * @}
 121:Drivers/STM32F0xx_HAL_Driver/Src/stm32f0xx_hal_flash.c ****   */
 122:Drivers/STM32F0xx_HAL_Driver/Src/stm32f0xx_hal_flash.c **** 
 123:Drivers/STM32F0xx_HAL_Driver/Src/stm32f0xx_hal_flash.c **** /* Private function prototypes -----------------------------------------------*/
 124:Drivers/STM32F0xx_HAL_Driver/Src/stm32f0xx_hal_flash.c **** /** @defgroup FLASH_Private_Functions FLASH Private Functions
 125:Drivers/STM32F0xx_HAL_Driver/Src/stm32f0xx_hal_flash.c ****   * @{
 126:Drivers/STM32F0xx_HAL_Driver/Src/stm32f0xx_hal_flash.c ****   */
 127:Drivers/STM32F0xx_HAL_Driver/Src/stm32f0xx_hal_flash.c **** static  void   FLASH_Program_HalfWord(uint32_t Address, uint16_t Data);
 128:Drivers/STM32F0xx_HAL_Driver/Src/stm32f0xx_hal_flash.c **** static  void   FLASH_SetErrorCode(void);
 129:Drivers/STM32F0xx_HAL_Driver/Src/stm32f0xx_hal_flash.c **** extern void    FLASH_PageErase(uint32_t PageAddress);
 130:Drivers/STM32F0xx_HAL_Driver/Src/stm32f0xx_hal_flash.c **** /**
 131:Drivers/STM32F0xx_HAL_Driver/Src/stm32f0xx_hal_flash.c ****   * @}
 132:Drivers/STM32F0xx_HAL_Driver/Src/stm32f0xx_hal_flash.c ****   */
 133:Drivers/STM32F0xx_HAL_Driver/Src/stm32f0xx_hal_flash.c **** 
 134:Drivers/STM32F0xx_HAL_Driver/Src/stm32f0xx_hal_flash.c **** /* Exported functions ---------------------------------------------------------*/
 135:Drivers/STM32F0xx_HAL_Driver/Src/stm32f0xx_hal_flash.c **** /** @defgroup FLASH_Exported_Functions FLASH Exported Functions
 136:Drivers/STM32F0xx_HAL_Driver/Src/stm32f0xx_hal_flash.c ****   * @{
 137:Drivers/STM32F0xx_HAL_Driver/Src/stm32f0xx_hal_flash.c ****   */
ARM GAS  C:\Users\mason\AppData\Local\Temp\cc7sRjNB.s 			page 4


 138:Drivers/STM32F0xx_HAL_Driver/Src/stm32f0xx_hal_flash.c ****   
 139:Drivers/STM32F0xx_HAL_Driver/Src/stm32f0xx_hal_flash.c **** /** @defgroup FLASH_Exported_Functions_Group1 Programming operation functions 
 140:Drivers/STM32F0xx_HAL_Driver/Src/stm32f0xx_hal_flash.c ****   *  @brief   Programming operation functions 
 141:Drivers/STM32F0xx_HAL_Driver/Src/stm32f0xx_hal_flash.c ****   *
 142:Drivers/STM32F0xx_HAL_Driver/Src/stm32f0xx_hal_flash.c **** @verbatim   
 143:Drivers/STM32F0xx_HAL_Driver/Src/stm32f0xx_hal_flash.c **** @endverbatim
 144:Drivers/STM32F0xx_HAL_Driver/Src/stm32f0xx_hal_flash.c ****   * @{
 145:Drivers/STM32F0xx_HAL_Driver/Src/stm32f0xx_hal_flash.c ****   */
 146:Drivers/STM32F0xx_HAL_Driver/Src/stm32f0xx_hal_flash.c **** 
 147:Drivers/STM32F0xx_HAL_Driver/Src/stm32f0xx_hal_flash.c **** /**
 148:Drivers/STM32F0xx_HAL_Driver/Src/stm32f0xx_hal_flash.c ****   * @brief  Program halfword, word or double word at a specified address
 149:Drivers/STM32F0xx_HAL_Driver/Src/stm32f0xx_hal_flash.c ****   * @note   The function HAL_FLASH_Unlock() should be called before to unlock the FLASH interface
 150:Drivers/STM32F0xx_HAL_Driver/Src/stm32f0xx_hal_flash.c ****   *         The function HAL_FLASH_Lock() should be called after to lock the FLASH interface
 151:Drivers/STM32F0xx_HAL_Driver/Src/stm32f0xx_hal_flash.c ****   *
 152:Drivers/STM32F0xx_HAL_Driver/Src/stm32f0xx_hal_flash.c ****   * @note   If an erase and a program operations are requested simultaneously,    
 153:Drivers/STM32F0xx_HAL_Driver/Src/stm32f0xx_hal_flash.c ****   *         the erase operation is performed before the program one.
 154:Drivers/STM32F0xx_HAL_Driver/Src/stm32f0xx_hal_flash.c ****   *  
 155:Drivers/STM32F0xx_HAL_Driver/Src/stm32f0xx_hal_flash.c ****   * @note   FLASH should be previously erased before new programming (only exception to this 
 156:Drivers/STM32F0xx_HAL_Driver/Src/stm32f0xx_hal_flash.c ****   *         is when 0x0000 is programmed)
 157:Drivers/STM32F0xx_HAL_Driver/Src/stm32f0xx_hal_flash.c ****   *
 158:Drivers/STM32F0xx_HAL_Driver/Src/stm32f0xx_hal_flash.c ****   * @param  TypeProgram   Indicate the way to program at a specified address.
 159:Drivers/STM32F0xx_HAL_Driver/Src/stm32f0xx_hal_flash.c ****   *                       This parameter can be a value of @ref FLASH_Type_Program
 160:Drivers/STM32F0xx_HAL_Driver/Src/stm32f0xx_hal_flash.c ****   * @param  Address       Specifie the address to be programmed.
 161:Drivers/STM32F0xx_HAL_Driver/Src/stm32f0xx_hal_flash.c ****   * @param  Data          Specifie the data to be programmed
 162:Drivers/STM32F0xx_HAL_Driver/Src/stm32f0xx_hal_flash.c ****   * 
 163:Drivers/STM32F0xx_HAL_Driver/Src/stm32f0xx_hal_flash.c ****   * @retval HAL_StatusTypeDef HAL Status
 164:Drivers/STM32F0xx_HAL_Driver/Src/stm32f0xx_hal_flash.c ****   */
 165:Drivers/STM32F0xx_HAL_Driver/Src/stm32f0xx_hal_flash.c **** HAL_StatusTypeDef HAL_FLASH_Program(uint32_t TypeProgram, uint32_t Address, uint64_t Data)
 166:Drivers/STM32F0xx_HAL_Driver/Src/stm32f0xx_hal_flash.c **** {
  34              		.loc 1 166 1
  35              		.cfi_startproc
  36              		@ args = 0, pretend = 0, frame = 24
  37              		@ frame_needed = 1, uses_anonymous_args = 0
  38 0000 F0B5     		push	{r4, r5, r6, r7, lr}
  39              	.LCFI0:
  40              		.cfi_def_cfa_offset 20
  41              		.cfi_offset 4, -20
  42              		.cfi_offset 5, -16
  43              		.cfi_offset 6, -12
  44              		.cfi_offset 7, -8
  45              		.cfi_offset 14, -4
  46 0002 87B0     		sub	sp, sp, #28
  47              	.LCFI1:
  48              		.cfi_def_cfa_offset 48
  49 0004 00AF     		add	r7, sp, #0
  50              	.LCFI2:
  51              		.cfi_def_cfa_register 7
  52 0006 F860     		str	r0, [r7, #12]
  53 0008 B960     		str	r1, [r7, #8]
  54 000a 3A60     		str	r2, [r7]
  55 000c 7B60     		str	r3, [r7, #4]
 167:Drivers/STM32F0xx_HAL_Driver/Src/stm32f0xx_hal_flash.c ****   HAL_StatusTypeDef status = HAL_ERROR;
  56              		.loc 1 167 21
  57 000e 1723     		movs	r3, #23
  58 0010 FB18     		adds	r3, r7, r3
  59 0012 0122     		movs	r2, #1
  60 0014 1A70     		strb	r2, [r3]
ARM GAS  C:\Users\mason\AppData\Local\Temp\cc7sRjNB.s 			page 5


 168:Drivers/STM32F0xx_HAL_Driver/Src/stm32f0xx_hal_flash.c ****   uint8_t index = 0U;
  61              		.loc 1 168 11
  62 0016 1623     		movs	r3, #22
  63 0018 FB18     		adds	r3, r7, r3
  64 001a 0022     		movs	r2, #0
  65 001c 1A70     		strb	r2, [r3]
 169:Drivers/STM32F0xx_HAL_Driver/Src/stm32f0xx_hal_flash.c ****   uint8_t nbiterations = 0U;
  66              		.loc 1 169 11
  67 001e 1523     		movs	r3, #21
  68 0020 FB18     		adds	r3, r7, r3
  69 0022 0022     		movs	r2, #0
  70 0024 1A70     		strb	r2, [r3]
 170:Drivers/STM32F0xx_HAL_Driver/Src/stm32f0xx_hal_flash.c ****   
 171:Drivers/STM32F0xx_HAL_Driver/Src/stm32f0xx_hal_flash.c ****   /* Process Locked */
 172:Drivers/STM32F0xx_HAL_Driver/Src/stm32f0xx_hal_flash.c ****   __HAL_LOCK(&pFlash);
  71              		.loc 1 172 3
  72 0026 3E4B     		ldr	r3, .L14
  73 0028 1B7E     		ldrb	r3, [r3, #24]
  74 002a 012B     		cmp	r3, #1
  75 002c 01D1     		bne	.L2
  76              		.loc 1 172 3 is_stmt 0 discriminator 1
  77 002e 0223     		movs	r3, #2
  78 0030 72E0     		b	.L3
  79              	.L2:
  80              		.loc 1 172 3 discriminator 2
  81 0032 3B4B     		ldr	r3, .L14
  82 0034 0122     		movs	r2, #1
  83 0036 1A76     		strb	r2, [r3, #24]
 173:Drivers/STM32F0xx_HAL_Driver/Src/stm32f0xx_hal_flash.c **** 
 174:Drivers/STM32F0xx_HAL_Driver/Src/stm32f0xx_hal_flash.c ****   /* Check the parameters */
 175:Drivers/STM32F0xx_HAL_Driver/Src/stm32f0xx_hal_flash.c ****   assert_param(IS_FLASH_TYPEPROGRAM(TypeProgram));
 176:Drivers/STM32F0xx_HAL_Driver/Src/stm32f0xx_hal_flash.c ****   assert_param(IS_FLASH_PROGRAM_ADDRESS(Address));
 177:Drivers/STM32F0xx_HAL_Driver/Src/stm32f0xx_hal_flash.c **** 
 178:Drivers/STM32F0xx_HAL_Driver/Src/stm32f0xx_hal_flash.c ****     /* Wait for last operation to be completed */
 179:Drivers/STM32F0xx_HAL_Driver/Src/stm32f0xx_hal_flash.c ****     status = FLASH_WaitForLastOperation(FLASH_TIMEOUT_VALUE);
  84              		.loc 1 179 14 is_stmt 1 discriminator 2
  85 0038 1723     		movs	r3, #23
  86 003a FE18     		adds	r6, r7, r3
  87 003c 394B     		ldr	r3, .L14+4
  88 003e 1800     		movs	r0, r3
  89 0040 FFF7FEFF 		bl	FLASH_WaitForLastOperation
  90 0044 0300     		movs	r3, r0
  91 0046 3370     		strb	r3, [r6]
 180:Drivers/STM32F0xx_HAL_Driver/Src/stm32f0xx_hal_flash.c ****   
 181:Drivers/STM32F0xx_HAL_Driver/Src/stm32f0xx_hal_flash.c ****   if(status == HAL_OK)
  92              		.loc 1 181 5 discriminator 2
  93 0048 1723     		movs	r3, #23
  94 004a FB18     		adds	r3, r7, r3
  95 004c 1B78     		ldrb	r3, [r3]
  96 004e 002B     		cmp	r3, #0
  97 0050 5CD1     		bne	.L4
 182:Drivers/STM32F0xx_HAL_Driver/Src/stm32f0xx_hal_flash.c ****   {
 183:Drivers/STM32F0xx_HAL_Driver/Src/stm32f0xx_hal_flash.c ****     if(TypeProgram == FLASH_TYPEPROGRAM_HALFWORD)
  98              		.loc 1 183 7
  99 0052 FB68     		ldr	r3, [r7, #12]
 100 0054 012B     		cmp	r3, #1
 101 0056 04D1     		bne	.L5
ARM GAS  C:\Users\mason\AppData\Local\Temp\cc7sRjNB.s 			page 6


 184:Drivers/STM32F0xx_HAL_Driver/Src/stm32f0xx_hal_flash.c ****     {
 185:Drivers/STM32F0xx_HAL_Driver/Src/stm32f0xx_hal_flash.c ****       /* Program halfword (16-bit) at a specified address. */
 186:Drivers/STM32F0xx_HAL_Driver/Src/stm32f0xx_hal_flash.c ****       nbiterations = 1U;
 102              		.loc 1 186 20
 103 0058 1523     		movs	r3, #21
 104 005a FB18     		adds	r3, r7, r3
 105 005c 0122     		movs	r2, #1
 106 005e 1A70     		strb	r2, [r3]
 107 0060 0BE0     		b	.L6
 108              	.L5:
 187:Drivers/STM32F0xx_HAL_Driver/Src/stm32f0xx_hal_flash.c ****     }
 188:Drivers/STM32F0xx_HAL_Driver/Src/stm32f0xx_hal_flash.c ****     else if(TypeProgram == FLASH_TYPEPROGRAM_WORD)
 109              		.loc 1 188 12
 110 0062 FB68     		ldr	r3, [r7, #12]
 111 0064 022B     		cmp	r3, #2
 112 0066 04D1     		bne	.L7
 189:Drivers/STM32F0xx_HAL_Driver/Src/stm32f0xx_hal_flash.c ****     {
 190:Drivers/STM32F0xx_HAL_Driver/Src/stm32f0xx_hal_flash.c ****       /* Program word (32-bit = 2*16-bit) at a specified address. */
 191:Drivers/STM32F0xx_HAL_Driver/Src/stm32f0xx_hal_flash.c ****       nbiterations = 2U;
 113              		.loc 1 191 20
 114 0068 1523     		movs	r3, #21
 115 006a FB18     		adds	r3, r7, r3
 116 006c 0222     		movs	r2, #2
 117 006e 1A70     		strb	r2, [r3]
 118 0070 03E0     		b	.L6
 119              	.L7:
 192:Drivers/STM32F0xx_HAL_Driver/Src/stm32f0xx_hal_flash.c ****     }
 193:Drivers/STM32F0xx_HAL_Driver/Src/stm32f0xx_hal_flash.c ****     else
 194:Drivers/STM32F0xx_HAL_Driver/Src/stm32f0xx_hal_flash.c ****     {
 195:Drivers/STM32F0xx_HAL_Driver/Src/stm32f0xx_hal_flash.c ****       /* Program double word (64-bit = 4*16-bit) at a specified address. */
 196:Drivers/STM32F0xx_HAL_Driver/Src/stm32f0xx_hal_flash.c ****       nbiterations = 4U;
 120              		.loc 1 196 20
 121 0072 1523     		movs	r3, #21
 122 0074 FB18     		adds	r3, r7, r3
 123 0076 0422     		movs	r2, #4
 124 0078 1A70     		strb	r2, [r3]
 125              	.L6:
 197:Drivers/STM32F0xx_HAL_Driver/Src/stm32f0xx_hal_flash.c ****     }
 198:Drivers/STM32F0xx_HAL_Driver/Src/stm32f0xx_hal_flash.c **** 
 199:Drivers/STM32F0xx_HAL_Driver/Src/stm32f0xx_hal_flash.c ****     for (index = 0U; index < nbiterations; index++)
 126              		.loc 1 199 16
 127 007a 1623     		movs	r3, #22
 128 007c FB18     		adds	r3, r7, r3
 129 007e 0022     		movs	r2, #0
 130 0080 1A70     		strb	r2, [r3]
 131              		.loc 1 199 5
 132 0082 39E0     		b	.L8
 133              	.L12:
 200:Drivers/STM32F0xx_HAL_Driver/Src/stm32f0xx_hal_flash.c ****     {
 201:Drivers/STM32F0xx_HAL_Driver/Src/stm32f0xx_hal_flash.c ****       FLASH_Program_HalfWord((Address + (2U*index)), (uint16_t)(Data >> (16U*index)));
 134              		.loc 1 201 44
 135 0084 1621     		movs	r1, #22
 136 0086 7B18     		adds	r3, r7, r1
 137 0088 1B78     		ldrb	r3, [r3]
 138 008a 5A00     		lsls	r2, r3, #1
 139              		.loc 1 201 7
 140 008c BB68     		ldr	r3, [r7, #8]
ARM GAS  C:\Users\mason\AppData\Local\Temp\cc7sRjNB.s 			page 7


 141 008e D018     		adds	r0, r2, r3
 142              		.loc 1 201 77
 143 0090 7B18     		adds	r3, r7, r1
 144 0092 1B78     		ldrb	r3, [r3]
 145 0094 1B01     		lsls	r3, r3, #4
 146              		.loc 1 201 70
 147 0096 1A00     		movs	r2, r3
 148 0098 203A     		subs	r2, r2, #32
 149 009a 002A     		cmp	r2, #0
 150 009c 03DB     		blt	.L9
 151 009e 7968     		ldr	r1, [r7, #4]
 152 00a0 D140     		lsrs	r1, r1, r2
 153 00a2 0C00     		movs	r4, r1
 154 00a4 08E0     		b	.L10
 155              	.L9:
 156 00a6 2022     		movs	r2, #32
 157 00a8 D21A     		subs	r2, r2, r3
 158 00aa 7968     		ldr	r1, [r7, #4]
 159 00ac 9140     		lsls	r1, r1, r2
 160 00ae 0A00     		movs	r2, r1
 161 00b0 3968     		ldr	r1, [r7]
 162 00b2 D940     		lsrs	r1, r1, r3
 163 00b4 0C00     		movs	r4, r1
 164 00b6 1443     		orrs	r4, r2
 165              	.L10:
 166 00b8 7A68     		ldr	r2, [r7, #4]
 167 00ba DA40     		lsrs	r2, r2, r3
 168 00bc 1500     		movs	r5, r2
 169              		.loc 1 201 7
 170 00be A3B2     		uxth	r3, r4
 171 00c0 1900     		movs	r1, r3
 172 00c2 FFF7FEFF 		bl	FLASH_Program_HalfWord
 202:Drivers/STM32F0xx_HAL_Driver/Src/stm32f0xx_hal_flash.c **** 
 203:Drivers/STM32F0xx_HAL_Driver/Src/stm32f0xx_hal_flash.c ****         /* Wait for last operation to be completed */
 204:Drivers/STM32F0xx_HAL_Driver/Src/stm32f0xx_hal_flash.c ****         status = FLASH_WaitForLastOperation(FLASH_TIMEOUT_VALUE);
 173              		.loc 1 204 18
 174 00c6 1723     		movs	r3, #23
 175 00c8 FE18     		adds	r6, r7, r3
 176 00ca 164B     		ldr	r3, .L14+4
 177 00cc 1800     		movs	r0, r3
 178 00ce FFF7FEFF 		bl	FLASH_WaitForLastOperation
 179 00d2 0300     		movs	r3, r0
 180 00d4 3370     		strb	r3, [r6]
 205:Drivers/STM32F0xx_HAL_Driver/Src/stm32f0xx_hal_flash.c ****     
 206:Drivers/STM32F0xx_HAL_Driver/Src/stm32f0xx_hal_flash.c ****         /* If the program operation is completed, disable the PG Bit */
 207:Drivers/STM32F0xx_HAL_Driver/Src/stm32f0xx_hal_flash.c ****         CLEAR_BIT(FLASH->CR, FLASH_CR_PG);
 181              		.loc 1 207 9
 182 00d6 144B     		ldr	r3, .L14+8
 183 00d8 1A69     		ldr	r2, [r3, #16]
 184 00da 134B     		ldr	r3, .L14+8
 185 00dc 0121     		movs	r1, #1
 186 00de 8A43     		bics	r2, r1
 187 00e0 1A61     		str	r2, [r3, #16]
 208:Drivers/STM32F0xx_HAL_Driver/Src/stm32f0xx_hal_flash.c ****       /* In case of error, stop programming procedure */
 209:Drivers/STM32F0xx_HAL_Driver/Src/stm32f0xx_hal_flash.c ****       if (status != HAL_OK)
 188              		.loc 1 209 10
 189 00e2 1723     		movs	r3, #23
ARM GAS  C:\Users\mason\AppData\Local\Temp\cc7sRjNB.s 			page 8


 190 00e4 FB18     		adds	r3, r7, r3
 191 00e6 1B78     		ldrb	r3, [r3]
 192 00e8 002B     		cmp	r3, #0
 193 00ea 0ED1     		bne	.L13
 199:Drivers/STM32F0xx_HAL_Driver/Src/stm32f0xx_hal_flash.c ****     {
 194              		.loc 1 199 49 discriminator 2
 195 00ec 1621     		movs	r1, #22
 196 00ee 7B18     		adds	r3, r7, r1
 197 00f0 1A78     		ldrb	r2, [r3]
 198 00f2 7B18     		adds	r3, r7, r1
 199 00f4 0132     		adds	r2, r2, #1
 200 00f6 1A70     		strb	r2, [r3]
 201              	.L8:
 199:Drivers/STM32F0xx_HAL_Driver/Src/stm32f0xx_hal_flash.c ****     {
 202              		.loc 1 199 5 discriminator 1
 203 00f8 1623     		movs	r3, #22
 204 00fa FA18     		adds	r2, r7, r3
 205 00fc 1523     		movs	r3, #21
 206 00fe FB18     		adds	r3, r7, r3
 207 0100 1278     		ldrb	r2, [r2]
 208 0102 1B78     		ldrb	r3, [r3]
 209 0104 9A42     		cmp	r2, r3
 210 0106 BDD3     		bcc	.L12
 211 0108 00E0     		b	.L4
 212              	.L13:
 210:Drivers/STM32F0xx_HAL_Driver/Src/stm32f0xx_hal_flash.c ****       {
 211:Drivers/STM32F0xx_HAL_Driver/Src/stm32f0xx_hal_flash.c ****         break;
 213              		.loc 1 211 9
 214 010a C046     		nop
 215              	.L4:
 212:Drivers/STM32F0xx_HAL_Driver/Src/stm32f0xx_hal_flash.c ****       }
 213:Drivers/STM32F0xx_HAL_Driver/Src/stm32f0xx_hal_flash.c ****     }
 214:Drivers/STM32F0xx_HAL_Driver/Src/stm32f0xx_hal_flash.c ****   }
 215:Drivers/STM32F0xx_HAL_Driver/Src/stm32f0xx_hal_flash.c **** 
 216:Drivers/STM32F0xx_HAL_Driver/Src/stm32f0xx_hal_flash.c ****   /* Process Unlocked */
 217:Drivers/STM32F0xx_HAL_Driver/Src/stm32f0xx_hal_flash.c ****   __HAL_UNLOCK(&pFlash);
 216              		.loc 1 217 3
 217 010c 044B     		ldr	r3, .L14
 218 010e 0022     		movs	r2, #0
 219 0110 1A76     		strb	r2, [r3, #24]
 218:Drivers/STM32F0xx_HAL_Driver/Src/stm32f0xx_hal_flash.c **** 
 219:Drivers/STM32F0xx_HAL_Driver/Src/stm32f0xx_hal_flash.c ****   return status;
 220              		.loc 1 219 10
 221 0112 1723     		movs	r3, #23
 222 0114 FB18     		adds	r3, r7, r3
 223 0116 1B78     		ldrb	r3, [r3]
 224              	.L3:
 220:Drivers/STM32F0xx_HAL_Driver/Src/stm32f0xx_hal_flash.c **** }
 225              		.loc 1 220 1
 226 0118 1800     		movs	r0, r3
 227 011a BD46     		mov	sp, r7
 228 011c 07B0     		add	sp, sp, #28
 229              		@ sp needed
 230 011e F0BD     		pop	{r4, r5, r6, r7, pc}
 231              	.L15:
 232              		.align	2
 233              	.L14:
ARM GAS  C:\Users\mason\AppData\Local\Temp\cc7sRjNB.s 			page 9


 234 0120 00000000 		.word	pFlash
 235 0124 50C30000 		.word	50000
 236 0128 00200240 		.word	1073881088
 237              		.cfi_endproc
 238              	.LFE40:
 240              		.section	.text.HAL_FLASH_Program_IT,"ax",%progbits
 241              		.align	1
 242              		.global	HAL_FLASH_Program_IT
 243              		.syntax unified
 244              		.code	16
 245              		.thumb_func
 247              	HAL_FLASH_Program_IT:
 248              	.LFB41:
 221:Drivers/STM32F0xx_HAL_Driver/Src/stm32f0xx_hal_flash.c **** 
 222:Drivers/STM32F0xx_HAL_Driver/Src/stm32f0xx_hal_flash.c **** /**
 223:Drivers/STM32F0xx_HAL_Driver/Src/stm32f0xx_hal_flash.c ****   * @brief  Program halfword, word or double word at a specified address  with interrupt enabled.
 224:Drivers/STM32F0xx_HAL_Driver/Src/stm32f0xx_hal_flash.c ****   * @note   The function HAL_FLASH_Unlock() should be called before to unlock the FLASH interface
 225:Drivers/STM32F0xx_HAL_Driver/Src/stm32f0xx_hal_flash.c ****   *         The function HAL_FLASH_Lock() should be called after to lock the FLASH interface
 226:Drivers/STM32F0xx_HAL_Driver/Src/stm32f0xx_hal_flash.c ****   *
 227:Drivers/STM32F0xx_HAL_Driver/Src/stm32f0xx_hal_flash.c ****   * @note   If an erase and a program operations are requested simultaneously,    
 228:Drivers/STM32F0xx_HAL_Driver/Src/stm32f0xx_hal_flash.c ****   *         the erase operation is performed before the program one.
 229:Drivers/STM32F0xx_HAL_Driver/Src/stm32f0xx_hal_flash.c ****   *
 230:Drivers/STM32F0xx_HAL_Driver/Src/stm32f0xx_hal_flash.c ****   * @param  TypeProgram  Indicate the way to program at a specified address.
 231:Drivers/STM32F0xx_HAL_Driver/Src/stm32f0xx_hal_flash.c ****   *                      This parameter can be a value of @ref FLASH_Type_Program
 232:Drivers/STM32F0xx_HAL_Driver/Src/stm32f0xx_hal_flash.c ****   * @param  Address      Specifie the address to be programmed.
 233:Drivers/STM32F0xx_HAL_Driver/Src/stm32f0xx_hal_flash.c ****   * @param  Data         Specifie the data to be programmed
 234:Drivers/STM32F0xx_HAL_Driver/Src/stm32f0xx_hal_flash.c ****   * 
 235:Drivers/STM32F0xx_HAL_Driver/Src/stm32f0xx_hal_flash.c ****   * @retval HAL_StatusTypeDef HAL Status
 236:Drivers/STM32F0xx_HAL_Driver/Src/stm32f0xx_hal_flash.c ****   */
 237:Drivers/STM32F0xx_HAL_Driver/Src/stm32f0xx_hal_flash.c **** HAL_StatusTypeDef HAL_FLASH_Program_IT(uint32_t TypeProgram, uint32_t Address, uint64_t Data)
 238:Drivers/STM32F0xx_HAL_Driver/Src/stm32f0xx_hal_flash.c **** {
 249              		.loc 1 238 1
 250              		.cfi_startproc
 251              		@ args = 0, pretend = 0, frame = 24
 252              		@ frame_needed = 1, uses_anonymous_args = 0
 253 0000 80B5     		push	{r7, lr}
 254              	.LCFI3:
 255              		.cfi_def_cfa_offset 8
 256              		.cfi_offset 7, -8
 257              		.cfi_offset 14, -4
 258 0002 86B0     		sub	sp, sp, #24
 259              	.LCFI4:
 260              		.cfi_def_cfa_offset 32
 261 0004 00AF     		add	r7, sp, #0
 262              	.LCFI5:
 263              		.cfi_def_cfa_register 7
 264 0006 F860     		str	r0, [r7, #12]
 265 0008 B960     		str	r1, [r7, #8]
 266 000a 3A60     		str	r2, [r7]
 267 000c 7B60     		str	r3, [r7, #4]
 239:Drivers/STM32F0xx_HAL_Driver/Src/stm32f0xx_hal_flash.c ****   HAL_StatusTypeDef status = HAL_OK;
 268              		.loc 1 239 21
 269 000e 1723     		movs	r3, #23
 270 0010 FB18     		adds	r3, r7, r3
 271 0012 0022     		movs	r2, #0
 272 0014 1A70     		strb	r2, [r3]
 240:Drivers/STM32F0xx_HAL_Driver/Src/stm32f0xx_hal_flash.c ****   
ARM GAS  C:\Users\mason\AppData\Local\Temp\cc7sRjNB.s 			page 10


 241:Drivers/STM32F0xx_HAL_Driver/Src/stm32f0xx_hal_flash.c ****   /* Process Locked */
 242:Drivers/STM32F0xx_HAL_Driver/Src/stm32f0xx_hal_flash.c ****   __HAL_LOCK(&pFlash);
 273              		.loc 1 242 3
 274 0016 214B     		ldr	r3, .L22
 275 0018 1B7E     		ldrb	r3, [r3, #24]
 276 001a 012B     		cmp	r3, #1
 277 001c 01D1     		bne	.L17
 278              		.loc 1 242 3 is_stmt 0 discriminator 1
 279 001e 0223     		movs	r3, #2
 280 0020 37E0     		b	.L18
 281              	.L17:
 282              		.loc 1 242 3 discriminator 2
 283 0022 1E4B     		ldr	r3, .L22
 284 0024 0122     		movs	r2, #1
 285 0026 1A76     		strb	r2, [r3, #24]
 243:Drivers/STM32F0xx_HAL_Driver/Src/stm32f0xx_hal_flash.c **** 
 244:Drivers/STM32F0xx_HAL_Driver/Src/stm32f0xx_hal_flash.c ****   /* Check the parameters */
 245:Drivers/STM32F0xx_HAL_Driver/Src/stm32f0xx_hal_flash.c ****   assert_param(IS_FLASH_TYPEPROGRAM(TypeProgram));
 246:Drivers/STM32F0xx_HAL_Driver/Src/stm32f0xx_hal_flash.c ****   assert_param(IS_FLASH_PROGRAM_ADDRESS(Address));
 247:Drivers/STM32F0xx_HAL_Driver/Src/stm32f0xx_hal_flash.c **** 
 248:Drivers/STM32F0xx_HAL_Driver/Src/stm32f0xx_hal_flash.c ****   /* Enable End of FLASH Operation and Error source interrupts */
 249:Drivers/STM32F0xx_HAL_Driver/Src/stm32f0xx_hal_flash.c ****   __HAL_FLASH_ENABLE_IT(FLASH_IT_EOP | FLASH_IT_ERR);
 286              		.loc 1 249 3 is_stmt 1 discriminator 2
 287 0028 1D4B     		ldr	r3, .L22+4
 288 002a 1A69     		ldr	r2, [r3, #16]
 289 002c 1C4B     		ldr	r3, .L22+4
 290 002e A021     		movs	r1, #160
 291 0030 4901     		lsls	r1, r1, #5
 292 0032 0A43     		orrs	r2, r1
 293 0034 1A61     		str	r2, [r3, #16]
 250:Drivers/STM32F0xx_HAL_Driver/Src/stm32f0xx_hal_flash.c ****   
 251:Drivers/STM32F0xx_HAL_Driver/Src/stm32f0xx_hal_flash.c ****   pFlash.Address = Address;
 294              		.loc 1 251 18 discriminator 2
 295 0036 194B     		ldr	r3, .L22
 296 0038 BA68     		ldr	r2, [r7, #8]
 297 003a 9A60     		str	r2, [r3, #8]
 252:Drivers/STM32F0xx_HAL_Driver/Src/stm32f0xx_hal_flash.c ****   pFlash.Data = Data;
 298              		.loc 1 252 15 discriminator 2
 299 003c 1749     		ldr	r1, .L22
 300 003e 3A68     		ldr	r2, [r7]
 301 0040 7B68     		ldr	r3, [r7, #4]
 302 0042 0A61     		str	r2, [r1, #16]
 303 0044 4B61     		str	r3, [r1, #20]
 253:Drivers/STM32F0xx_HAL_Driver/Src/stm32f0xx_hal_flash.c **** 
 254:Drivers/STM32F0xx_HAL_Driver/Src/stm32f0xx_hal_flash.c ****   if(TypeProgram == FLASH_TYPEPROGRAM_HALFWORD)
 304              		.loc 1 254 5 discriminator 2
 305 0046 FB68     		ldr	r3, [r7, #12]
 306 0048 012B     		cmp	r3, #1
 307 004a 06D1     		bne	.L19
 255:Drivers/STM32F0xx_HAL_Driver/Src/stm32f0xx_hal_flash.c ****   {
 256:Drivers/STM32F0xx_HAL_Driver/Src/stm32f0xx_hal_flash.c ****     pFlash.ProcedureOnGoing = FLASH_PROC_PROGRAMHALFWORD;
 308              		.loc 1 256 29
 309 004c 134B     		ldr	r3, .L22
 310 004e 0322     		movs	r2, #3
 311 0050 1A70     		strb	r2, [r3]
 257:Drivers/STM32F0xx_HAL_Driver/Src/stm32f0xx_hal_flash.c ****     /* Program halfword (16-bit) at a specified address. */
 258:Drivers/STM32F0xx_HAL_Driver/Src/stm32f0xx_hal_flash.c ****     pFlash.DataRemaining = 1U;
ARM GAS  C:\Users\mason\AppData\Local\Temp\cc7sRjNB.s 			page 11


 312              		.loc 1 258 26
 313 0052 124B     		ldr	r3, .L22
 314 0054 0122     		movs	r2, #1
 315 0056 5A60     		str	r2, [r3, #4]
 316 0058 0FE0     		b	.L20
 317              	.L19:
 259:Drivers/STM32F0xx_HAL_Driver/Src/stm32f0xx_hal_flash.c ****   }
 260:Drivers/STM32F0xx_HAL_Driver/Src/stm32f0xx_hal_flash.c ****   else if(TypeProgram == FLASH_TYPEPROGRAM_WORD)
 318              		.loc 1 260 10
 319 005a FB68     		ldr	r3, [r7, #12]
 320 005c 022B     		cmp	r3, #2
 321 005e 06D1     		bne	.L21
 261:Drivers/STM32F0xx_HAL_Driver/Src/stm32f0xx_hal_flash.c ****   {
 262:Drivers/STM32F0xx_HAL_Driver/Src/stm32f0xx_hal_flash.c ****     pFlash.ProcedureOnGoing = FLASH_PROC_PROGRAMWORD;
 322              		.loc 1 262 29
 323 0060 0E4B     		ldr	r3, .L22
 324 0062 0422     		movs	r2, #4
 325 0064 1A70     		strb	r2, [r3]
 263:Drivers/STM32F0xx_HAL_Driver/Src/stm32f0xx_hal_flash.c ****     /* Program word (32-bit : 2*16-bit) at a specified address. */
 264:Drivers/STM32F0xx_HAL_Driver/Src/stm32f0xx_hal_flash.c ****     pFlash.DataRemaining = 2U;
 326              		.loc 1 264 26
 327 0066 0D4B     		ldr	r3, .L22
 328 0068 0222     		movs	r2, #2
 329 006a 5A60     		str	r2, [r3, #4]
 330 006c 05E0     		b	.L20
 331              	.L21:
 265:Drivers/STM32F0xx_HAL_Driver/Src/stm32f0xx_hal_flash.c ****   }
 266:Drivers/STM32F0xx_HAL_Driver/Src/stm32f0xx_hal_flash.c ****   else
 267:Drivers/STM32F0xx_HAL_Driver/Src/stm32f0xx_hal_flash.c ****   {
 268:Drivers/STM32F0xx_HAL_Driver/Src/stm32f0xx_hal_flash.c ****     pFlash.ProcedureOnGoing = FLASH_PROC_PROGRAMDOUBLEWORD;
 332              		.loc 1 268 29
 333 006e 0B4B     		ldr	r3, .L22
 334 0070 0522     		movs	r2, #5
 335 0072 1A70     		strb	r2, [r3]
 269:Drivers/STM32F0xx_HAL_Driver/Src/stm32f0xx_hal_flash.c ****     /* Program double word (64-bit : 4*16-bit) at a specified address. */
 270:Drivers/STM32F0xx_HAL_Driver/Src/stm32f0xx_hal_flash.c ****     pFlash.DataRemaining = 4U;
 336              		.loc 1 270 26
 337 0074 094B     		ldr	r3, .L22
 338 0076 0422     		movs	r2, #4
 339 0078 5A60     		str	r2, [r3, #4]
 340              	.L20:
 271:Drivers/STM32F0xx_HAL_Driver/Src/stm32f0xx_hal_flash.c ****   }
 272:Drivers/STM32F0xx_HAL_Driver/Src/stm32f0xx_hal_flash.c **** 
 273:Drivers/STM32F0xx_HAL_Driver/Src/stm32f0xx_hal_flash.c ****   /* Program halfword (16-bit) at a specified address. */
 274:Drivers/STM32F0xx_HAL_Driver/Src/stm32f0xx_hal_flash.c ****   FLASH_Program_HalfWord(Address, (uint16_t)Data);
 341              		.loc 1 274 3
 342 007a 3A68     		ldr	r2, [r7]
 343 007c 7B68     		ldr	r3, [r7, #4]
 344 007e 131C     		adds	r3, r2, #0
 345 0080 9AB2     		uxth	r2, r3
 346 0082 BB68     		ldr	r3, [r7, #8]
 347 0084 1100     		movs	r1, r2
 348 0086 1800     		movs	r0, r3
 349 0088 FFF7FEFF 		bl	FLASH_Program_HalfWord
 275:Drivers/STM32F0xx_HAL_Driver/Src/stm32f0xx_hal_flash.c **** 
 276:Drivers/STM32F0xx_HAL_Driver/Src/stm32f0xx_hal_flash.c ****   return status;
 350              		.loc 1 276 10
ARM GAS  C:\Users\mason\AppData\Local\Temp\cc7sRjNB.s 			page 12


 351 008c 1723     		movs	r3, #23
 352 008e FB18     		adds	r3, r7, r3
 353 0090 1B78     		ldrb	r3, [r3]
 354              	.L18:
 277:Drivers/STM32F0xx_HAL_Driver/Src/stm32f0xx_hal_flash.c **** }
 355              		.loc 1 277 1
 356 0092 1800     		movs	r0, r3
 357 0094 BD46     		mov	sp, r7
 358 0096 06B0     		add	sp, sp, #24
 359              		@ sp needed
 360 0098 80BD     		pop	{r7, pc}
 361              	.L23:
 362 009a C046     		.align	2
 363              	.L22:
 364 009c 00000000 		.word	pFlash
 365 00a0 00200240 		.word	1073881088
 366              		.cfi_endproc
 367              	.LFE41:
 369              		.section	.text.HAL_FLASH_IRQHandler,"ax",%progbits
 370              		.align	1
 371              		.global	HAL_FLASH_IRQHandler
 372              		.syntax unified
 373              		.code	16
 374              		.thumb_func
 376              	HAL_FLASH_IRQHandler:
 377              	.LFB42:
 278:Drivers/STM32F0xx_HAL_Driver/Src/stm32f0xx_hal_flash.c **** 
 279:Drivers/STM32F0xx_HAL_Driver/Src/stm32f0xx_hal_flash.c **** /**
 280:Drivers/STM32F0xx_HAL_Driver/Src/stm32f0xx_hal_flash.c ****   * @brief This function handles FLASH interrupt request.
 281:Drivers/STM32F0xx_HAL_Driver/Src/stm32f0xx_hal_flash.c ****   * @retval None
 282:Drivers/STM32F0xx_HAL_Driver/Src/stm32f0xx_hal_flash.c ****   */
 283:Drivers/STM32F0xx_HAL_Driver/Src/stm32f0xx_hal_flash.c **** void HAL_FLASH_IRQHandler(void)
 284:Drivers/STM32F0xx_HAL_Driver/Src/stm32f0xx_hal_flash.c **** {
 378              		.loc 1 284 1
 379              		.cfi_startproc
 380              		@ args = 0, pretend = 0, frame = 8
 381              		@ frame_needed = 1, uses_anonymous_args = 0
 382 0000 B0B5     		push	{r4, r5, r7, lr}
 383              	.LCFI6:
 384              		.cfi_def_cfa_offset 16
 385              		.cfi_offset 4, -16
 386              		.cfi_offset 5, -12
 387              		.cfi_offset 7, -8
 388              		.cfi_offset 14, -4
 389 0002 82B0     		sub	sp, sp, #8
 390              	.LCFI7:
 391              		.cfi_def_cfa_offset 24
 392 0004 00AF     		add	r7, sp, #0
 393              	.LCFI8:
 394              		.cfi_def_cfa_register 7
 285:Drivers/STM32F0xx_HAL_Driver/Src/stm32f0xx_hal_flash.c ****   uint32_t addresstmp = 0U;
 395              		.loc 1 285 12
 396 0006 0023     		movs	r3, #0
 397 0008 7B60     		str	r3, [r7, #4]
 286:Drivers/STM32F0xx_HAL_Driver/Src/stm32f0xx_hal_flash.c ****   
 287:Drivers/STM32F0xx_HAL_Driver/Src/stm32f0xx_hal_flash.c ****   /* Check FLASH operation error flags */
 288:Drivers/STM32F0xx_HAL_Driver/Src/stm32f0xx_hal_flash.c ****   if(__HAL_FLASH_GET_FLAG(FLASH_FLAG_WRPERR) ||__HAL_FLASH_GET_FLAG(FLASH_FLAG_PGERR))
ARM GAS  C:\Users\mason\AppData\Local\Temp\cc7sRjNB.s 			page 13


 398              		.loc 1 288 6
 399 000a 6E4B     		ldr	r3, .L37
 400 000c DB68     		ldr	r3, [r3, #12]
 401 000e 1022     		movs	r2, #16
 402 0010 1340     		ands	r3, r2
 403              		.loc 1 288 5
 404 0012 102B     		cmp	r3, #16
 405 0014 05D0     		beq	.L25
 406              		.loc 1 288 48 discriminator 1
 407 0016 6B4B     		ldr	r3, .L37
 408 0018 DB68     		ldr	r3, [r3, #12]
 409 001a 0422     		movs	r2, #4
 410 001c 1340     		ands	r3, r2
 411              		.loc 1 288 46 discriminator 1
 412 001e 042B     		cmp	r3, #4
 413 0020 0FD1     		bne	.L26
 414              	.L25:
 289:Drivers/STM32F0xx_HAL_Driver/Src/stm32f0xx_hal_flash.c ****   {
 290:Drivers/STM32F0xx_HAL_Driver/Src/stm32f0xx_hal_flash.c ****     /* Return the faulty address */
 291:Drivers/STM32F0xx_HAL_Driver/Src/stm32f0xx_hal_flash.c ****     addresstmp = pFlash.Address;
 415              		.loc 1 291 16
 416 0022 694B     		ldr	r3, .L37+4
 417 0024 9B68     		ldr	r3, [r3, #8]
 418 0026 7B60     		str	r3, [r7, #4]
 292:Drivers/STM32F0xx_HAL_Driver/Src/stm32f0xx_hal_flash.c ****     /* Reset address */
 293:Drivers/STM32F0xx_HAL_Driver/Src/stm32f0xx_hal_flash.c ****     pFlash.Address = 0xFFFFFFFFU;
 419              		.loc 1 293 20
 420 0028 674B     		ldr	r3, .L37+4
 421 002a 0122     		movs	r2, #1
 422 002c 5242     		rsbs	r2, r2, #0
 423 002e 9A60     		str	r2, [r3, #8]
 294:Drivers/STM32F0xx_HAL_Driver/Src/stm32f0xx_hal_flash.c ****   
 295:Drivers/STM32F0xx_HAL_Driver/Src/stm32f0xx_hal_flash.c ****     /* Save the Error code */
 296:Drivers/STM32F0xx_HAL_Driver/Src/stm32f0xx_hal_flash.c ****     FLASH_SetErrorCode();
 424              		.loc 1 296 5
 425 0030 FFF7FEFF 		bl	FLASH_SetErrorCode
 297:Drivers/STM32F0xx_HAL_Driver/Src/stm32f0xx_hal_flash.c ****     
 298:Drivers/STM32F0xx_HAL_Driver/Src/stm32f0xx_hal_flash.c ****     /* FLASH error interrupt user callback */
 299:Drivers/STM32F0xx_HAL_Driver/Src/stm32f0xx_hal_flash.c ****     HAL_FLASH_OperationErrorCallback(addresstmp);
 426              		.loc 1 299 5
 427 0034 7B68     		ldr	r3, [r7, #4]
 428 0036 1800     		movs	r0, r3
 429 0038 FFF7FEFF 		bl	HAL_FLASH_OperationErrorCallback
 300:Drivers/STM32F0xx_HAL_Driver/Src/stm32f0xx_hal_flash.c **** 
 301:Drivers/STM32F0xx_HAL_Driver/Src/stm32f0xx_hal_flash.c ****     /* Stop the procedure ongoing */
 302:Drivers/STM32F0xx_HAL_Driver/Src/stm32f0xx_hal_flash.c ****     pFlash.ProcedureOnGoing = FLASH_PROC_NONE;
 430              		.loc 1 302 29
 431 003c 624B     		ldr	r3, .L37+4
 432 003e 0022     		movs	r2, #0
 433 0040 1A70     		strb	r2, [r3]
 434              	.L26:
 303:Drivers/STM32F0xx_HAL_Driver/Src/stm32f0xx_hal_flash.c ****   }
 304:Drivers/STM32F0xx_HAL_Driver/Src/stm32f0xx_hal_flash.c **** 
 305:Drivers/STM32F0xx_HAL_Driver/Src/stm32f0xx_hal_flash.c ****   /* Check FLASH End of Operation flag  */
 306:Drivers/STM32F0xx_HAL_Driver/Src/stm32f0xx_hal_flash.c ****   if(__HAL_FLASH_GET_FLAG(FLASH_FLAG_EOP))
 435              		.loc 1 306 6
 436 0042 604B     		ldr	r3, .L37
ARM GAS  C:\Users\mason\AppData\Local\Temp\cc7sRjNB.s 			page 14


 437 0044 DB68     		ldr	r3, [r3, #12]
 438 0046 2022     		movs	r2, #32
 439 0048 1340     		ands	r3, r2
 440              		.loc 1 306 5
 441 004a 202B     		cmp	r3, #32
 442 004c 00D0     		beq	.LCB373
 443 004e A1E0     		b	.L27	@long jump
 444              	.LCB373:
 307:Drivers/STM32F0xx_HAL_Driver/Src/stm32f0xx_hal_flash.c ****   {
 308:Drivers/STM32F0xx_HAL_Driver/Src/stm32f0xx_hal_flash.c ****     /* Clear FLASH End of Operation pending bit */
 309:Drivers/STM32F0xx_HAL_Driver/Src/stm32f0xx_hal_flash.c ****     __HAL_FLASH_CLEAR_FLAG(FLASH_FLAG_EOP);
 445              		.loc 1 309 5
 446 0050 5C4B     		ldr	r3, .L37
 447 0052 2022     		movs	r2, #32
 448 0054 DA60     		str	r2, [r3, #12]
 310:Drivers/STM32F0xx_HAL_Driver/Src/stm32f0xx_hal_flash.c ****     
 311:Drivers/STM32F0xx_HAL_Driver/Src/stm32f0xx_hal_flash.c ****     /* Process can continue only if no error detected */
 312:Drivers/STM32F0xx_HAL_Driver/Src/stm32f0xx_hal_flash.c ****     if(pFlash.ProcedureOnGoing != FLASH_PROC_NONE)
 449              		.loc 1 312 14
 450 0056 5C4B     		ldr	r3, .L37+4
 451 0058 1B78     		ldrb	r3, [r3]
 452 005a DBB2     		uxtb	r3, r3
 453              		.loc 1 312 7
 454 005c 002B     		cmp	r3, #0
 455 005e 00D1     		bne	.LCB381
 456 0060 98E0     		b	.L27	@long jump
 457              	.LCB381:
 313:Drivers/STM32F0xx_HAL_Driver/Src/stm32f0xx_hal_flash.c ****     {
 314:Drivers/STM32F0xx_HAL_Driver/Src/stm32f0xx_hal_flash.c ****       if(pFlash.ProcedureOnGoing == FLASH_PROC_PAGEERASE)
 458              		.loc 1 314 16
 459 0062 594B     		ldr	r3, .L37+4
 460 0064 1B78     		ldrb	r3, [r3]
 461 0066 DBB2     		uxtb	r3, r3
 462              		.loc 1 314 9
 463 0068 012B     		cmp	r3, #1
 464 006a 32D1     		bne	.L28
 315:Drivers/STM32F0xx_HAL_Driver/Src/stm32f0xx_hal_flash.c ****       {
 316:Drivers/STM32F0xx_HAL_Driver/Src/stm32f0xx_hal_flash.c ****         /* Nb of pages to erased can be decreased */
 317:Drivers/STM32F0xx_HAL_Driver/Src/stm32f0xx_hal_flash.c ****         pFlash.DataRemaining--;
 465              		.loc 1 317 15
 466 006c 564B     		ldr	r3, .L37+4
 467 006e 5B68     		ldr	r3, [r3, #4]
 468              		.loc 1 317 29
 469 0070 5A1E     		subs	r2, r3, #1
 470 0072 554B     		ldr	r3, .L37+4
 471 0074 5A60     		str	r2, [r3, #4]
 318:Drivers/STM32F0xx_HAL_Driver/Src/stm32f0xx_hal_flash.c **** 
 319:Drivers/STM32F0xx_HAL_Driver/Src/stm32f0xx_hal_flash.c ****         /* Check if there are still pages to erase */
 320:Drivers/STM32F0xx_HAL_Driver/Src/stm32f0xx_hal_flash.c ****         if(pFlash.DataRemaining != 0U)
 472              		.loc 1 320 18
 473 0076 544B     		ldr	r3, .L37+4
 474 0078 5B68     		ldr	r3, [r3, #4]
 475              		.loc 1 320 11
 476 007a 002B     		cmp	r3, #0
 477 007c 1BD0     		beq	.L29
 321:Drivers/STM32F0xx_HAL_Driver/Src/stm32f0xx_hal_flash.c ****         {
 322:Drivers/STM32F0xx_HAL_Driver/Src/stm32f0xx_hal_flash.c ****           addresstmp = pFlash.Address;
ARM GAS  C:\Users\mason\AppData\Local\Temp\cc7sRjNB.s 			page 15


 478              		.loc 1 322 22
 479 007e 524B     		ldr	r3, .L37+4
 480 0080 9B68     		ldr	r3, [r3, #8]
 481 0082 7B60     		str	r3, [r7, #4]
 323:Drivers/STM32F0xx_HAL_Driver/Src/stm32f0xx_hal_flash.c ****           /*Indicate user which sector has been erased */
 324:Drivers/STM32F0xx_HAL_Driver/Src/stm32f0xx_hal_flash.c ****           HAL_FLASH_EndOfOperationCallback(addresstmp);
 482              		.loc 1 324 11
 483 0084 7B68     		ldr	r3, [r7, #4]
 484 0086 1800     		movs	r0, r3
 485 0088 FFF7FEFF 		bl	HAL_FLASH_EndOfOperationCallback
 325:Drivers/STM32F0xx_HAL_Driver/Src/stm32f0xx_hal_flash.c **** 
 326:Drivers/STM32F0xx_HAL_Driver/Src/stm32f0xx_hal_flash.c ****           /*Increment sector number*/
 327:Drivers/STM32F0xx_HAL_Driver/Src/stm32f0xx_hal_flash.c ****           addresstmp = pFlash.Address + FLASH_PAGE_SIZE;
 486              		.loc 1 327 30
 487 008c 4E4B     		ldr	r3, .L37+4
 488 008e 9B68     		ldr	r3, [r3, #8]
 489              		.loc 1 327 22
 490 0090 8022     		movs	r2, #128
 491 0092 D200     		lsls	r2, r2, #3
 492 0094 9446     		mov	ip, r2
 493 0096 6344     		add	r3, r3, ip
 494 0098 7B60     		str	r3, [r7, #4]
 328:Drivers/STM32F0xx_HAL_Driver/Src/stm32f0xx_hal_flash.c ****           pFlash.Address = addresstmp;
 495              		.loc 1 328 26
 496 009a 4B4B     		ldr	r3, .L37+4
 497 009c 7A68     		ldr	r2, [r7, #4]
 498 009e 9A60     		str	r2, [r3, #8]
 329:Drivers/STM32F0xx_HAL_Driver/Src/stm32f0xx_hal_flash.c **** 
 330:Drivers/STM32F0xx_HAL_Driver/Src/stm32f0xx_hal_flash.c ****           /* If the erase operation is completed, disable the PER Bit */
 331:Drivers/STM32F0xx_HAL_Driver/Src/stm32f0xx_hal_flash.c ****           CLEAR_BIT(FLASH->CR, FLASH_CR_PER);
 499              		.loc 1 331 11
 500 00a0 484B     		ldr	r3, .L37
 501 00a2 1A69     		ldr	r2, [r3, #16]
 502 00a4 474B     		ldr	r3, .L37
 503 00a6 0221     		movs	r1, #2
 504 00a8 8A43     		bics	r2, r1
 505 00aa 1A61     		str	r2, [r3, #16]
 332:Drivers/STM32F0xx_HAL_Driver/Src/stm32f0xx_hal_flash.c **** 
 333:Drivers/STM32F0xx_HAL_Driver/Src/stm32f0xx_hal_flash.c ****           FLASH_PageErase(addresstmp);
 506              		.loc 1 333 11
 507 00ac 7B68     		ldr	r3, [r7, #4]
 508 00ae 1800     		movs	r0, r3
 509 00b0 FFF7FEFF 		bl	FLASH_PageErase
 510 00b4 6EE0     		b	.L27
 511              	.L29:
 334:Drivers/STM32F0xx_HAL_Driver/Src/stm32f0xx_hal_flash.c ****         }
 335:Drivers/STM32F0xx_HAL_Driver/Src/stm32f0xx_hal_flash.c ****         else
 336:Drivers/STM32F0xx_HAL_Driver/Src/stm32f0xx_hal_flash.c ****         {
 337:Drivers/STM32F0xx_HAL_Driver/Src/stm32f0xx_hal_flash.c ****           /* No more pages to Erase, user callback can be called. */
 338:Drivers/STM32F0xx_HAL_Driver/Src/stm32f0xx_hal_flash.c ****           /* Reset Sector and stop Erase pages procedure */
 339:Drivers/STM32F0xx_HAL_Driver/Src/stm32f0xx_hal_flash.c ****           pFlash.Address = addresstmp = 0xFFFFFFFFU;
 512              		.loc 1 339 39
 513 00b6 0123     		movs	r3, #1
 514 00b8 5B42     		rsbs	r3, r3, #0
 515 00ba 7B60     		str	r3, [r7, #4]
 516              		.loc 1 339 26
 517 00bc 424B     		ldr	r3, .L37+4
ARM GAS  C:\Users\mason\AppData\Local\Temp\cc7sRjNB.s 			page 16


 518 00be 7A68     		ldr	r2, [r7, #4]
 519 00c0 9A60     		str	r2, [r3, #8]
 340:Drivers/STM32F0xx_HAL_Driver/Src/stm32f0xx_hal_flash.c ****           pFlash.ProcedureOnGoing = FLASH_PROC_NONE;
 520              		.loc 1 340 35
 521 00c2 414B     		ldr	r3, .L37+4
 522 00c4 0022     		movs	r2, #0
 523 00c6 1A70     		strb	r2, [r3]
 341:Drivers/STM32F0xx_HAL_Driver/Src/stm32f0xx_hal_flash.c ****           /* FLASH EOP interrupt user callback */
 342:Drivers/STM32F0xx_HAL_Driver/Src/stm32f0xx_hal_flash.c ****           HAL_FLASH_EndOfOperationCallback(addresstmp);
 524              		.loc 1 342 11
 525 00c8 7B68     		ldr	r3, [r7, #4]
 526 00ca 1800     		movs	r0, r3
 527 00cc FFF7FEFF 		bl	HAL_FLASH_EndOfOperationCallback
 528 00d0 60E0     		b	.L27
 529              	.L28:
 343:Drivers/STM32F0xx_HAL_Driver/Src/stm32f0xx_hal_flash.c ****         }
 344:Drivers/STM32F0xx_HAL_Driver/Src/stm32f0xx_hal_flash.c ****       }
 345:Drivers/STM32F0xx_HAL_Driver/Src/stm32f0xx_hal_flash.c ****       else if(pFlash.ProcedureOnGoing == FLASH_PROC_MASSERASE)
 530              		.loc 1 345 21
 531 00d2 3D4B     		ldr	r3, .L37+4
 532 00d4 1B78     		ldrb	r3, [r3]
 533 00d6 DBB2     		uxtb	r3, r3
 534              		.loc 1 345 14
 535 00d8 022B     		cmp	r3, #2
 536 00da 0CD1     		bne	.L30
 346:Drivers/STM32F0xx_HAL_Driver/Src/stm32f0xx_hal_flash.c ****       {
 347:Drivers/STM32F0xx_HAL_Driver/Src/stm32f0xx_hal_flash.c ****         /* Operation is completed, disable the MER Bit */
 348:Drivers/STM32F0xx_HAL_Driver/Src/stm32f0xx_hal_flash.c ****         CLEAR_BIT(FLASH->CR, FLASH_CR_MER);
 537              		.loc 1 348 9
 538 00dc 394B     		ldr	r3, .L37
 539 00de 1A69     		ldr	r2, [r3, #16]
 540 00e0 384B     		ldr	r3, .L37
 541 00e2 0421     		movs	r1, #4
 542 00e4 8A43     		bics	r2, r1
 543 00e6 1A61     		str	r2, [r3, #16]
 349:Drivers/STM32F0xx_HAL_Driver/Src/stm32f0xx_hal_flash.c **** 
 350:Drivers/STM32F0xx_HAL_Driver/Src/stm32f0xx_hal_flash.c ****           /* MassErase ended. Return the selected bank */
 351:Drivers/STM32F0xx_HAL_Driver/Src/stm32f0xx_hal_flash.c ****           /* FLASH EOP interrupt user callback */
 352:Drivers/STM32F0xx_HAL_Driver/Src/stm32f0xx_hal_flash.c ****           HAL_FLASH_EndOfOperationCallback(0);
 544              		.loc 1 352 11
 545 00e8 0020     		movs	r0, #0
 546 00ea FFF7FEFF 		bl	HAL_FLASH_EndOfOperationCallback
 353:Drivers/STM32F0xx_HAL_Driver/Src/stm32f0xx_hal_flash.c **** 
 354:Drivers/STM32F0xx_HAL_Driver/Src/stm32f0xx_hal_flash.c ****           /* Stop Mass Erase procedure*/
 355:Drivers/STM32F0xx_HAL_Driver/Src/stm32f0xx_hal_flash.c ****           pFlash.ProcedureOnGoing = FLASH_PROC_NONE;
 547              		.loc 1 355 35
 548 00ee 364B     		ldr	r3, .L37+4
 549 00f0 0022     		movs	r2, #0
 550 00f2 1A70     		strb	r2, [r3]
 551 00f4 4EE0     		b	.L27
 552              	.L30:
 356:Drivers/STM32F0xx_HAL_Driver/Src/stm32f0xx_hal_flash.c ****         }
 357:Drivers/STM32F0xx_HAL_Driver/Src/stm32f0xx_hal_flash.c ****       else
 358:Drivers/STM32F0xx_HAL_Driver/Src/stm32f0xx_hal_flash.c ****       {
 359:Drivers/STM32F0xx_HAL_Driver/Src/stm32f0xx_hal_flash.c ****         /* Nb of 16-bit data to program can be decreased */
 360:Drivers/STM32F0xx_HAL_Driver/Src/stm32f0xx_hal_flash.c ****         pFlash.DataRemaining--;
 553              		.loc 1 360 15
ARM GAS  C:\Users\mason\AppData\Local\Temp\cc7sRjNB.s 			page 17


 554 00f6 344B     		ldr	r3, .L37+4
 555 00f8 5B68     		ldr	r3, [r3, #4]
 556              		.loc 1 360 29
 557 00fa 5A1E     		subs	r2, r3, #1
 558 00fc 324B     		ldr	r3, .L37+4
 559 00fe 5A60     		str	r2, [r3, #4]
 361:Drivers/STM32F0xx_HAL_Driver/Src/stm32f0xx_hal_flash.c ****         
 362:Drivers/STM32F0xx_HAL_Driver/Src/stm32f0xx_hal_flash.c ****         /* Check if there are still 16-bit data to program */
 363:Drivers/STM32F0xx_HAL_Driver/Src/stm32f0xx_hal_flash.c ****         if(pFlash.DataRemaining != 0U)
 560              		.loc 1 363 18
 561 0100 314B     		ldr	r3, .L37+4
 562 0102 5B68     		ldr	r3, [r3, #4]
 563              		.loc 1 363 11
 564 0104 002B     		cmp	r3, #0
 565 0106 21D0     		beq	.L31
 364:Drivers/STM32F0xx_HAL_Driver/Src/stm32f0xx_hal_flash.c ****         {
 365:Drivers/STM32F0xx_HAL_Driver/Src/stm32f0xx_hal_flash.c ****           /* Increment address to 16-bit */
 366:Drivers/STM32F0xx_HAL_Driver/Src/stm32f0xx_hal_flash.c ****           pFlash.Address += 2;
 566              		.loc 1 366 26
 567 0108 2F4B     		ldr	r3, .L37+4
 568 010a 9B68     		ldr	r3, [r3, #8]
 569 010c 9A1C     		adds	r2, r3, #2
 570 010e 2E4B     		ldr	r3, .L37+4
 571 0110 9A60     		str	r2, [r3, #8]
 367:Drivers/STM32F0xx_HAL_Driver/Src/stm32f0xx_hal_flash.c ****           addresstmp = pFlash.Address;
 572              		.loc 1 367 22
 573 0112 2D4B     		ldr	r3, .L37+4
 574 0114 9B68     		ldr	r3, [r3, #8]
 575 0116 7B60     		str	r3, [r7, #4]
 368:Drivers/STM32F0xx_HAL_Driver/Src/stm32f0xx_hal_flash.c ****           
 369:Drivers/STM32F0xx_HAL_Driver/Src/stm32f0xx_hal_flash.c ****           /* Shift to have next 16-bit data */
 370:Drivers/STM32F0xx_HAL_Driver/Src/stm32f0xx_hal_flash.c ****           pFlash.Data = (pFlash.Data >> 16U);
 576              		.loc 1 370 32
 577 0118 2B4B     		ldr	r3, .L37+4
 578 011a 1A69     		ldr	r2, [r3, #16]
 579 011c 5B69     		ldr	r3, [r3, #20]
 580              		.loc 1 370 38
 581 011e 1904     		lsls	r1, r3, #16
 582 0120 140C     		lsrs	r4, r2, #16
 583 0122 0C43     		orrs	r4, r1
 584 0124 1D0C     		lsrs	r5, r3, #16
 585              		.loc 1 370 23
 586 0126 284B     		ldr	r3, .L37+4
 587 0128 1C61     		str	r4, [r3, #16]
 588 012a 5D61     		str	r5, [r3, #20]
 371:Drivers/STM32F0xx_HAL_Driver/Src/stm32f0xx_hal_flash.c ****           
 372:Drivers/STM32F0xx_HAL_Driver/Src/stm32f0xx_hal_flash.c ****           /* Operation is completed, disable the PG Bit */
 373:Drivers/STM32F0xx_HAL_Driver/Src/stm32f0xx_hal_flash.c ****           CLEAR_BIT(FLASH->CR, FLASH_CR_PG);
 589              		.loc 1 373 11
 590 012c 254B     		ldr	r3, .L37
 591 012e 1A69     		ldr	r2, [r3, #16]
 592 0130 244B     		ldr	r3, .L37
 593 0132 0121     		movs	r1, #1
 594 0134 8A43     		bics	r2, r1
 595 0136 1A61     		str	r2, [r3, #16]
 374:Drivers/STM32F0xx_HAL_Driver/Src/stm32f0xx_hal_flash.c **** 
 375:Drivers/STM32F0xx_HAL_Driver/Src/stm32f0xx_hal_flash.c ****           /*Program halfword (16-bit) at a specified address.*/
ARM GAS  C:\Users\mason\AppData\Local\Temp\cc7sRjNB.s 			page 18


 376:Drivers/STM32F0xx_HAL_Driver/Src/stm32f0xx_hal_flash.c ****           FLASH_Program_HalfWord(addresstmp, (uint16_t)pFlash.Data);
 596              		.loc 1 376 62
 597 0138 234B     		ldr	r3, .L37+4
 598 013a 1A69     		ldr	r2, [r3, #16]
 599 013c 5B69     		ldr	r3, [r3, #20]
 600              		.loc 1 376 11
 601 013e 92B2     		uxth	r2, r2
 602 0140 7B68     		ldr	r3, [r7, #4]
 603 0142 1100     		movs	r1, r2
 604 0144 1800     		movs	r0, r3
 605 0146 FFF7FEFF 		bl	FLASH_Program_HalfWord
 606 014a 23E0     		b	.L27
 607              	.L31:
 377:Drivers/STM32F0xx_HAL_Driver/Src/stm32f0xx_hal_flash.c ****         }
 378:Drivers/STM32F0xx_HAL_Driver/Src/stm32f0xx_hal_flash.c ****         else
 379:Drivers/STM32F0xx_HAL_Driver/Src/stm32f0xx_hal_flash.c ****         {
 380:Drivers/STM32F0xx_HAL_Driver/Src/stm32f0xx_hal_flash.c ****           /* Program ended. Return the selected address */
 381:Drivers/STM32F0xx_HAL_Driver/Src/stm32f0xx_hal_flash.c ****           /* FLASH EOP interrupt user callback */
 382:Drivers/STM32F0xx_HAL_Driver/Src/stm32f0xx_hal_flash.c ****           if (pFlash.ProcedureOnGoing == FLASH_PROC_PROGRAMHALFWORD)
 608              		.loc 1 382 21
 609 014c 1E4B     		ldr	r3, .L37+4
 610 014e 1B78     		ldrb	r3, [r3]
 611 0150 DBB2     		uxtb	r3, r3
 612              		.loc 1 382 14
 613 0152 032B     		cmp	r3, #3
 614 0154 05D1     		bne	.L32
 383:Drivers/STM32F0xx_HAL_Driver/Src/stm32f0xx_hal_flash.c ****           {
 384:Drivers/STM32F0xx_HAL_Driver/Src/stm32f0xx_hal_flash.c ****             HAL_FLASH_EndOfOperationCallback(pFlash.Address);
 615              		.loc 1 384 13
 616 0156 1C4B     		ldr	r3, .L37+4
 617 0158 9B68     		ldr	r3, [r3, #8]
 618 015a 1800     		movs	r0, r3
 619 015c FFF7FEFF 		bl	HAL_FLASH_EndOfOperationCallback
 620 0160 11E0     		b	.L33
 621              	.L32:
 385:Drivers/STM32F0xx_HAL_Driver/Src/stm32f0xx_hal_flash.c ****           }
 386:Drivers/STM32F0xx_HAL_Driver/Src/stm32f0xx_hal_flash.c ****           else if (pFlash.ProcedureOnGoing == FLASH_PROC_PROGRAMWORD)
 622              		.loc 1 386 26
 623 0162 194B     		ldr	r3, .L37+4
 624 0164 1B78     		ldrb	r3, [r3]
 625 0166 DBB2     		uxtb	r3, r3
 626              		.loc 1 386 19
 627 0168 042B     		cmp	r3, #4
 628 016a 06D1     		bne	.L34
 387:Drivers/STM32F0xx_HAL_Driver/Src/stm32f0xx_hal_flash.c ****           {
 388:Drivers/STM32F0xx_HAL_Driver/Src/stm32f0xx_hal_flash.c ****             HAL_FLASH_EndOfOperationCallback(pFlash.Address - 2U);
 629              		.loc 1 388 52
 630 016c 164B     		ldr	r3, .L37+4
 631 016e 9B68     		ldr	r3, [r3, #8]
 632              		.loc 1 388 13
 633 0170 023B     		subs	r3, r3, #2
 634 0172 1800     		movs	r0, r3
 635 0174 FFF7FEFF 		bl	HAL_FLASH_EndOfOperationCallback
 636 0178 05E0     		b	.L33
 637              	.L34:
 389:Drivers/STM32F0xx_HAL_Driver/Src/stm32f0xx_hal_flash.c ****           }
 390:Drivers/STM32F0xx_HAL_Driver/Src/stm32f0xx_hal_flash.c ****           else 
ARM GAS  C:\Users\mason\AppData\Local\Temp\cc7sRjNB.s 			page 19


 391:Drivers/STM32F0xx_HAL_Driver/Src/stm32f0xx_hal_flash.c ****           {
 392:Drivers/STM32F0xx_HAL_Driver/Src/stm32f0xx_hal_flash.c ****             HAL_FLASH_EndOfOperationCallback(pFlash.Address - 6U);
 638              		.loc 1 392 52
 639 017a 134B     		ldr	r3, .L37+4
 640 017c 9B68     		ldr	r3, [r3, #8]
 641              		.loc 1 392 13
 642 017e 063B     		subs	r3, r3, #6
 643 0180 1800     		movs	r0, r3
 644 0182 FFF7FEFF 		bl	HAL_FLASH_EndOfOperationCallback
 645              	.L33:
 393:Drivers/STM32F0xx_HAL_Driver/Src/stm32f0xx_hal_flash.c ****           }
 394:Drivers/STM32F0xx_HAL_Driver/Src/stm32f0xx_hal_flash.c ****         
 395:Drivers/STM32F0xx_HAL_Driver/Src/stm32f0xx_hal_flash.c ****           /* Reset Address and stop Program procedure */
 396:Drivers/STM32F0xx_HAL_Driver/Src/stm32f0xx_hal_flash.c ****           pFlash.Address = 0xFFFFFFFFU;
 646              		.loc 1 396 26
 647 0186 104B     		ldr	r3, .L37+4
 648 0188 0122     		movs	r2, #1
 649 018a 5242     		rsbs	r2, r2, #0
 650 018c 9A60     		str	r2, [r3, #8]
 397:Drivers/STM32F0xx_HAL_Driver/Src/stm32f0xx_hal_flash.c ****           pFlash.ProcedureOnGoing = FLASH_PROC_NONE;
 651              		.loc 1 397 35
 652 018e 0E4B     		ldr	r3, .L37+4
 653 0190 0022     		movs	r2, #0
 654 0192 1A70     		strb	r2, [r3]
 655              	.L27:
 398:Drivers/STM32F0xx_HAL_Driver/Src/stm32f0xx_hal_flash.c ****         }
 399:Drivers/STM32F0xx_HAL_Driver/Src/stm32f0xx_hal_flash.c ****       }
 400:Drivers/STM32F0xx_HAL_Driver/Src/stm32f0xx_hal_flash.c ****     }
 401:Drivers/STM32F0xx_HAL_Driver/Src/stm32f0xx_hal_flash.c ****   }
 402:Drivers/STM32F0xx_HAL_Driver/Src/stm32f0xx_hal_flash.c ****   
 403:Drivers/STM32F0xx_HAL_Driver/Src/stm32f0xx_hal_flash.c **** 
 404:Drivers/STM32F0xx_HAL_Driver/Src/stm32f0xx_hal_flash.c ****   if(pFlash.ProcedureOnGoing == FLASH_PROC_NONE)
 656              		.loc 1 404 12
 657 0194 0C4B     		ldr	r3, .L37+4
 658 0196 1B78     		ldrb	r3, [r3]
 659 0198 DBB2     		uxtb	r3, r3
 660              		.loc 1 404 5
 661 019a 002B     		cmp	r3, #0
 662 019c 0ED1     		bne	.L36
 405:Drivers/STM32F0xx_HAL_Driver/Src/stm32f0xx_hal_flash.c ****   {
 406:Drivers/STM32F0xx_HAL_Driver/Src/stm32f0xx_hal_flash.c ****     /* Operation is completed, disable the PG, PER and MER Bits */
 407:Drivers/STM32F0xx_HAL_Driver/Src/stm32f0xx_hal_flash.c ****     CLEAR_BIT(FLASH->CR, (FLASH_CR_PG | FLASH_CR_PER | FLASH_CR_MER));
 663              		.loc 1 407 5
 664 019e 094B     		ldr	r3, .L37
 665 01a0 1A69     		ldr	r2, [r3, #16]
 666 01a2 084B     		ldr	r3, .L37
 667 01a4 0721     		movs	r1, #7
 668 01a6 8A43     		bics	r2, r1
 669 01a8 1A61     		str	r2, [r3, #16]
 408:Drivers/STM32F0xx_HAL_Driver/Src/stm32f0xx_hal_flash.c **** 
 409:Drivers/STM32F0xx_HAL_Driver/Src/stm32f0xx_hal_flash.c ****     /* Disable End of FLASH Operation and Error source interrupts */
 410:Drivers/STM32F0xx_HAL_Driver/Src/stm32f0xx_hal_flash.c ****     __HAL_FLASH_DISABLE_IT(FLASH_IT_EOP | FLASH_IT_ERR);
 670              		.loc 1 410 5
 671 01aa 064B     		ldr	r3, .L37
 672 01ac 1A69     		ldr	r2, [r3, #16]
 673 01ae 054B     		ldr	r3, .L37
 674 01b0 0649     		ldr	r1, .L37+8
ARM GAS  C:\Users\mason\AppData\Local\Temp\cc7sRjNB.s 			page 20


 675 01b2 0A40     		ands	r2, r1
 676 01b4 1A61     		str	r2, [r3, #16]
 411:Drivers/STM32F0xx_HAL_Driver/Src/stm32f0xx_hal_flash.c **** 
 412:Drivers/STM32F0xx_HAL_Driver/Src/stm32f0xx_hal_flash.c ****     /* Process Unlocked */
 413:Drivers/STM32F0xx_HAL_Driver/Src/stm32f0xx_hal_flash.c ****     __HAL_UNLOCK(&pFlash);
 677              		.loc 1 413 5
 678 01b6 044B     		ldr	r3, .L37+4
 679 01b8 0022     		movs	r2, #0
 680 01ba 1A76     		strb	r2, [r3, #24]
 681              	.L36:
 414:Drivers/STM32F0xx_HAL_Driver/Src/stm32f0xx_hal_flash.c ****   }
 415:Drivers/STM32F0xx_HAL_Driver/Src/stm32f0xx_hal_flash.c **** }
 682              		.loc 1 415 1
 683 01bc C046     		nop
 684 01be BD46     		mov	sp, r7
 685 01c0 02B0     		add	sp, sp, #8
 686              		@ sp needed
 687 01c2 B0BD     		pop	{r4, r5, r7, pc}
 688              	.L38:
 689              		.align	2
 690              	.L37:
 691 01c4 00200240 		.word	1073881088
 692 01c8 00000000 		.word	pFlash
 693 01cc FFEBFFFF 		.word	-5121
 694              		.cfi_endproc
 695              	.LFE42:
 697              		.section	.text.HAL_FLASH_EndOfOperationCallback,"ax",%progbits
 698              		.align	1
 699              		.weak	HAL_FLASH_EndOfOperationCallback
 700              		.syntax unified
 701              		.code	16
 702              		.thumb_func
 704              	HAL_FLASH_EndOfOperationCallback:
 705              	.LFB43:
 416:Drivers/STM32F0xx_HAL_Driver/Src/stm32f0xx_hal_flash.c **** 
 417:Drivers/STM32F0xx_HAL_Driver/Src/stm32f0xx_hal_flash.c **** /**
 418:Drivers/STM32F0xx_HAL_Driver/Src/stm32f0xx_hal_flash.c ****   * @brief  FLASH end of operation interrupt callback
 419:Drivers/STM32F0xx_HAL_Driver/Src/stm32f0xx_hal_flash.c ****   * @param  ReturnValue The value saved in this parameter depends on the ongoing procedure
 420:Drivers/STM32F0xx_HAL_Driver/Src/stm32f0xx_hal_flash.c ****   *                 - Mass Erase: No return value expected
 421:Drivers/STM32F0xx_HAL_Driver/Src/stm32f0xx_hal_flash.c ****   *                 - Pages Erase: Address of the page which has been erased 
 422:Drivers/STM32F0xx_HAL_Driver/Src/stm32f0xx_hal_flash.c ****   *                    (if 0xFFFFFFFF, it means that all the selected pages have been erased)
 423:Drivers/STM32F0xx_HAL_Driver/Src/stm32f0xx_hal_flash.c ****   *                 - Program: Address which was selected for data program
 424:Drivers/STM32F0xx_HAL_Driver/Src/stm32f0xx_hal_flash.c ****   * @retval none
 425:Drivers/STM32F0xx_HAL_Driver/Src/stm32f0xx_hal_flash.c ****   */
 426:Drivers/STM32F0xx_HAL_Driver/Src/stm32f0xx_hal_flash.c **** __weak void HAL_FLASH_EndOfOperationCallback(uint32_t ReturnValue)
 427:Drivers/STM32F0xx_HAL_Driver/Src/stm32f0xx_hal_flash.c **** {
 706              		.loc 1 427 1
 707              		.cfi_startproc
 708              		@ args = 0, pretend = 0, frame = 8
 709              		@ frame_needed = 1, uses_anonymous_args = 0
 710 0000 80B5     		push	{r7, lr}
 711              	.LCFI9:
 712              		.cfi_def_cfa_offset 8
 713              		.cfi_offset 7, -8
 714              		.cfi_offset 14, -4
 715 0002 82B0     		sub	sp, sp, #8
 716              	.LCFI10:
ARM GAS  C:\Users\mason\AppData\Local\Temp\cc7sRjNB.s 			page 21


 717              		.cfi_def_cfa_offset 16
 718 0004 00AF     		add	r7, sp, #0
 719              	.LCFI11:
 720              		.cfi_def_cfa_register 7
 721 0006 7860     		str	r0, [r7, #4]
 428:Drivers/STM32F0xx_HAL_Driver/Src/stm32f0xx_hal_flash.c ****   /* Prevent unused argument(s) compilation warning */
 429:Drivers/STM32F0xx_HAL_Driver/Src/stm32f0xx_hal_flash.c ****   UNUSED(ReturnValue);
 430:Drivers/STM32F0xx_HAL_Driver/Src/stm32f0xx_hal_flash.c **** 
 431:Drivers/STM32F0xx_HAL_Driver/Src/stm32f0xx_hal_flash.c ****   /* NOTE : This function Should not be modified, when the callback is needed,
 432:Drivers/STM32F0xx_HAL_Driver/Src/stm32f0xx_hal_flash.c ****             the HAL_FLASH_EndOfOperationCallback could be implemented in the user file
 433:Drivers/STM32F0xx_HAL_Driver/Src/stm32f0xx_hal_flash.c ****    */ 
 434:Drivers/STM32F0xx_HAL_Driver/Src/stm32f0xx_hal_flash.c **** }
 722              		.loc 1 434 1
 723 0008 C046     		nop
 724 000a BD46     		mov	sp, r7
 725 000c 02B0     		add	sp, sp, #8
 726              		@ sp needed
 727 000e 80BD     		pop	{r7, pc}
 728              		.cfi_endproc
 729              	.LFE43:
 731              		.section	.text.HAL_FLASH_OperationErrorCallback,"ax",%progbits
 732              		.align	1
 733              		.weak	HAL_FLASH_OperationErrorCallback
 734              		.syntax unified
 735              		.code	16
 736              		.thumb_func
 738              	HAL_FLASH_OperationErrorCallback:
 739              	.LFB44:
 435:Drivers/STM32F0xx_HAL_Driver/Src/stm32f0xx_hal_flash.c **** 
 436:Drivers/STM32F0xx_HAL_Driver/Src/stm32f0xx_hal_flash.c **** /**
 437:Drivers/STM32F0xx_HAL_Driver/Src/stm32f0xx_hal_flash.c ****   * @brief  FLASH operation error interrupt callback
 438:Drivers/STM32F0xx_HAL_Driver/Src/stm32f0xx_hal_flash.c ****   * @param  ReturnValue The value saved in this parameter depends on the ongoing procedure
 439:Drivers/STM32F0xx_HAL_Driver/Src/stm32f0xx_hal_flash.c ****   *                 - Mass Erase: No return value expected
 440:Drivers/STM32F0xx_HAL_Driver/Src/stm32f0xx_hal_flash.c ****   *                 - Pages Erase: Address of the page which returned an error
 441:Drivers/STM32F0xx_HAL_Driver/Src/stm32f0xx_hal_flash.c ****   *                 - Program: Address which was selected for data program
 442:Drivers/STM32F0xx_HAL_Driver/Src/stm32f0xx_hal_flash.c ****   * @retval none
 443:Drivers/STM32F0xx_HAL_Driver/Src/stm32f0xx_hal_flash.c ****   */
 444:Drivers/STM32F0xx_HAL_Driver/Src/stm32f0xx_hal_flash.c **** __weak void HAL_FLASH_OperationErrorCallback(uint32_t ReturnValue)
 445:Drivers/STM32F0xx_HAL_Driver/Src/stm32f0xx_hal_flash.c **** {
 740              		.loc 1 445 1
 741              		.cfi_startproc
 742              		@ args = 0, pretend = 0, frame = 8
 743              		@ frame_needed = 1, uses_anonymous_args = 0
 744 0000 80B5     		push	{r7, lr}
 745              	.LCFI12:
 746              		.cfi_def_cfa_offset 8
 747              		.cfi_offset 7, -8
 748              		.cfi_offset 14, -4
 749 0002 82B0     		sub	sp, sp, #8
 750              	.LCFI13:
 751              		.cfi_def_cfa_offset 16
 752 0004 00AF     		add	r7, sp, #0
 753              	.LCFI14:
 754              		.cfi_def_cfa_register 7
 755 0006 7860     		str	r0, [r7, #4]
 446:Drivers/STM32F0xx_HAL_Driver/Src/stm32f0xx_hal_flash.c ****   /* Prevent unused argument(s) compilation warning */
 447:Drivers/STM32F0xx_HAL_Driver/Src/stm32f0xx_hal_flash.c ****   UNUSED(ReturnValue);
ARM GAS  C:\Users\mason\AppData\Local\Temp\cc7sRjNB.s 			page 22


 448:Drivers/STM32F0xx_HAL_Driver/Src/stm32f0xx_hal_flash.c **** 
 449:Drivers/STM32F0xx_HAL_Driver/Src/stm32f0xx_hal_flash.c ****   /* NOTE : This function Should not be modified, when the callback is needed,
 450:Drivers/STM32F0xx_HAL_Driver/Src/stm32f0xx_hal_flash.c ****             the HAL_FLASH_OperationErrorCallback could be implemented in the user file
 451:Drivers/STM32F0xx_HAL_Driver/Src/stm32f0xx_hal_flash.c ****    */ 
 452:Drivers/STM32F0xx_HAL_Driver/Src/stm32f0xx_hal_flash.c **** }
 756              		.loc 1 452 1
 757 0008 C046     		nop
 758 000a BD46     		mov	sp, r7
 759 000c 02B0     		add	sp, sp, #8
 760              		@ sp needed
 761 000e 80BD     		pop	{r7, pc}
 762              		.cfi_endproc
 763              	.LFE44:
 765              		.section	.text.HAL_FLASH_Unlock,"ax",%progbits
 766              		.align	1
 767              		.global	HAL_FLASH_Unlock
 768              		.syntax unified
 769              		.code	16
 770              		.thumb_func
 772              	HAL_FLASH_Unlock:
 773              	.LFB45:
 453:Drivers/STM32F0xx_HAL_Driver/Src/stm32f0xx_hal_flash.c **** 
 454:Drivers/STM32F0xx_HAL_Driver/Src/stm32f0xx_hal_flash.c **** /**
 455:Drivers/STM32F0xx_HAL_Driver/Src/stm32f0xx_hal_flash.c ****   * @}
 456:Drivers/STM32F0xx_HAL_Driver/Src/stm32f0xx_hal_flash.c ****   */
 457:Drivers/STM32F0xx_HAL_Driver/Src/stm32f0xx_hal_flash.c **** 
 458:Drivers/STM32F0xx_HAL_Driver/Src/stm32f0xx_hal_flash.c **** /** @defgroup FLASH_Exported_Functions_Group2 Peripheral Control functions 
 459:Drivers/STM32F0xx_HAL_Driver/Src/stm32f0xx_hal_flash.c ****  *  @brief   management functions 
 460:Drivers/STM32F0xx_HAL_Driver/Src/stm32f0xx_hal_flash.c ****  *
 461:Drivers/STM32F0xx_HAL_Driver/Src/stm32f0xx_hal_flash.c **** @verbatim   
 462:Drivers/STM32F0xx_HAL_Driver/Src/stm32f0xx_hal_flash.c ****  ===============================================================================
 463:Drivers/STM32F0xx_HAL_Driver/Src/stm32f0xx_hal_flash.c ****                       ##### Peripheral Control functions #####
 464:Drivers/STM32F0xx_HAL_Driver/Src/stm32f0xx_hal_flash.c ****  ===============================================================================  
 465:Drivers/STM32F0xx_HAL_Driver/Src/stm32f0xx_hal_flash.c ****     [..]
 466:Drivers/STM32F0xx_HAL_Driver/Src/stm32f0xx_hal_flash.c ****     This subsection provides a set of functions allowing to control the FLASH 
 467:Drivers/STM32F0xx_HAL_Driver/Src/stm32f0xx_hal_flash.c ****     memory operations.
 468:Drivers/STM32F0xx_HAL_Driver/Src/stm32f0xx_hal_flash.c **** 
 469:Drivers/STM32F0xx_HAL_Driver/Src/stm32f0xx_hal_flash.c **** @endverbatim
 470:Drivers/STM32F0xx_HAL_Driver/Src/stm32f0xx_hal_flash.c ****   * @{
 471:Drivers/STM32F0xx_HAL_Driver/Src/stm32f0xx_hal_flash.c ****   */
 472:Drivers/STM32F0xx_HAL_Driver/Src/stm32f0xx_hal_flash.c **** 
 473:Drivers/STM32F0xx_HAL_Driver/Src/stm32f0xx_hal_flash.c **** /**
 474:Drivers/STM32F0xx_HAL_Driver/Src/stm32f0xx_hal_flash.c ****   * @brief  Unlock the FLASH control register access
 475:Drivers/STM32F0xx_HAL_Driver/Src/stm32f0xx_hal_flash.c ****   * @retval HAL Status
 476:Drivers/STM32F0xx_HAL_Driver/Src/stm32f0xx_hal_flash.c ****   */
 477:Drivers/STM32F0xx_HAL_Driver/Src/stm32f0xx_hal_flash.c **** HAL_StatusTypeDef HAL_FLASH_Unlock(void)
 478:Drivers/STM32F0xx_HAL_Driver/Src/stm32f0xx_hal_flash.c **** {
 774              		.loc 1 478 1
 775              		.cfi_startproc
 776              		@ args = 0, pretend = 0, frame = 8
 777              		@ frame_needed = 1, uses_anonymous_args = 0
 778 0000 80B5     		push	{r7, lr}
 779              	.LCFI15:
 780              		.cfi_def_cfa_offset 8
 781              		.cfi_offset 7, -8
 782              		.cfi_offset 14, -4
 783 0002 82B0     		sub	sp, sp, #8
ARM GAS  C:\Users\mason\AppData\Local\Temp\cc7sRjNB.s 			page 23


 784              	.LCFI16:
 785              		.cfi_def_cfa_offset 16
 786 0004 00AF     		add	r7, sp, #0
 787              	.LCFI17:
 788              		.cfi_def_cfa_register 7
 479:Drivers/STM32F0xx_HAL_Driver/Src/stm32f0xx_hal_flash.c ****   HAL_StatusTypeDef status = HAL_OK;
 789              		.loc 1 479 21
 790 0006 FB1D     		adds	r3, r7, #7
 791 0008 0022     		movs	r2, #0
 792 000a 1A70     		strb	r2, [r3]
 480:Drivers/STM32F0xx_HAL_Driver/Src/stm32f0xx_hal_flash.c **** 
 481:Drivers/STM32F0xx_HAL_Driver/Src/stm32f0xx_hal_flash.c ****   if(READ_BIT(FLASH->CR, FLASH_CR_LOCK) != RESET)
 793              		.loc 1 481 6
 794 000c 0C4B     		ldr	r3, .L44
 795 000e 1B69     		ldr	r3, [r3, #16]
 796 0010 8022     		movs	r2, #128
 797 0012 1340     		ands	r3, r2
 798              		.loc 1 481 5
 799 0014 0DD0     		beq	.L42
 482:Drivers/STM32F0xx_HAL_Driver/Src/stm32f0xx_hal_flash.c ****   {
 483:Drivers/STM32F0xx_HAL_Driver/Src/stm32f0xx_hal_flash.c ****     /* Authorize the FLASH Registers access */
 484:Drivers/STM32F0xx_HAL_Driver/Src/stm32f0xx_hal_flash.c ****     WRITE_REG(FLASH->KEYR, FLASH_KEY1);
 800              		.loc 1 484 5
 801 0016 0A4B     		ldr	r3, .L44
 802 0018 0A4A     		ldr	r2, .L44+4
 803 001a 5A60     		str	r2, [r3, #4]
 485:Drivers/STM32F0xx_HAL_Driver/Src/stm32f0xx_hal_flash.c ****     WRITE_REG(FLASH->KEYR, FLASH_KEY2);
 804              		.loc 1 485 5
 805 001c 084B     		ldr	r3, .L44
 806 001e 0A4A     		ldr	r2, .L44+8
 807 0020 5A60     		str	r2, [r3, #4]
 486:Drivers/STM32F0xx_HAL_Driver/Src/stm32f0xx_hal_flash.c **** 
 487:Drivers/STM32F0xx_HAL_Driver/Src/stm32f0xx_hal_flash.c ****     /* Verify Flash is unlocked */
 488:Drivers/STM32F0xx_HAL_Driver/Src/stm32f0xx_hal_flash.c ****     if(READ_BIT(FLASH->CR, FLASH_CR_LOCK) != RESET)
 808              		.loc 1 488 8
 809 0022 074B     		ldr	r3, .L44
 810 0024 1B69     		ldr	r3, [r3, #16]
 811 0026 8022     		movs	r2, #128
 812 0028 1340     		ands	r3, r2
 813              		.loc 1 488 7
 814 002a 02D0     		beq	.L42
 489:Drivers/STM32F0xx_HAL_Driver/Src/stm32f0xx_hal_flash.c ****     {
 490:Drivers/STM32F0xx_HAL_Driver/Src/stm32f0xx_hal_flash.c ****       status = HAL_ERROR;
 815              		.loc 1 490 14
 816 002c FB1D     		adds	r3, r7, #7
 817 002e 0122     		movs	r2, #1
 818 0030 1A70     		strb	r2, [r3]
 819              	.L42:
 491:Drivers/STM32F0xx_HAL_Driver/Src/stm32f0xx_hal_flash.c ****     }
 492:Drivers/STM32F0xx_HAL_Driver/Src/stm32f0xx_hal_flash.c ****   }
 493:Drivers/STM32F0xx_HAL_Driver/Src/stm32f0xx_hal_flash.c **** 
 494:Drivers/STM32F0xx_HAL_Driver/Src/stm32f0xx_hal_flash.c ****   return status;
 820              		.loc 1 494 10
 821 0032 FB1D     		adds	r3, r7, #7
 822 0034 1B78     		ldrb	r3, [r3]
 495:Drivers/STM32F0xx_HAL_Driver/Src/stm32f0xx_hal_flash.c **** }
 823              		.loc 1 495 1
ARM GAS  C:\Users\mason\AppData\Local\Temp\cc7sRjNB.s 			page 24


 824 0036 1800     		movs	r0, r3
 825 0038 BD46     		mov	sp, r7
 826 003a 02B0     		add	sp, sp, #8
 827              		@ sp needed
 828 003c 80BD     		pop	{r7, pc}
 829              	.L45:
 830 003e C046     		.align	2
 831              	.L44:
 832 0040 00200240 		.word	1073881088
 833 0044 23016745 		.word	1164378403
 834 0048 AB89EFCD 		.word	-839939669
 835              		.cfi_endproc
 836              	.LFE45:
 838              		.section	.text.HAL_FLASH_Lock,"ax",%progbits
 839              		.align	1
 840              		.global	HAL_FLASH_Lock
 841              		.syntax unified
 842              		.code	16
 843              		.thumb_func
 845              	HAL_FLASH_Lock:
 846              	.LFB46:
 496:Drivers/STM32F0xx_HAL_Driver/Src/stm32f0xx_hal_flash.c **** 
 497:Drivers/STM32F0xx_HAL_Driver/Src/stm32f0xx_hal_flash.c **** /**
 498:Drivers/STM32F0xx_HAL_Driver/Src/stm32f0xx_hal_flash.c ****   * @brief  Locks the FLASH control register access
 499:Drivers/STM32F0xx_HAL_Driver/Src/stm32f0xx_hal_flash.c ****   * @retval HAL Status
 500:Drivers/STM32F0xx_HAL_Driver/Src/stm32f0xx_hal_flash.c ****   */
 501:Drivers/STM32F0xx_HAL_Driver/Src/stm32f0xx_hal_flash.c **** HAL_StatusTypeDef HAL_FLASH_Lock(void)
 502:Drivers/STM32F0xx_HAL_Driver/Src/stm32f0xx_hal_flash.c **** {
 847              		.loc 1 502 1
 848              		.cfi_startproc
 849              		@ args = 0, pretend = 0, frame = 0
 850              		@ frame_needed = 1, uses_anonymous_args = 0
 851 0000 80B5     		push	{r7, lr}
 852              	.LCFI18:
 853              		.cfi_def_cfa_offset 8
 854              		.cfi_offset 7, -8
 855              		.cfi_offset 14, -4
 856 0002 00AF     		add	r7, sp, #0
 857              	.LCFI19:
 858              		.cfi_def_cfa_register 7
 503:Drivers/STM32F0xx_HAL_Driver/Src/stm32f0xx_hal_flash.c ****   /* Set the LOCK Bit to lock the FLASH Registers access */
 504:Drivers/STM32F0xx_HAL_Driver/Src/stm32f0xx_hal_flash.c ****   SET_BIT(FLASH->CR, FLASH_CR_LOCK);
 859              		.loc 1 504 3
 860 0004 044B     		ldr	r3, .L48
 861 0006 1A69     		ldr	r2, [r3, #16]
 862 0008 034B     		ldr	r3, .L48
 863 000a 8021     		movs	r1, #128
 864 000c 0A43     		orrs	r2, r1
 865 000e 1A61     		str	r2, [r3, #16]
 505:Drivers/STM32F0xx_HAL_Driver/Src/stm32f0xx_hal_flash.c ****   
 506:Drivers/STM32F0xx_HAL_Driver/Src/stm32f0xx_hal_flash.c ****   return HAL_OK;  
 866              		.loc 1 506 10
 867 0010 0023     		movs	r3, #0
 507:Drivers/STM32F0xx_HAL_Driver/Src/stm32f0xx_hal_flash.c **** }
 868              		.loc 1 507 1
 869 0012 1800     		movs	r0, r3
 870 0014 BD46     		mov	sp, r7
ARM GAS  C:\Users\mason\AppData\Local\Temp\cc7sRjNB.s 			page 25


 871              		@ sp needed
 872 0016 80BD     		pop	{r7, pc}
 873              	.L49:
 874              		.align	2
 875              	.L48:
 876 0018 00200240 		.word	1073881088
 877              		.cfi_endproc
 878              	.LFE46:
 880              		.section	.text.HAL_FLASH_OB_Unlock,"ax",%progbits
 881              		.align	1
 882              		.global	HAL_FLASH_OB_Unlock
 883              		.syntax unified
 884              		.code	16
 885              		.thumb_func
 887              	HAL_FLASH_OB_Unlock:
 888              	.LFB47:
 508:Drivers/STM32F0xx_HAL_Driver/Src/stm32f0xx_hal_flash.c **** 
 509:Drivers/STM32F0xx_HAL_Driver/Src/stm32f0xx_hal_flash.c **** /**
 510:Drivers/STM32F0xx_HAL_Driver/Src/stm32f0xx_hal_flash.c ****   * @brief  Unlock the FLASH Option Control Registers access.
 511:Drivers/STM32F0xx_HAL_Driver/Src/stm32f0xx_hal_flash.c ****   * @retval HAL Status
 512:Drivers/STM32F0xx_HAL_Driver/Src/stm32f0xx_hal_flash.c ****   */
 513:Drivers/STM32F0xx_HAL_Driver/Src/stm32f0xx_hal_flash.c **** HAL_StatusTypeDef HAL_FLASH_OB_Unlock(void)
 514:Drivers/STM32F0xx_HAL_Driver/Src/stm32f0xx_hal_flash.c **** {
 889              		.loc 1 514 1
 890              		.cfi_startproc
 891              		@ args = 0, pretend = 0, frame = 0
 892              		@ frame_needed = 1, uses_anonymous_args = 0
 893 0000 80B5     		push	{r7, lr}
 894              	.LCFI20:
 895              		.cfi_def_cfa_offset 8
 896              		.cfi_offset 7, -8
 897              		.cfi_offset 14, -4
 898 0002 00AF     		add	r7, sp, #0
 899              	.LCFI21:
 900              		.cfi_def_cfa_register 7
 515:Drivers/STM32F0xx_HAL_Driver/Src/stm32f0xx_hal_flash.c ****   if (HAL_IS_BIT_CLR(FLASH->CR, FLASH_CR_OPTWRE))
 901              		.loc 1 515 7
 902 0004 084B     		ldr	r3, .L54
 903 0006 1A69     		ldr	r2, [r3, #16]
 904 0008 8023     		movs	r3, #128
 905 000a 9B00     		lsls	r3, r3, #2
 906 000c 1340     		ands	r3, r2
 907              		.loc 1 515 6
 908 000e 07D1     		bne	.L51
 516:Drivers/STM32F0xx_HAL_Driver/Src/stm32f0xx_hal_flash.c ****   {
 517:Drivers/STM32F0xx_HAL_Driver/Src/stm32f0xx_hal_flash.c ****     /* Authorizes the Option Byte register programming */
 518:Drivers/STM32F0xx_HAL_Driver/Src/stm32f0xx_hal_flash.c ****     WRITE_REG(FLASH->OPTKEYR, FLASH_OPTKEY1);
 909              		.loc 1 518 5
 910 0010 054B     		ldr	r3, .L54
 911 0012 064A     		ldr	r2, .L54+4
 912 0014 9A60     		str	r2, [r3, #8]
 519:Drivers/STM32F0xx_HAL_Driver/Src/stm32f0xx_hal_flash.c ****     WRITE_REG(FLASH->OPTKEYR, FLASH_OPTKEY2);
 913              		.loc 1 519 5
 914 0016 044B     		ldr	r3, .L54
 915 0018 054A     		ldr	r2, .L54+8
 916 001a 9A60     		str	r2, [r3, #8]
 520:Drivers/STM32F0xx_HAL_Driver/Src/stm32f0xx_hal_flash.c ****   }
ARM GAS  C:\Users\mason\AppData\Local\Temp\cc7sRjNB.s 			page 26


 521:Drivers/STM32F0xx_HAL_Driver/Src/stm32f0xx_hal_flash.c ****   else
 522:Drivers/STM32F0xx_HAL_Driver/Src/stm32f0xx_hal_flash.c ****   {
 523:Drivers/STM32F0xx_HAL_Driver/Src/stm32f0xx_hal_flash.c ****     return HAL_ERROR;
 524:Drivers/STM32F0xx_HAL_Driver/Src/stm32f0xx_hal_flash.c ****   }  
 525:Drivers/STM32F0xx_HAL_Driver/Src/stm32f0xx_hal_flash.c ****   
 526:Drivers/STM32F0xx_HAL_Driver/Src/stm32f0xx_hal_flash.c ****   return HAL_OK;  
 917              		.loc 1 526 10
 918 001c 0023     		movs	r3, #0
 919 001e 00E0     		b	.L53
 920              	.L51:
 523:Drivers/STM32F0xx_HAL_Driver/Src/stm32f0xx_hal_flash.c ****   }  
 921              		.loc 1 523 12
 922 0020 0123     		movs	r3, #1
 923              	.L53:
 527:Drivers/STM32F0xx_HAL_Driver/Src/stm32f0xx_hal_flash.c **** }
 924              		.loc 1 527 1
 925 0022 1800     		movs	r0, r3
 926 0024 BD46     		mov	sp, r7
 927              		@ sp needed
 928 0026 80BD     		pop	{r7, pc}
 929              	.L55:
 930              		.align	2
 931              	.L54:
 932 0028 00200240 		.word	1073881088
 933 002c 23016745 		.word	1164378403
 934 0030 AB89EFCD 		.word	-839939669
 935              		.cfi_endproc
 936              	.LFE47:
 938              		.section	.text.HAL_FLASH_OB_Lock,"ax",%progbits
 939              		.align	1
 940              		.global	HAL_FLASH_OB_Lock
 941              		.syntax unified
 942              		.code	16
 943              		.thumb_func
 945              	HAL_FLASH_OB_Lock:
 946              	.LFB48:
 528:Drivers/STM32F0xx_HAL_Driver/Src/stm32f0xx_hal_flash.c **** 
 529:Drivers/STM32F0xx_HAL_Driver/Src/stm32f0xx_hal_flash.c **** /**
 530:Drivers/STM32F0xx_HAL_Driver/Src/stm32f0xx_hal_flash.c ****   * @brief  Lock the FLASH Option Control Registers access.
 531:Drivers/STM32F0xx_HAL_Driver/Src/stm32f0xx_hal_flash.c ****   * @retval HAL Status 
 532:Drivers/STM32F0xx_HAL_Driver/Src/stm32f0xx_hal_flash.c ****   */
 533:Drivers/STM32F0xx_HAL_Driver/Src/stm32f0xx_hal_flash.c **** HAL_StatusTypeDef HAL_FLASH_OB_Lock(void)
 534:Drivers/STM32F0xx_HAL_Driver/Src/stm32f0xx_hal_flash.c **** {
 947              		.loc 1 534 1
 948              		.cfi_startproc
 949              		@ args = 0, pretend = 0, frame = 0
 950              		@ frame_needed = 1, uses_anonymous_args = 0
 951 0000 80B5     		push	{r7, lr}
 952              	.LCFI22:
 953              		.cfi_def_cfa_offset 8
 954              		.cfi_offset 7, -8
 955              		.cfi_offset 14, -4
 956 0002 00AF     		add	r7, sp, #0
 957              	.LCFI23:
 958              		.cfi_def_cfa_register 7
 535:Drivers/STM32F0xx_HAL_Driver/Src/stm32f0xx_hal_flash.c ****   /* Clear the OPTWRE Bit to lock the FLASH Option Byte Registers access */
 536:Drivers/STM32F0xx_HAL_Driver/Src/stm32f0xx_hal_flash.c ****   CLEAR_BIT(FLASH->CR, FLASH_CR_OPTWRE);
ARM GAS  C:\Users\mason\AppData\Local\Temp\cc7sRjNB.s 			page 27


 959              		.loc 1 536 3
 960 0004 044B     		ldr	r3, .L58
 961 0006 1A69     		ldr	r2, [r3, #16]
 962 0008 034B     		ldr	r3, .L58
 963 000a 0449     		ldr	r1, .L58+4
 964 000c 0A40     		ands	r2, r1
 965 000e 1A61     		str	r2, [r3, #16]
 537:Drivers/STM32F0xx_HAL_Driver/Src/stm32f0xx_hal_flash.c ****   
 538:Drivers/STM32F0xx_HAL_Driver/Src/stm32f0xx_hal_flash.c ****   return HAL_OK;  
 966              		.loc 1 538 10
 967 0010 0023     		movs	r3, #0
 539:Drivers/STM32F0xx_HAL_Driver/Src/stm32f0xx_hal_flash.c **** }
 968              		.loc 1 539 1
 969 0012 1800     		movs	r0, r3
 970 0014 BD46     		mov	sp, r7
 971              		@ sp needed
 972 0016 80BD     		pop	{r7, pc}
 973              	.L59:
 974              		.align	2
 975              	.L58:
 976 0018 00200240 		.word	1073881088
 977 001c FFFDFFFF 		.word	-513
 978              		.cfi_endproc
 979              	.LFE48:
 981              		.section	.text.HAL_FLASH_OB_Launch,"ax",%progbits
 982              		.align	1
 983              		.global	HAL_FLASH_OB_Launch
 984              		.syntax unified
 985              		.code	16
 986              		.thumb_func
 988              	HAL_FLASH_OB_Launch:
 989              	.LFB49:
 540:Drivers/STM32F0xx_HAL_Driver/Src/stm32f0xx_hal_flash.c ****   
 541:Drivers/STM32F0xx_HAL_Driver/Src/stm32f0xx_hal_flash.c **** /**
 542:Drivers/STM32F0xx_HAL_Driver/Src/stm32f0xx_hal_flash.c ****   * @brief  Launch the option byte loading.
 543:Drivers/STM32F0xx_HAL_Driver/Src/stm32f0xx_hal_flash.c ****   * @note   This function will reset automatically the MCU.
 544:Drivers/STM32F0xx_HAL_Driver/Src/stm32f0xx_hal_flash.c ****   * @retval HAL Status
 545:Drivers/STM32F0xx_HAL_Driver/Src/stm32f0xx_hal_flash.c ****   */
 546:Drivers/STM32F0xx_HAL_Driver/Src/stm32f0xx_hal_flash.c **** HAL_StatusTypeDef HAL_FLASH_OB_Launch(void)
 547:Drivers/STM32F0xx_HAL_Driver/Src/stm32f0xx_hal_flash.c **** {
 990              		.loc 1 547 1
 991              		.cfi_startproc
 992              		@ args = 0, pretend = 0, frame = 0
 993              		@ frame_needed = 1, uses_anonymous_args = 0
 994 0000 80B5     		push	{r7, lr}
 995              	.LCFI24:
 996              		.cfi_def_cfa_offset 8
 997              		.cfi_offset 7, -8
 998              		.cfi_offset 14, -4
 999 0002 00AF     		add	r7, sp, #0
 1000              	.LCFI25:
 1001              		.cfi_def_cfa_register 7
 548:Drivers/STM32F0xx_HAL_Driver/Src/stm32f0xx_hal_flash.c ****   /* Set the OBL_Launch bit to launch the option byte loading */
 549:Drivers/STM32F0xx_HAL_Driver/Src/stm32f0xx_hal_flash.c ****   SET_BIT(FLASH->CR, FLASH_CR_OBL_LAUNCH);
 1002              		.loc 1 549 3
 1003 0004 074B     		ldr	r3, .L62
 1004 0006 1A69     		ldr	r2, [r3, #16]
ARM GAS  C:\Users\mason\AppData\Local\Temp\cc7sRjNB.s 			page 28


 1005 0008 064B     		ldr	r3, .L62
 1006 000a 8021     		movs	r1, #128
 1007 000c 8901     		lsls	r1, r1, #6
 1008 000e 0A43     		orrs	r2, r1
 1009 0010 1A61     		str	r2, [r3, #16]
 550:Drivers/STM32F0xx_HAL_Driver/Src/stm32f0xx_hal_flash.c ****   
 551:Drivers/STM32F0xx_HAL_Driver/Src/stm32f0xx_hal_flash.c ****   /* Wait for last operation to be completed */
 552:Drivers/STM32F0xx_HAL_Driver/Src/stm32f0xx_hal_flash.c ****   return(FLASH_WaitForLastOperation(FLASH_TIMEOUT_VALUE));
 1010              		.loc 1 552 10
 1011 0012 054B     		ldr	r3, .L62+4
 1012 0014 1800     		movs	r0, r3
 1013 0016 FFF7FEFF 		bl	FLASH_WaitForLastOperation
 1014 001a 0300     		movs	r3, r0
 553:Drivers/STM32F0xx_HAL_Driver/Src/stm32f0xx_hal_flash.c **** }
 1015              		.loc 1 553 1
 1016 001c 1800     		movs	r0, r3
 1017 001e BD46     		mov	sp, r7
 1018              		@ sp needed
 1019 0020 80BD     		pop	{r7, pc}
 1020              	.L63:
 1021 0022 C046     		.align	2
 1022              	.L62:
 1023 0024 00200240 		.word	1073881088
 1024 0028 50C30000 		.word	50000
 1025              		.cfi_endproc
 1026              	.LFE49:
 1028              		.section	.text.HAL_FLASH_GetError,"ax",%progbits
 1029              		.align	1
 1030              		.global	HAL_FLASH_GetError
 1031              		.syntax unified
 1032              		.code	16
 1033              		.thumb_func
 1035              	HAL_FLASH_GetError:
 1036              	.LFB50:
 554:Drivers/STM32F0xx_HAL_Driver/Src/stm32f0xx_hal_flash.c **** 
 555:Drivers/STM32F0xx_HAL_Driver/Src/stm32f0xx_hal_flash.c **** /**
 556:Drivers/STM32F0xx_HAL_Driver/Src/stm32f0xx_hal_flash.c ****   * @}
 557:Drivers/STM32F0xx_HAL_Driver/Src/stm32f0xx_hal_flash.c ****   */  
 558:Drivers/STM32F0xx_HAL_Driver/Src/stm32f0xx_hal_flash.c **** 
 559:Drivers/STM32F0xx_HAL_Driver/Src/stm32f0xx_hal_flash.c **** /** @defgroup FLASH_Exported_Functions_Group3 Peripheral errors functions 
 560:Drivers/STM32F0xx_HAL_Driver/Src/stm32f0xx_hal_flash.c ****  *  @brief    Peripheral errors functions 
 561:Drivers/STM32F0xx_HAL_Driver/Src/stm32f0xx_hal_flash.c ****  *
 562:Drivers/STM32F0xx_HAL_Driver/Src/stm32f0xx_hal_flash.c **** @verbatim   
 563:Drivers/STM32F0xx_HAL_Driver/Src/stm32f0xx_hal_flash.c ****  ===============================================================================
 564:Drivers/STM32F0xx_HAL_Driver/Src/stm32f0xx_hal_flash.c ****                       ##### Peripheral Errors functions #####
 565:Drivers/STM32F0xx_HAL_Driver/Src/stm32f0xx_hal_flash.c ****  ===============================================================================  
 566:Drivers/STM32F0xx_HAL_Driver/Src/stm32f0xx_hal_flash.c ****     [..]
 567:Drivers/STM32F0xx_HAL_Driver/Src/stm32f0xx_hal_flash.c ****     This subsection permit to get in run-time errors of  the FLASH peripheral.
 568:Drivers/STM32F0xx_HAL_Driver/Src/stm32f0xx_hal_flash.c **** 
 569:Drivers/STM32F0xx_HAL_Driver/Src/stm32f0xx_hal_flash.c **** @endverbatim
 570:Drivers/STM32F0xx_HAL_Driver/Src/stm32f0xx_hal_flash.c ****   * @{
 571:Drivers/STM32F0xx_HAL_Driver/Src/stm32f0xx_hal_flash.c ****   */
 572:Drivers/STM32F0xx_HAL_Driver/Src/stm32f0xx_hal_flash.c **** 
 573:Drivers/STM32F0xx_HAL_Driver/Src/stm32f0xx_hal_flash.c **** /**
 574:Drivers/STM32F0xx_HAL_Driver/Src/stm32f0xx_hal_flash.c ****   * @brief  Get the specific FLASH error flag.
 575:Drivers/STM32F0xx_HAL_Driver/Src/stm32f0xx_hal_flash.c ****   * @retval FLASH_ErrorCode The returned value can be:
 576:Drivers/STM32F0xx_HAL_Driver/Src/stm32f0xx_hal_flash.c ****   *            @ref FLASH_Error_Codes
ARM GAS  C:\Users\mason\AppData\Local\Temp\cc7sRjNB.s 			page 29


 577:Drivers/STM32F0xx_HAL_Driver/Src/stm32f0xx_hal_flash.c ****   */
 578:Drivers/STM32F0xx_HAL_Driver/Src/stm32f0xx_hal_flash.c **** uint32_t HAL_FLASH_GetError(void)
 579:Drivers/STM32F0xx_HAL_Driver/Src/stm32f0xx_hal_flash.c **** {
 1037              		.loc 1 579 1
 1038              		.cfi_startproc
 1039              		@ args = 0, pretend = 0, frame = 0
 1040              		@ frame_needed = 1, uses_anonymous_args = 0
 1041 0000 80B5     		push	{r7, lr}
 1042              	.LCFI26:
 1043              		.cfi_def_cfa_offset 8
 1044              		.cfi_offset 7, -8
 1045              		.cfi_offset 14, -4
 1046 0002 00AF     		add	r7, sp, #0
 1047              	.LCFI27:
 1048              		.cfi_def_cfa_register 7
 580:Drivers/STM32F0xx_HAL_Driver/Src/stm32f0xx_hal_flash.c ****    return pFlash.ErrorCode;
 1049              		.loc 1 580 17
 1050 0004 024B     		ldr	r3, .L66
 1051 0006 DB69     		ldr	r3, [r3, #28]
 581:Drivers/STM32F0xx_HAL_Driver/Src/stm32f0xx_hal_flash.c **** }
 1052              		.loc 1 581 1
 1053 0008 1800     		movs	r0, r3
 1054 000a BD46     		mov	sp, r7
 1055              		@ sp needed
 1056 000c 80BD     		pop	{r7, pc}
 1057              	.L67:
 1058 000e C046     		.align	2
 1059              	.L66:
 1060 0010 00000000 		.word	pFlash
 1061              		.cfi_endproc
 1062              	.LFE50:
 1064              		.section	.text.FLASH_Program_HalfWord,"ax",%progbits
 1065              		.align	1
 1066              		.syntax unified
 1067              		.code	16
 1068              		.thumb_func
 1070              	FLASH_Program_HalfWord:
 1071              	.LFB51:
 582:Drivers/STM32F0xx_HAL_Driver/Src/stm32f0xx_hal_flash.c **** 
 583:Drivers/STM32F0xx_HAL_Driver/Src/stm32f0xx_hal_flash.c **** /**
 584:Drivers/STM32F0xx_HAL_Driver/Src/stm32f0xx_hal_flash.c ****   * @}
 585:Drivers/STM32F0xx_HAL_Driver/Src/stm32f0xx_hal_flash.c ****   */
 586:Drivers/STM32F0xx_HAL_Driver/Src/stm32f0xx_hal_flash.c **** 
 587:Drivers/STM32F0xx_HAL_Driver/Src/stm32f0xx_hal_flash.c **** /**
 588:Drivers/STM32F0xx_HAL_Driver/Src/stm32f0xx_hal_flash.c ****   * @}
 589:Drivers/STM32F0xx_HAL_Driver/Src/stm32f0xx_hal_flash.c ****   */
 590:Drivers/STM32F0xx_HAL_Driver/Src/stm32f0xx_hal_flash.c **** 
 591:Drivers/STM32F0xx_HAL_Driver/Src/stm32f0xx_hal_flash.c **** /** @addtogroup FLASH_Private_Functions
 592:Drivers/STM32F0xx_HAL_Driver/Src/stm32f0xx_hal_flash.c ****  * @{
 593:Drivers/STM32F0xx_HAL_Driver/Src/stm32f0xx_hal_flash.c ****  */
 594:Drivers/STM32F0xx_HAL_Driver/Src/stm32f0xx_hal_flash.c **** 
 595:Drivers/STM32F0xx_HAL_Driver/Src/stm32f0xx_hal_flash.c **** /**
 596:Drivers/STM32F0xx_HAL_Driver/Src/stm32f0xx_hal_flash.c ****   * @brief  Program a half-word (16-bit) at a specified address.
 597:Drivers/STM32F0xx_HAL_Driver/Src/stm32f0xx_hal_flash.c ****   * @param  Address specify the address to be programmed.
 598:Drivers/STM32F0xx_HAL_Driver/Src/stm32f0xx_hal_flash.c ****   * @param  Data    specify the data to be programmed.
 599:Drivers/STM32F0xx_HAL_Driver/Src/stm32f0xx_hal_flash.c ****   * @retval None
 600:Drivers/STM32F0xx_HAL_Driver/Src/stm32f0xx_hal_flash.c ****   */
ARM GAS  C:\Users\mason\AppData\Local\Temp\cc7sRjNB.s 			page 30


 601:Drivers/STM32F0xx_HAL_Driver/Src/stm32f0xx_hal_flash.c **** static void FLASH_Program_HalfWord(uint32_t Address, uint16_t Data)
 602:Drivers/STM32F0xx_HAL_Driver/Src/stm32f0xx_hal_flash.c **** {
 1072              		.loc 1 602 1
 1073              		.cfi_startproc
 1074              		@ args = 0, pretend = 0, frame = 8
 1075              		@ frame_needed = 1, uses_anonymous_args = 0
 1076 0000 80B5     		push	{r7, lr}
 1077              	.LCFI28:
 1078              		.cfi_def_cfa_offset 8
 1079              		.cfi_offset 7, -8
 1080              		.cfi_offset 14, -4
 1081 0002 82B0     		sub	sp, sp, #8
 1082              	.LCFI29:
 1083              		.cfi_def_cfa_offset 16
 1084 0004 00AF     		add	r7, sp, #0
 1085              	.LCFI30:
 1086              		.cfi_def_cfa_register 7
 1087 0006 7860     		str	r0, [r7, #4]
 1088 0008 0A00     		movs	r2, r1
 1089 000a BB1C     		adds	r3, r7, #2
 1090 000c 1A80     		strh	r2, [r3]
 603:Drivers/STM32F0xx_HAL_Driver/Src/stm32f0xx_hal_flash.c ****   /* Clean the error context */
 604:Drivers/STM32F0xx_HAL_Driver/Src/stm32f0xx_hal_flash.c ****   pFlash.ErrorCode = HAL_FLASH_ERROR_NONE;
 1091              		.loc 1 604 20
 1092 000e 084B     		ldr	r3, .L69
 1093 0010 0022     		movs	r2, #0
 1094 0012 DA61     		str	r2, [r3, #28]
 605:Drivers/STM32F0xx_HAL_Driver/Src/stm32f0xx_hal_flash.c ****   
 606:Drivers/STM32F0xx_HAL_Driver/Src/stm32f0xx_hal_flash.c ****     /* Proceed to program the new data */
 607:Drivers/STM32F0xx_HAL_Driver/Src/stm32f0xx_hal_flash.c ****     SET_BIT(FLASH->CR, FLASH_CR_PG);
 1095              		.loc 1 607 5
 1096 0014 074B     		ldr	r3, .L69+4
 1097 0016 1A69     		ldr	r2, [r3, #16]
 1098 0018 064B     		ldr	r3, .L69+4
 1099 001a 0121     		movs	r1, #1
 1100 001c 0A43     		orrs	r2, r1
 1101 001e 1A61     		str	r2, [r3, #16]
 608:Drivers/STM32F0xx_HAL_Driver/Src/stm32f0xx_hal_flash.c **** 
 609:Drivers/STM32F0xx_HAL_Driver/Src/stm32f0xx_hal_flash.c ****   /* Write data in the address */
 610:Drivers/STM32F0xx_HAL_Driver/Src/stm32f0xx_hal_flash.c ****   *(__IO uint16_t*)Address = Data;
 1102              		.loc 1 610 4
 1103 0020 7B68     		ldr	r3, [r7, #4]
 1104              		.loc 1 610 28
 1105 0022 BA1C     		adds	r2, r7, #2
 1106 0024 1288     		ldrh	r2, [r2]
 1107 0026 1A80     		strh	r2, [r3]
 611:Drivers/STM32F0xx_HAL_Driver/Src/stm32f0xx_hal_flash.c **** }
 1108              		.loc 1 611 1
 1109 0028 C046     		nop
 1110 002a BD46     		mov	sp, r7
 1111 002c 02B0     		add	sp, sp, #8
 1112              		@ sp needed
 1113 002e 80BD     		pop	{r7, pc}
 1114              	.L70:
 1115              		.align	2
 1116              	.L69:
 1117 0030 00000000 		.word	pFlash
ARM GAS  C:\Users\mason\AppData\Local\Temp\cc7sRjNB.s 			page 31


 1118 0034 00200240 		.word	1073881088
 1119              		.cfi_endproc
 1120              	.LFE51:
 1122              		.section	.text.FLASH_WaitForLastOperation,"ax",%progbits
 1123              		.align	1
 1124              		.global	FLASH_WaitForLastOperation
 1125              		.syntax unified
 1126              		.code	16
 1127              		.thumb_func
 1129              	FLASH_WaitForLastOperation:
 1130              	.LFB52:
 612:Drivers/STM32F0xx_HAL_Driver/Src/stm32f0xx_hal_flash.c **** 
 613:Drivers/STM32F0xx_HAL_Driver/Src/stm32f0xx_hal_flash.c **** /**
 614:Drivers/STM32F0xx_HAL_Driver/Src/stm32f0xx_hal_flash.c ****   * @brief  Wait for a FLASH operation to complete.
 615:Drivers/STM32F0xx_HAL_Driver/Src/stm32f0xx_hal_flash.c ****   * @param  Timeout  maximum flash operation timeout
 616:Drivers/STM32F0xx_HAL_Driver/Src/stm32f0xx_hal_flash.c ****   * @retval HAL Status
 617:Drivers/STM32F0xx_HAL_Driver/Src/stm32f0xx_hal_flash.c ****   */
 618:Drivers/STM32F0xx_HAL_Driver/Src/stm32f0xx_hal_flash.c **** HAL_StatusTypeDef FLASH_WaitForLastOperation(uint32_t Timeout)
 619:Drivers/STM32F0xx_HAL_Driver/Src/stm32f0xx_hal_flash.c **** {
 1131              		.loc 1 619 1
 1132              		.cfi_startproc
 1133              		@ args = 0, pretend = 0, frame = 16
 1134              		@ frame_needed = 1, uses_anonymous_args = 0
 1135 0000 80B5     		push	{r7, lr}
 1136              	.LCFI31:
 1137              		.cfi_def_cfa_offset 8
 1138              		.cfi_offset 7, -8
 1139              		.cfi_offset 14, -4
 1140 0002 84B0     		sub	sp, sp, #16
 1141              	.LCFI32:
 1142              		.cfi_def_cfa_offset 24
 1143 0004 00AF     		add	r7, sp, #0
 1144              	.LCFI33:
 1145              		.cfi_def_cfa_register 7
 1146 0006 7860     		str	r0, [r7, #4]
 620:Drivers/STM32F0xx_HAL_Driver/Src/stm32f0xx_hal_flash.c ****   /* Wait for the FLASH operation to complete by polling on BUSY flag to be reset.
 621:Drivers/STM32F0xx_HAL_Driver/Src/stm32f0xx_hal_flash.c ****      Even if the FLASH operation fails, the BUSY flag will be reset and an error
 622:Drivers/STM32F0xx_HAL_Driver/Src/stm32f0xx_hal_flash.c ****      flag will be set */
 623:Drivers/STM32F0xx_HAL_Driver/Src/stm32f0xx_hal_flash.c ****      
 624:Drivers/STM32F0xx_HAL_Driver/Src/stm32f0xx_hal_flash.c ****   uint32_t tickstart = HAL_GetTick();
 1147              		.loc 1 624 24
 1148 0008 FFF7FEFF 		bl	HAL_GetTick
 1149 000c 0300     		movs	r3, r0
 1150 000e FB60     		str	r3, [r7, #12]
 625:Drivers/STM32F0xx_HAL_Driver/Src/stm32f0xx_hal_flash.c ****      
 626:Drivers/STM32F0xx_HAL_Driver/Src/stm32f0xx_hal_flash.c ****   while(__HAL_FLASH_GET_FLAG(FLASH_FLAG_BSY)) 
 1151              		.loc 1 626 8
 1152 0010 0FE0     		b	.L72
 1153              	.L75:
 627:Drivers/STM32F0xx_HAL_Driver/Src/stm32f0xx_hal_flash.c ****   { 
 628:Drivers/STM32F0xx_HAL_Driver/Src/stm32f0xx_hal_flash.c ****     if (Timeout != HAL_MAX_DELAY)
 1154              		.loc 1 628 8
 1155 0012 7B68     		ldr	r3, [r7, #4]
 1156 0014 0133     		adds	r3, r3, #1
 1157 0016 0CD0     		beq	.L72
 629:Drivers/STM32F0xx_HAL_Driver/Src/stm32f0xx_hal_flash.c ****     {
 630:Drivers/STM32F0xx_HAL_Driver/Src/stm32f0xx_hal_flash.c ****       if((Timeout == 0U) || ((HAL_GetTick()-tickstart) > Timeout))
ARM GAS  C:\Users\mason\AppData\Local\Temp\cc7sRjNB.s 			page 32


 1158              		.loc 1 630 9
 1159 0018 7B68     		ldr	r3, [r7, #4]
 1160 001a 002B     		cmp	r3, #0
 1161 001c 07D0     		beq	.L73
 1162              		.loc 1 630 31 discriminator 1
 1163 001e FFF7FEFF 		bl	HAL_GetTick
 1164 0022 0200     		movs	r2, r0
 1165              		.loc 1 630 44 discriminator 1
 1166 0024 FB68     		ldr	r3, [r7, #12]
 1167 0026 D31A     		subs	r3, r2, r3
 1168              		.loc 1 630 26 discriminator 1
 1169 0028 7A68     		ldr	r2, [r7, #4]
 1170 002a 9A42     		cmp	r2, r3
 1171 002c 01D2     		bcs	.L72
 1172              	.L73:
 631:Drivers/STM32F0xx_HAL_Driver/Src/stm32f0xx_hal_flash.c ****       {
 632:Drivers/STM32F0xx_HAL_Driver/Src/stm32f0xx_hal_flash.c ****         return HAL_TIMEOUT;
 1173              		.loc 1 632 16
 1174 002e 0323     		movs	r3, #3
 1175 0030 1FE0     		b	.L74
 1176              	.L72:
 626:Drivers/STM32F0xx_HAL_Driver/Src/stm32f0xx_hal_flash.c ****   { 
 1177              		.loc 1 626 9
 1178 0032 124B     		ldr	r3, .L79
 1179 0034 DB68     		ldr	r3, [r3, #12]
 1180 0036 0122     		movs	r2, #1
 1181 0038 1340     		ands	r3, r2
 626:Drivers/STM32F0xx_HAL_Driver/Src/stm32f0xx_hal_flash.c ****   { 
 1182              		.loc 1 626 8
 1183 003a 012B     		cmp	r3, #1
 1184 003c E9D0     		beq	.L75
 633:Drivers/STM32F0xx_HAL_Driver/Src/stm32f0xx_hal_flash.c ****       }
 634:Drivers/STM32F0xx_HAL_Driver/Src/stm32f0xx_hal_flash.c ****     }
 635:Drivers/STM32F0xx_HAL_Driver/Src/stm32f0xx_hal_flash.c ****   }
 636:Drivers/STM32F0xx_HAL_Driver/Src/stm32f0xx_hal_flash.c ****   
 637:Drivers/STM32F0xx_HAL_Driver/Src/stm32f0xx_hal_flash.c ****   /* Check FLASH End of Operation flag  */
 638:Drivers/STM32F0xx_HAL_Driver/Src/stm32f0xx_hal_flash.c ****   if (__HAL_FLASH_GET_FLAG(FLASH_FLAG_EOP))
 1185              		.loc 1 638 7
 1186 003e 0F4B     		ldr	r3, .L79
 1187 0040 DB68     		ldr	r3, [r3, #12]
 1188 0042 2022     		movs	r2, #32
 1189 0044 1340     		ands	r3, r2
 1190              		.loc 1 638 6
 1191 0046 202B     		cmp	r3, #32
 1192 0048 02D1     		bne	.L76
 639:Drivers/STM32F0xx_HAL_Driver/Src/stm32f0xx_hal_flash.c ****   {
 640:Drivers/STM32F0xx_HAL_Driver/Src/stm32f0xx_hal_flash.c ****     /* Clear FLASH End of Operation pending bit */
 641:Drivers/STM32F0xx_HAL_Driver/Src/stm32f0xx_hal_flash.c ****     __HAL_FLASH_CLEAR_FLAG(FLASH_FLAG_EOP);
 1193              		.loc 1 641 5
 1194 004a 0C4B     		ldr	r3, .L79
 1195 004c 2022     		movs	r2, #32
 1196 004e DA60     		str	r2, [r3, #12]
 1197              	.L76:
 642:Drivers/STM32F0xx_HAL_Driver/Src/stm32f0xx_hal_flash.c ****   }
 643:Drivers/STM32F0xx_HAL_Driver/Src/stm32f0xx_hal_flash.c ****   
 644:Drivers/STM32F0xx_HAL_Driver/Src/stm32f0xx_hal_flash.c ****   if(__HAL_FLASH_GET_FLAG(FLASH_FLAG_WRPERR)  || 
 1198              		.loc 1 644 6
ARM GAS  C:\Users\mason\AppData\Local\Temp\cc7sRjNB.s 			page 33


 1199 0050 0A4B     		ldr	r3, .L79
 1200 0052 DB68     		ldr	r3, [r3, #12]
 1201 0054 1022     		movs	r2, #16
 1202 0056 1340     		ands	r3, r2
 1203              		.loc 1 644 5
 1204 0058 102B     		cmp	r3, #16
 1205 005a 05D0     		beq	.L77
 645:Drivers/STM32F0xx_HAL_Driver/Src/stm32f0xx_hal_flash.c ****      __HAL_FLASH_GET_FLAG(FLASH_FLAG_PGERR))
 1206              		.loc 1 645 6 discriminator 1
 1207 005c 074B     		ldr	r3, .L79
 1208 005e DB68     		ldr	r3, [r3, #12]
 1209 0060 0422     		movs	r2, #4
 1210 0062 1340     		ands	r3, r2
 644:Drivers/STM32F0xx_HAL_Driver/Src/stm32f0xx_hal_flash.c ****      __HAL_FLASH_GET_FLAG(FLASH_FLAG_PGERR))
 1211              		.loc 1 644 47 discriminator 1
 1212 0064 042B     		cmp	r3, #4
 1213 0066 03D1     		bne	.L78
 1214              	.L77:
 646:Drivers/STM32F0xx_HAL_Driver/Src/stm32f0xx_hal_flash.c ****   {
 647:Drivers/STM32F0xx_HAL_Driver/Src/stm32f0xx_hal_flash.c ****     /*Save the error code*/
 648:Drivers/STM32F0xx_HAL_Driver/Src/stm32f0xx_hal_flash.c ****     FLASH_SetErrorCode();
 1215              		.loc 1 648 5
 1216 0068 FFF7FEFF 		bl	FLASH_SetErrorCode
 649:Drivers/STM32F0xx_HAL_Driver/Src/stm32f0xx_hal_flash.c ****     return HAL_ERROR;
 1217              		.loc 1 649 12
 1218 006c 0123     		movs	r3, #1
 1219 006e 00E0     		b	.L74
 1220              	.L78:
 650:Drivers/STM32F0xx_HAL_Driver/Src/stm32f0xx_hal_flash.c ****   }
 651:Drivers/STM32F0xx_HAL_Driver/Src/stm32f0xx_hal_flash.c **** 
 652:Drivers/STM32F0xx_HAL_Driver/Src/stm32f0xx_hal_flash.c ****   /* There is no error flag set */
 653:Drivers/STM32F0xx_HAL_Driver/Src/stm32f0xx_hal_flash.c ****   return HAL_OK;
 1221              		.loc 1 653 10
 1222 0070 0023     		movs	r3, #0
 1223              	.L74:
 654:Drivers/STM32F0xx_HAL_Driver/Src/stm32f0xx_hal_flash.c **** }
 1224              		.loc 1 654 1
 1225 0072 1800     		movs	r0, r3
 1226 0074 BD46     		mov	sp, r7
 1227 0076 04B0     		add	sp, sp, #16
 1228              		@ sp needed
 1229 0078 80BD     		pop	{r7, pc}
 1230              	.L80:
 1231 007a C046     		.align	2
 1232              	.L79:
 1233 007c 00200240 		.word	1073881088
 1234              		.cfi_endproc
 1235              	.LFE52:
 1237              		.section	.text.FLASH_SetErrorCode,"ax",%progbits
 1238              		.align	1
 1239              		.syntax unified
 1240              		.code	16
 1241              		.thumb_func
 1243              	FLASH_SetErrorCode:
 1244              	.LFB53:
 655:Drivers/STM32F0xx_HAL_Driver/Src/stm32f0xx_hal_flash.c **** 
 656:Drivers/STM32F0xx_HAL_Driver/Src/stm32f0xx_hal_flash.c **** 
ARM GAS  C:\Users\mason\AppData\Local\Temp\cc7sRjNB.s 			page 34


 657:Drivers/STM32F0xx_HAL_Driver/Src/stm32f0xx_hal_flash.c **** /**
 658:Drivers/STM32F0xx_HAL_Driver/Src/stm32f0xx_hal_flash.c ****   * @brief  Set the specific FLASH error flag.
 659:Drivers/STM32F0xx_HAL_Driver/Src/stm32f0xx_hal_flash.c ****   * @retval None
 660:Drivers/STM32F0xx_HAL_Driver/Src/stm32f0xx_hal_flash.c ****   */
 661:Drivers/STM32F0xx_HAL_Driver/Src/stm32f0xx_hal_flash.c **** static void FLASH_SetErrorCode(void)
 662:Drivers/STM32F0xx_HAL_Driver/Src/stm32f0xx_hal_flash.c **** {
 1245              		.loc 1 662 1
 1246              		.cfi_startproc
 1247              		@ args = 0, pretend = 0, frame = 8
 1248              		@ frame_needed = 1, uses_anonymous_args = 0
 1249 0000 80B5     		push	{r7, lr}
 1250              	.LCFI34:
 1251              		.cfi_def_cfa_offset 8
 1252              		.cfi_offset 7, -8
 1253              		.cfi_offset 14, -4
 1254 0002 82B0     		sub	sp, sp, #8
 1255              	.LCFI35:
 1256              		.cfi_def_cfa_offset 16
 1257 0004 00AF     		add	r7, sp, #0
 1258              	.LCFI36:
 1259              		.cfi_def_cfa_register 7
 663:Drivers/STM32F0xx_HAL_Driver/Src/stm32f0xx_hal_flash.c ****   uint32_t flags = 0U;
 1260              		.loc 1 663 12
 1261 0006 0023     		movs	r3, #0
 1262 0008 7B60     		str	r3, [r7, #4]
 664:Drivers/STM32F0xx_HAL_Driver/Src/stm32f0xx_hal_flash.c ****   
 665:Drivers/STM32F0xx_HAL_Driver/Src/stm32f0xx_hal_flash.c ****   if(__HAL_FLASH_GET_FLAG(FLASH_FLAG_WRPERR))
 1263              		.loc 1 665 6
 1264 000a 134B     		ldr	r3, .L84
 1265 000c DB68     		ldr	r3, [r3, #12]
 1266 000e 1022     		movs	r2, #16
 1267 0010 1340     		ands	r3, r2
 1268              		.loc 1 665 5
 1269 0012 102B     		cmp	r3, #16
 1270 0014 09D1     		bne	.L82
 666:Drivers/STM32F0xx_HAL_Driver/Src/stm32f0xx_hal_flash.c ****   {
 667:Drivers/STM32F0xx_HAL_Driver/Src/stm32f0xx_hal_flash.c ****     pFlash.ErrorCode |= HAL_FLASH_ERROR_WRP;
 1271              		.loc 1 667 22
 1272 0016 114B     		ldr	r3, .L84+4
 1273 0018 DB69     		ldr	r3, [r3, #28]
 1274 001a 0222     		movs	r2, #2
 1275 001c 1A43     		orrs	r2, r3
 1276 001e 0F4B     		ldr	r3, .L84+4
 1277 0020 DA61     		str	r2, [r3, #28]
 668:Drivers/STM32F0xx_HAL_Driver/Src/stm32f0xx_hal_flash.c ****     flags |= FLASH_FLAG_WRPERR;
 1278              		.loc 1 668 11
 1279 0022 7B68     		ldr	r3, [r7, #4]
 1280 0024 1022     		movs	r2, #16
 1281 0026 1343     		orrs	r3, r2
 1282 0028 7B60     		str	r3, [r7, #4]
 1283              	.L82:
 669:Drivers/STM32F0xx_HAL_Driver/Src/stm32f0xx_hal_flash.c ****   }
 670:Drivers/STM32F0xx_HAL_Driver/Src/stm32f0xx_hal_flash.c ****   if(__HAL_FLASH_GET_FLAG(FLASH_FLAG_PGERR))
 1284              		.loc 1 670 6
 1285 002a 0B4B     		ldr	r3, .L84
 1286 002c DB68     		ldr	r3, [r3, #12]
 1287 002e 0422     		movs	r2, #4
ARM GAS  C:\Users\mason\AppData\Local\Temp\cc7sRjNB.s 			page 35


 1288 0030 1340     		ands	r3, r2
 1289              		.loc 1 670 5
 1290 0032 042B     		cmp	r3, #4
 1291 0034 09D1     		bne	.L83
 671:Drivers/STM32F0xx_HAL_Driver/Src/stm32f0xx_hal_flash.c ****   {
 672:Drivers/STM32F0xx_HAL_Driver/Src/stm32f0xx_hal_flash.c ****     pFlash.ErrorCode |= HAL_FLASH_ERROR_PROG;
 1292              		.loc 1 672 22
 1293 0036 094B     		ldr	r3, .L84+4
 1294 0038 DB69     		ldr	r3, [r3, #28]
 1295 003a 0122     		movs	r2, #1
 1296 003c 1A43     		orrs	r2, r3
 1297 003e 074B     		ldr	r3, .L84+4
 1298 0040 DA61     		str	r2, [r3, #28]
 673:Drivers/STM32F0xx_HAL_Driver/Src/stm32f0xx_hal_flash.c ****     flags |= FLASH_FLAG_PGERR;
 1299              		.loc 1 673 11
 1300 0042 7B68     		ldr	r3, [r7, #4]
 1301 0044 0422     		movs	r2, #4
 1302 0046 1343     		orrs	r3, r2
 1303 0048 7B60     		str	r3, [r7, #4]
 1304              	.L83:
 674:Drivers/STM32F0xx_HAL_Driver/Src/stm32f0xx_hal_flash.c ****   }
 675:Drivers/STM32F0xx_HAL_Driver/Src/stm32f0xx_hal_flash.c ****   /* Clear FLASH error pending bits */
 676:Drivers/STM32F0xx_HAL_Driver/Src/stm32f0xx_hal_flash.c ****   __HAL_FLASH_CLEAR_FLAG(flags);
 1305              		.loc 1 676 3
 1306 004a 034B     		ldr	r3, .L84
 1307 004c 7A68     		ldr	r2, [r7, #4]
 1308 004e DA60     		str	r2, [r3, #12]
 677:Drivers/STM32F0xx_HAL_Driver/Src/stm32f0xx_hal_flash.c **** }  
 1309              		.loc 1 677 1
 1310 0050 C046     		nop
 1311 0052 BD46     		mov	sp, r7
 1312 0054 02B0     		add	sp, sp, #8
 1313              		@ sp needed
 1314 0056 80BD     		pop	{r7, pc}
 1315              	.L85:
 1316              		.align	2
 1317              	.L84:
 1318 0058 00200240 		.word	1073881088
 1319 005c 00000000 		.word	pFlash
 1320              		.cfi_endproc
 1321              	.LFE53:
 1323              		.text
 1324              	.Letext0:
 1325              		.file 2 "c:\\program files (x86)\\openocdarmgccbuildtools\\gcc-arm-none-eabi-10.3-2021.10-win32\\a
 1326              		.file 3 "c:\\program files (x86)\\openocdarmgccbuildtools\\gcc-arm-none-eabi-10.3-2021.10-win32\\a
 1327              		.file 4 "Drivers/CMSIS/Device/ST/STM32F0xx/Include/stm32f031x6.h"
 1328              		.file 5 "Drivers/CMSIS/Device/ST/STM32F0xx/Include/stm32f0xx.h"
 1329              		.file 6 "Drivers/STM32F0xx_HAL_Driver/Inc/stm32f0xx_hal_def.h"
 1330              		.file 7 "Drivers/STM32F0xx_HAL_Driver/Inc/stm32f0xx_hal_flash.h"
ARM GAS  C:\Users\mason\AppData\Local\Temp\cc7sRjNB.s 			page 36

