ARM GAS  C:\Users\mason\AppData\Local\Temp\ccKXoFR7.s 			page 1


   1              		.cpu cortex-m0
   2              		.arch armv6s-m
   3              		.fpu softvfp
   4              		.eabi_attribute 20, 1
   5              		.eabi_attribute 21, 1
   6              		.eabi_attribute 23, 3
   7              		.eabi_attribute 24, 1
   8              		.eabi_attribute 25, 1
   9              		.eabi_attribute 26, 1
  10              		.eabi_attribute 30, 6
  11              		.eabi_attribute 34, 0
  12              		.eabi_attribute 18, 4
  13              		.file	"stm32f0xx_hal_dma.c"
  14              		.text
  15              	.Ltext0:
  16              		.cfi_sections	.debug_frame
  17              		.section	.text.HAL_DMA_Init,"ax",%progbits
  18              		.align	1
  19              		.global	HAL_DMA_Init
  20              		.syntax unified
  21              		.code	16
  22              		.thumb_func
  24              	HAL_DMA_Init:
  25              	.LFB40:
  26              		.file 1 "Drivers/STM32F0xx_HAL_Driver/Src/stm32f0xx_hal_dma.c"
   1:Drivers/STM32F0xx_HAL_Driver/Src/stm32f0xx_hal_dma.c **** /**
   2:Drivers/STM32F0xx_HAL_Driver/Src/stm32f0xx_hal_dma.c ****   ******************************************************************************
   3:Drivers/STM32F0xx_HAL_Driver/Src/stm32f0xx_hal_dma.c ****   * @file    stm32f0xx_hal_dma.c
   4:Drivers/STM32F0xx_HAL_Driver/Src/stm32f0xx_hal_dma.c ****   * @author  MCD Application Team
   5:Drivers/STM32F0xx_HAL_Driver/Src/stm32f0xx_hal_dma.c ****   * @brief   DMA HAL module driver.
   6:Drivers/STM32F0xx_HAL_Driver/Src/stm32f0xx_hal_dma.c ****   *
   7:Drivers/STM32F0xx_HAL_Driver/Src/stm32f0xx_hal_dma.c ****   *         This file provides firmware functions to manage the following
   8:Drivers/STM32F0xx_HAL_Driver/Src/stm32f0xx_hal_dma.c ****   *         functionalities of the Direct Memory Access (DMA) peripheral:
   9:Drivers/STM32F0xx_HAL_Driver/Src/stm32f0xx_hal_dma.c ****   *           + Initialization and de-initialization functions
  10:Drivers/STM32F0xx_HAL_Driver/Src/stm32f0xx_hal_dma.c ****   *           + IO operation functions
  11:Drivers/STM32F0xx_HAL_Driver/Src/stm32f0xx_hal_dma.c ****   *           + Peripheral State and errors functions
  12:Drivers/STM32F0xx_HAL_Driver/Src/stm32f0xx_hal_dma.c ****   @verbatim
  13:Drivers/STM32F0xx_HAL_Driver/Src/stm32f0xx_hal_dma.c ****   ==============================================================================
  14:Drivers/STM32F0xx_HAL_Driver/Src/stm32f0xx_hal_dma.c ****                         ##### How to use this driver #####
  15:Drivers/STM32F0xx_HAL_Driver/Src/stm32f0xx_hal_dma.c ****   ==============================================================================
  16:Drivers/STM32F0xx_HAL_Driver/Src/stm32f0xx_hal_dma.c ****   [..]
  17:Drivers/STM32F0xx_HAL_Driver/Src/stm32f0xx_hal_dma.c ****    (#) Enable and configure the peripheral to be connected to the DMA Channel
  18:Drivers/STM32F0xx_HAL_Driver/Src/stm32f0xx_hal_dma.c ****        (except for internal SRAM / FLASH memories: no initialization is
  19:Drivers/STM32F0xx_HAL_Driver/Src/stm32f0xx_hal_dma.c ****        necessary). Please refer to Reference manual for connection between peripherals
  20:Drivers/STM32F0xx_HAL_Driver/Src/stm32f0xx_hal_dma.c ****        and DMA requests .
  21:Drivers/STM32F0xx_HAL_Driver/Src/stm32f0xx_hal_dma.c **** 
  22:Drivers/STM32F0xx_HAL_Driver/Src/stm32f0xx_hal_dma.c ****    (#) For a given Channel, program the required configuration through the following parameters:
  23:Drivers/STM32F0xx_HAL_Driver/Src/stm32f0xx_hal_dma.c ****        Transfer Direction, Source and Destination data formats,
  24:Drivers/STM32F0xx_HAL_Driver/Src/stm32f0xx_hal_dma.c ****        Circular or Normal mode, Channel Priority level, Source and Destination Increment mode,
  25:Drivers/STM32F0xx_HAL_Driver/Src/stm32f0xx_hal_dma.c ****        using HAL_DMA_Init() function.
  26:Drivers/STM32F0xx_HAL_Driver/Src/stm32f0xx_hal_dma.c **** 
  27:Drivers/STM32F0xx_HAL_Driver/Src/stm32f0xx_hal_dma.c ****    (#) Use HAL_DMA_GetState() function to return the DMA state and HAL_DMA_GetError() in case of er
  28:Drivers/STM32F0xx_HAL_Driver/Src/stm32f0xx_hal_dma.c ****        detection.
  29:Drivers/STM32F0xx_HAL_Driver/Src/stm32f0xx_hal_dma.c **** 
  30:Drivers/STM32F0xx_HAL_Driver/Src/stm32f0xx_hal_dma.c ****    (#) Use HAL_DMA_Abort() function to abort the current transfer
  31:Drivers/STM32F0xx_HAL_Driver/Src/stm32f0xx_hal_dma.c **** 
  32:Drivers/STM32F0xx_HAL_Driver/Src/stm32f0xx_hal_dma.c ****      -@-   In Memory-to-Memory transfer mode, Circular mode is not allowed.
ARM GAS  C:\Users\mason\AppData\Local\Temp\ccKXoFR7.s 			page 2


  33:Drivers/STM32F0xx_HAL_Driver/Src/stm32f0xx_hal_dma.c ****      *** Polling mode IO operation ***
  34:Drivers/STM32F0xx_HAL_Driver/Src/stm32f0xx_hal_dma.c ****      =================================
  35:Drivers/STM32F0xx_HAL_Driver/Src/stm32f0xx_hal_dma.c ****     [..]
  36:Drivers/STM32F0xx_HAL_Driver/Src/stm32f0xx_hal_dma.c ****       (+) Use HAL_DMA_Start() to start DMA transfer after the configuration of Source
  37:Drivers/STM32F0xx_HAL_Driver/Src/stm32f0xx_hal_dma.c ****           address and destination address and the Length of data to be transferred
  38:Drivers/STM32F0xx_HAL_Driver/Src/stm32f0xx_hal_dma.c ****       (+) Use HAL_DMA_PollForTransfer() to poll for the end of current transfer, in this
  39:Drivers/STM32F0xx_HAL_Driver/Src/stm32f0xx_hal_dma.c ****           case a fixed Timeout can be configured by User depending from his application.
  40:Drivers/STM32F0xx_HAL_Driver/Src/stm32f0xx_hal_dma.c **** 
  41:Drivers/STM32F0xx_HAL_Driver/Src/stm32f0xx_hal_dma.c ****      *** Interrupt mode IO operation ***
  42:Drivers/STM32F0xx_HAL_Driver/Src/stm32f0xx_hal_dma.c ****      ===================================
  43:Drivers/STM32F0xx_HAL_Driver/Src/stm32f0xx_hal_dma.c ****     [..]
  44:Drivers/STM32F0xx_HAL_Driver/Src/stm32f0xx_hal_dma.c ****       (+) Configure the DMA interrupt priority using HAL_NVIC_SetPriority()
  45:Drivers/STM32F0xx_HAL_Driver/Src/stm32f0xx_hal_dma.c ****       (+) Enable the DMA IRQ handler using HAL_NVIC_EnableIRQ()
  46:Drivers/STM32F0xx_HAL_Driver/Src/stm32f0xx_hal_dma.c ****       (+) Use HAL_DMA_Start_IT() to start DMA transfer after the configuration of
  47:Drivers/STM32F0xx_HAL_Driver/Src/stm32f0xx_hal_dma.c ****           Source address and destination address and the Length of data to be transferred.
  48:Drivers/STM32F0xx_HAL_Driver/Src/stm32f0xx_hal_dma.c ****           In this case the DMA interrupt is configured
  49:Drivers/STM32F0xx_HAL_Driver/Src/stm32f0xx_hal_dma.c ****       (+) Use HAL_DMA_Channel_IRQHandler() called under DMA_IRQHandler() Interrupt subroutine
  50:Drivers/STM32F0xx_HAL_Driver/Src/stm32f0xx_hal_dma.c ****       (+) At the end of data transfer HAL_DMA_IRQHandler() function is executed and user can
  51:Drivers/STM32F0xx_HAL_Driver/Src/stm32f0xx_hal_dma.c ****           add his own function by customization of function pointer XferCpltCallback and
  52:Drivers/STM32F0xx_HAL_Driver/Src/stm32f0xx_hal_dma.c ****           XferErrorCallback (i.e a member of DMA handle structure).
  53:Drivers/STM32F0xx_HAL_Driver/Src/stm32f0xx_hal_dma.c **** 
  54:Drivers/STM32F0xx_HAL_Driver/Src/stm32f0xx_hal_dma.c ****      *** DMA HAL driver macros list ***
  55:Drivers/STM32F0xx_HAL_Driver/Src/stm32f0xx_hal_dma.c ****      =============================================
  56:Drivers/STM32F0xx_HAL_Driver/Src/stm32f0xx_hal_dma.c ****      [..]
  57:Drivers/STM32F0xx_HAL_Driver/Src/stm32f0xx_hal_dma.c ****        Below the list of most used macros in DMA HAL driver.
  58:Drivers/STM32F0xx_HAL_Driver/Src/stm32f0xx_hal_dma.c **** 
  59:Drivers/STM32F0xx_HAL_Driver/Src/stm32f0xx_hal_dma.c ****      [..]
  60:Drivers/STM32F0xx_HAL_Driver/Src/stm32f0xx_hal_dma.c ****       (@) You can refer to the DMA HAL driver header file for more useful macros
  61:Drivers/STM32F0xx_HAL_Driver/Src/stm32f0xx_hal_dma.c **** 
  62:Drivers/STM32F0xx_HAL_Driver/Src/stm32f0xx_hal_dma.c ****   @endverbatim
  63:Drivers/STM32F0xx_HAL_Driver/Src/stm32f0xx_hal_dma.c ****   ******************************************************************************
  64:Drivers/STM32F0xx_HAL_Driver/Src/stm32f0xx_hal_dma.c ****   * @attention
  65:Drivers/STM32F0xx_HAL_Driver/Src/stm32f0xx_hal_dma.c ****   *
  66:Drivers/STM32F0xx_HAL_Driver/Src/stm32f0xx_hal_dma.c ****   * Copyright (c) 2016 STMicroelectronics.
  67:Drivers/STM32F0xx_HAL_Driver/Src/stm32f0xx_hal_dma.c ****   * All rights reserved.
  68:Drivers/STM32F0xx_HAL_Driver/Src/stm32f0xx_hal_dma.c ****   *
  69:Drivers/STM32F0xx_HAL_Driver/Src/stm32f0xx_hal_dma.c ****   * This software is licensed under terms that can be found in the LICENSE file in
  70:Drivers/STM32F0xx_HAL_Driver/Src/stm32f0xx_hal_dma.c ****   * the root directory of this software component.
  71:Drivers/STM32F0xx_HAL_Driver/Src/stm32f0xx_hal_dma.c ****   * If no LICENSE file comes with this software, it is provided AS-IS.
  72:Drivers/STM32F0xx_HAL_Driver/Src/stm32f0xx_hal_dma.c ****   *
  73:Drivers/STM32F0xx_HAL_Driver/Src/stm32f0xx_hal_dma.c ****   ******************************************************************************
  74:Drivers/STM32F0xx_HAL_Driver/Src/stm32f0xx_hal_dma.c ****   */
  75:Drivers/STM32F0xx_HAL_Driver/Src/stm32f0xx_hal_dma.c **** 
  76:Drivers/STM32F0xx_HAL_Driver/Src/stm32f0xx_hal_dma.c **** /* Includes ------------------------------------------------------------------*/
  77:Drivers/STM32F0xx_HAL_Driver/Src/stm32f0xx_hal_dma.c **** #include "stm32f0xx_hal.h"
  78:Drivers/STM32F0xx_HAL_Driver/Src/stm32f0xx_hal_dma.c **** 
  79:Drivers/STM32F0xx_HAL_Driver/Src/stm32f0xx_hal_dma.c **** /** @addtogroup STM32F0xx_HAL_Driver
  80:Drivers/STM32F0xx_HAL_Driver/Src/stm32f0xx_hal_dma.c ****   * @{
  81:Drivers/STM32F0xx_HAL_Driver/Src/stm32f0xx_hal_dma.c ****   */
  82:Drivers/STM32F0xx_HAL_Driver/Src/stm32f0xx_hal_dma.c **** 
  83:Drivers/STM32F0xx_HAL_Driver/Src/stm32f0xx_hal_dma.c **** 
  84:Drivers/STM32F0xx_HAL_Driver/Src/stm32f0xx_hal_dma.c **** /** @defgroup DMA DMA
  85:Drivers/STM32F0xx_HAL_Driver/Src/stm32f0xx_hal_dma.c ****   * @brief DMA HAL module driver
  86:Drivers/STM32F0xx_HAL_Driver/Src/stm32f0xx_hal_dma.c ****   * @{
  87:Drivers/STM32F0xx_HAL_Driver/Src/stm32f0xx_hal_dma.c ****   */
  88:Drivers/STM32F0xx_HAL_Driver/Src/stm32f0xx_hal_dma.c **** 
  89:Drivers/STM32F0xx_HAL_Driver/Src/stm32f0xx_hal_dma.c **** #ifdef HAL_DMA_MODULE_ENABLED
ARM GAS  C:\Users\mason\AppData\Local\Temp\ccKXoFR7.s 			page 3


  90:Drivers/STM32F0xx_HAL_Driver/Src/stm32f0xx_hal_dma.c **** 
  91:Drivers/STM32F0xx_HAL_Driver/Src/stm32f0xx_hal_dma.c **** /* Private typedef -----------------------------------------------------------*/
  92:Drivers/STM32F0xx_HAL_Driver/Src/stm32f0xx_hal_dma.c **** /* Private define ------------------------------------------------------------*/
  93:Drivers/STM32F0xx_HAL_Driver/Src/stm32f0xx_hal_dma.c **** /* Private macro -------------------------------------------------------------*/
  94:Drivers/STM32F0xx_HAL_Driver/Src/stm32f0xx_hal_dma.c **** /* Private variables ---------------------------------------------------------*/
  95:Drivers/STM32F0xx_HAL_Driver/Src/stm32f0xx_hal_dma.c **** /* Private function prototypes -----------------------------------------------*/
  96:Drivers/STM32F0xx_HAL_Driver/Src/stm32f0xx_hal_dma.c **** /** @defgroup DMA_Private_Functions DMA Private Functions
  97:Drivers/STM32F0xx_HAL_Driver/Src/stm32f0xx_hal_dma.c ****   * @{
  98:Drivers/STM32F0xx_HAL_Driver/Src/stm32f0xx_hal_dma.c ****   */
  99:Drivers/STM32F0xx_HAL_Driver/Src/stm32f0xx_hal_dma.c **** static void DMA_SetConfig(DMA_HandleTypeDef *hdma, uint32_t SrcAddress, uint32_t DstAddress, uint32
 100:Drivers/STM32F0xx_HAL_Driver/Src/stm32f0xx_hal_dma.c **** static void DMA_CalcBaseAndBitshift(DMA_HandleTypeDef *hdma);
 101:Drivers/STM32F0xx_HAL_Driver/Src/stm32f0xx_hal_dma.c **** /**
 102:Drivers/STM32F0xx_HAL_Driver/Src/stm32f0xx_hal_dma.c ****   * @}
 103:Drivers/STM32F0xx_HAL_Driver/Src/stm32f0xx_hal_dma.c ****   */
 104:Drivers/STM32F0xx_HAL_Driver/Src/stm32f0xx_hal_dma.c **** 
 105:Drivers/STM32F0xx_HAL_Driver/Src/stm32f0xx_hal_dma.c **** /* Exported functions ---------------------------------------------------------*/
 106:Drivers/STM32F0xx_HAL_Driver/Src/stm32f0xx_hal_dma.c **** 
 107:Drivers/STM32F0xx_HAL_Driver/Src/stm32f0xx_hal_dma.c **** /** @defgroup DMA_Exported_Functions DMA Exported Functions
 108:Drivers/STM32F0xx_HAL_Driver/Src/stm32f0xx_hal_dma.c ****   * @{
 109:Drivers/STM32F0xx_HAL_Driver/Src/stm32f0xx_hal_dma.c ****   */
 110:Drivers/STM32F0xx_HAL_Driver/Src/stm32f0xx_hal_dma.c **** 
 111:Drivers/STM32F0xx_HAL_Driver/Src/stm32f0xx_hal_dma.c **** /** @defgroup DMA_Exported_Functions_Group1 Initialization and de-initialization functions
 112:Drivers/STM32F0xx_HAL_Driver/Src/stm32f0xx_hal_dma.c ****  *  @brief   Initialization and de-initialization functions
 113:Drivers/STM32F0xx_HAL_Driver/Src/stm32f0xx_hal_dma.c ****  *
 114:Drivers/STM32F0xx_HAL_Driver/Src/stm32f0xx_hal_dma.c **** @verbatim
 115:Drivers/STM32F0xx_HAL_Driver/Src/stm32f0xx_hal_dma.c ****  ===============================================================================
 116:Drivers/STM32F0xx_HAL_Driver/Src/stm32f0xx_hal_dma.c ****              ##### Initialization and de-initialization functions  #####
 117:Drivers/STM32F0xx_HAL_Driver/Src/stm32f0xx_hal_dma.c ****  ===============================================================================
 118:Drivers/STM32F0xx_HAL_Driver/Src/stm32f0xx_hal_dma.c ****     [..]
 119:Drivers/STM32F0xx_HAL_Driver/Src/stm32f0xx_hal_dma.c ****     This section provides functions allowing to initialize the DMA Channel source
 120:Drivers/STM32F0xx_HAL_Driver/Src/stm32f0xx_hal_dma.c ****     and destination addresses, incrementation and data sizes, transfer direction,
 121:Drivers/STM32F0xx_HAL_Driver/Src/stm32f0xx_hal_dma.c ****     circular/normal mode selection, memory-to-memory mode selection and Channel priority value.
 122:Drivers/STM32F0xx_HAL_Driver/Src/stm32f0xx_hal_dma.c ****     [..]
 123:Drivers/STM32F0xx_HAL_Driver/Src/stm32f0xx_hal_dma.c ****     The HAL_DMA_Init() function follows the DMA configuration procedures as described in
 124:Drivers/STM32F0xx_HAL_Driver/Src/stm32f0xx_hal_dma.c ****     reference manual.
 125:Drivers/STM32F0xx_HAL_Driver/Src/stm32f0xx_hal_dma.c **** 
 126:Drivers/STM32F0xx_HAL_Driver/Src/stm32f0xx_hal_dma.c **** @endverbatim
 127:Drivers/STM32F0xx_HAL_Driver/Src/stm32f0xx_hal_dma.c ****   * @{
 128:Drivers/STM32F0xx_HAL_Driver/Src/stm32f0xx_hal_dma.c ****   */
 129:Drivers/STM32F0xx_HAL_Driver/Src/stm32f0xx_hal_dma.c **** 
 130:Drivers/STM32F0xx_HAL_Driver/Src/stm32f0xx_hal_dma.c **** /**
 131:Drivers/STM32F0xx_HAL_Driver/Src/stm32f0xx_hal_dma.c ****   * @brief  Initialize the DMA according to the specified
 132:Drivers/STM32F0xx_HAL_Driver/Src/stm32f0xx_hal_dma.c ****   *         parameters in the DMA_InitTypeDef and initialize the associated handle.
 133:Drivers/STM32F0xx_HAL_Driver/Src/stm32f0xx_hal_dma.c ****   * @param  hdma Pointer to a DMA_HandleTypeDef structure that contains
 134:Drivers/STM32F0xx_HAL_Driver/Src/stm32f0xx_hal_dma.c ****   *               the configuration information for the specified DMA Channel.
 135:Drivers/STM32F0xx_HAL_Driver/Src/stm32f0xx_hal_dma.c ****   * @retval HAL status
 136:Drivers/STM32F0xx_HAL_Driver/Src/stm32f0xx_hal_dma.c ****   */
 137:Drivers/STM32F0xx_HAL_Driver/Src/stm32f0xx_hal_dma.c **** HAL_StatusTypeDef HAL_DMA_Init(DMA_HandleTypeDef *hdma)
 138:Drivers/STM32F0xx_HAL_Driver/Src/stm32f0xx_hal_dma.c **** {
  27              		.loc 1 138 1
  28              		.cfi_startproc
  29              		@ args = 0, pretend = 0, frame = 16
  30              		@ frame_needed = 1, uses_anonymous_args = 0
  31 0000 80B5     		push	{r7, lr}
  32              	.LCFI0:
  33              		.cfi_def_cfa_offset 8
  34              		.cfi_offset 7, -8
ARM GAS  C:\Users\mason\AppData\Local\Temp\ccKXoFR7.s 			page 4


  35              		.cfi_offset 14, -4
  36 0002 84B0     		sub	sp, sp, #16
  37              	.LCFI1:
  38              		.cfi_def_cfa_offset 24
  39 0004 00AF     		add	r7, sp, #0
  40              	.LCFI2:
  41              		.cfi_def_cfa_register 7
  42 0006 7860     		str	r0, [r7, #4]
 139:Drivers/STM32F0xx_HAL_Driver/Src/stm32f0xx_hal_dma.c ****   uint32_t tmp = 0U;
  43              		.loc 1 139 12
  44 0008 0023     		movs	r3, #0
  45 000a FB60     		str	r3, [r7, #12]
 140:Drivers/STM32F0xx_HAL_Driver/Src/stm32f0xx_hal_dma.c **** 
 141:Drivers/STM32F0xx_HAL_Driver/Src/stm32f0xx_hal_dma.c ****   /* Check the DMA handle allocation */
 142:Drivers/STM32F0xx_HAL_Driver/Src/stm32f0xx_hal_dma.c ****   if (NULL == hdma)
  46              		.loc 1 142 6
  47 000c 7B68     		ldr	r3, [r7, #4]
  48 000e 002B     		cmp	r3, #0
  49 0010 01D1     		bne	.L2
 143:Drivers/STM32F0xx_HAL_Driver/Src/stm32f0xx_hal_dma.c ****   {
 144:Drivers/STM32F0xx_HAL_Driver/Src/stm32f0xx_hal_dma.c ****     return HAL_ERROR;
  50              		.loc 1 144 12
  51 0012 0123     		movs	r3, #1
  52 0014 36E0     		b	.L3
  53              	.L2:
 145:Drivers/STM32F0xx_HAL_Driver/Src/stm32f0xx_hal_dma.c ****   }
 146:Drivers/STM32F0xx_HAL_Driver/Src/stm32f0xx_hal_dma.c **** 
 147:Drivers/STM32F0xx_HAL_Driver/Src/stm32f0xx_hal_dma.c ****   /* Check the parameters */
 148:Drivers/STM32F0xx_HAL_Driver/Src/stm32f0xx_hal_dma.c ****   assert_param(IS_DMA_ALL_INSTANCE(hdma->Instance));
 149:Drivers/STM32F0xx_HAL_Driver/Src/stm32f0xx_hal_dma.c ****   assert_param(IS_DMA_DIRECTION(hdma->Init.Direction));
 150:Drivers/STM32F0xx_HAL_Driver/Src/stm32f0xx_hal_dma.c ****   assert_param(IS_DMA_PERIPHERAL_INC_STATE(hdma->Init.PeriphInc));
 151:Drivers/STM32F0xx_HAL_Driver/Src/stm32f0xx_hal_dma.c ****   assert_param(IS_DMA_MEMORY_INC_STATE(hdma->Init.MemInc));
 152:Drivers/STM32F0xx_HAL_Driver/Src/stm32f0xx_hal_dma.c ****   assert_param(IS_DMA_PERIPHERAL_DATA_SIZE(hdma->Init.PeriphDataAlignment));
 153:Drivers/STM32F0xx_HAL_Driver/Src/stm32f0xx_hal_dma.c ****   assert_param(IS_DMA_MEMORY_DATA_SIZE(hdma->Init.MemDataAlignment));
 154:Drivers/STM32F0xx_HAL_Driver/Src/stm32f0xx_hal_dma.c ****   assert_param(IS_DMA_MODE(hdma->Init.Mode));
 155:Drivers/STM32F0xx_HAL_Driver/Src/stm32f0xx_hal_dma.c ****   assert_param(IS_DMA_PRIORITY(hdma->Init.Priority));
 156:Drivers/STM32F0xx_HAL_Driver/Src/stm32f0xx_hal_dma.c **** 
 157:Drivers/STM32F0xx_HAL_Driver/Src/stm32f0xx_hal_dma.c ****   /* Change DMA peripheral state */
 158:Drivers/STM32F0xx_HAL_Driver/Src/stm32f0xx_hal_dma.c ****   hdma->State = HAL_DMA_STATE_BUSY;
  54              		.loc 1 158 15
  55 0016 7B68     		ldr	r3, [r7, #4]
  56 0018 2122     		movs	r2, #33
  57 001a 0221     		movs	r1, #2
  58 001c 9954     		strb	r1, [r3, r2]
 159:Drivers/STM32F0xx_HAL_Driver/Src/stm32f0xx_hal_dma.c **** 
 160:Drivers/STM32F0xx_HAL_Driver/Src/stm32f0xx_hal_dma.c ****   /* Get the CR register value */
 161:Drivers/STM32F0xx_HAL_Driver/Src/stm32f0xx_hal_dma.c ****   tmp = hdma->Instance->CCR;
  59              		.loc 1 161 13
  60 001e 7B68     		ldr	r3, [r7, #4]
  61 0020 1B68     		ldr	r3, [r3]
  62              		.loc 1 161 7
  63 0022 1B68     		ldr	r3, [r3]
  64 0024 FB60     		str	r3, [r7, #12]
 162:Drivers/STM32F0xx_HAL_Driver/Src/stm32f0xx_hal_dma.c **** 
 163:Drivers/STM32F0xx_HAL_Driver/Src/stm32f0xx_hal_dma.c ****   /* Clear PL, MSIZE, PSIZE, MINC, PINC, CIRC, DIR bits */
 164:Drivers/STM32F0xx_HAL_Driver/Src/stm32f0xx_hal_dma.c ****   tmp &= ((uint32_t)~(DMA_CCR_PL    | DMA_CCR_MSIZE  | DMA_CCR_PSIZE  | \
  65              		.loc 1 164 7
ARM GAS  C:\Users\mason\AppData\Local\Temp\ccKXoFR7.s 			page 5


  66 0026 FB68     		ldr	r3, [r7, #12]
  67 0028 184A     		ldr	r2, .L4
  68 002a 1340     		ands	r3, r2
  69 002c FB60     		str	r3, [r7, #12]
 165:Drivers/STM32F0xx_HAL_Driver/Src/stm32f0xx_hal_dma.c ****                       DMA_CCR_MINC  | DMA_CCR_PINC   | DMA_CCR_CIRC   | \
 166:Drivers/STM32F0xx_HAL_Driver/Src/stm32f0xx_hal_dma.c ****                       DMA_CCR_DIR));
 167:Drivers/STM32F0xx_HAL_Driver/Src/stm32f0xx_hal_dma.c **** 
 168:Drivers/STM32F0xx_HAL_Driver/Src/stm32f0xx_hal_dma.c ****   /* Prepare the DMA Channel configuration */
 169:Drivers/STM32F0xx_HAL_Driver/Src/stm32f0xx_hal_dma.c ****   tmp |=  hdma->Init.Direction        |
  70              		.loc 1 169 21
  71 002e 7B68     		ldr	r3, [r7, #4]
  72 0030 5A68     		ldr	r2, [r3, #4]
 170:Drivers/STM32F0xx_HAL_Driver/Src/stm32f0xx_hal_dma.c ****           hdma->Init.PeriphInc           | hdma->Init.MemInc           |
  73              		.loc 1 170 21
  74 0032 7B68     		ldr	r3, [r7, #4]
  75 0034 9B68     		ldr	r3, [r3, #8]
 169:Drivers/STM32F0xx_HAL_Driver/Src/stm32f0xx_hal_dma.c ****           hdma->Init.PeriphInc           | hdma->Init.MemInc           |
  76              		.loc 1 169 39
  77 0036 1A43     		orrs	r2, r3
  78              		.loc 1 170 54
  79 0038 7B68     		ldr	r3, [r7, #4]
  80 003a DB68     		ldr	r3, [r3, #12]
  81              		.loc 1 170 42
  82 003c 1A43     		orrs	r2, r3
 171:Drivers/STM32F0xx_HAL_Driver/Src/stm32f0xx_hal_dma.c ****           hdma->Init.PeriphDataAlignment | hdma->Init.MemDataAlignment |
  83              		.loc 1 171 21
  84 003e 7B68     		ldr	r3, [r7, #4]
  85 0040 1B69     		ldr	r3, [r3, #16]
 170:Drivers/STM32F0xx_HAL_Driver/Src/stm32f0xx_hal_dma.c ****           hdma->Init.PeriphInc           | hdma->Init.MemInc           |
  86              		.loc 1 170 72
  87 0042 1A43     		orrs	r2, r3
  88              		.loc 1 171 54
  89 0044 7B68     		ldr	r3, [r7, #4]
  90 0046 5B69     		ldr	r3, [r3, #20]
  91              		.loc 1 171 42
  92 0048 1A43     		orrs	r2, r3
 172:Drivers/STM32F0xx_HAL_Driver/Src/stm32f0xx_hal_dma.c ****           hdma->Init.Mode                | hdma->Init.Priority;
  93              		.loc 1 172 21
  94 004a 7B68     		ldr	r3, [r7, #4]
  95 004c 9B69     		ldr	r3, [r3, #24]
 171:Drivers/STM32F0xx_HAL_Driver/Src/stm32f0xx_hal_dma.c ****           hdma->Init.PeriphDataAlignment | hdma->Init.MemDataAlignment |
  96              		.loc 1 171 72
  97 004e 1A43     		orrs	r2, r3
  98              		.loc 1 172 54
  99 0050 7B68     		ldr	r3, [r7, #4]
 100 0052 DB69     		ldr	r3, [r3, #28]
 101              		.loc 1 172 42
 102 0054 1343     		orrs	r3, r2
 169:Drivers/STM32F0xx_HAL_Driver/Src/stm32f0xx_hal_dma.c ****           hdma->Init.PeriphInc           | hdma->Init.MemInc           |
 103              		.loc 1 169 7
 104 0056 FA68     		ldr	r2, [r7, #12]
 105 0058 1343     		orrs	r3, r2
 106 005a FB60     		str	r3, [r7, #12]
 173:Drivers/STM32F0xx_HAL_Driver/Src/stm32f0xx_hal_dma.c **** 
 174:Drivers/STM32F0xx_HAL_Driver/Src/stm32f0xx_hal_dma.c ****   /* Write to DMA Channel CR register */
 175:Drivers/STM32F0xx_HAL_Driver/Src/stm32f0xx_hal_dma.c ****   hdma->Instance->CCR = tmp;
 107              		.loc 1 175 7
ARM GAS  C:\Users\mason\AppData\Local\Temp\ccKXoFR7.s 			page 6


 108 005c 7B68     		ldr	r3, [r7, #4]
 109 005e 1B68     		ldr	r3, [r3]
 110              		.loc 1 175 23
 111 0060 FA68     		ldr	r2, [r7, #12]
 112 0062 1A60     		str	r2, [r3]
 176:Drivers/STM32F0xx_HAL_Driver/Src/stm32f0xx_hal_dma.c **** 
 177:Drivers/STM32F0xx_HAL_Driver/Src/stm32f0xx_hal_dma.c ****   /* Initialize DmaBaseAddress and ChannelIndex parameters used
 178:Drivers/STM32F0xx_HAL_Driver/Src/stm32f0xx_hal_dma.c ****      by HAL_DMA_IRQHandler() and HAL_DMA_PollForTransfer() */
 179:Drivers/STM32F0xx_HAL_Driver/Src/stm32f0xx_hal_dma.c ****   DMA_CalcBaseAndBitshift(hdma);
 113              		.loc 1 179 3
 114 0064 7B68     		ldr	r3, [r7, #4]
 115 0066 1800     		movs	r0, r3
 116 0068 FFF7FEFF 		bl	DMA_CalcBaseAndBitshift
 180:Drivers/STM32F0xx_HAL_Driver/Src/stm32f0xx_hal_dma.c **** 
 181:Drivers/STM32F0xx_HAL_Driver/Src/stm32f0xx_hal_dma.c ****   /* Initialise the error code */
 182:Drivers/STM32F0xx_HAL_Driver/Src/stm32f0xx_hal_dma.c ****   hdma->ErrorCode = HAL_DMA_ERROR_NONE;
 117              		.loc 1 182 19
 118 006c 7B68     		ldr	r3, [r7, #4]
 119 006e 0022     		movs	r2, #0
 120 0070 9A63     		str	r2, [r3, #56]
 183:Drivers/STM32F0xx_HAL_Driver/Src/stm32f0xx_hal_dma.c **** 
 184:Drivers/STM32F0xx_HAL_Driver/Src/stm32f0xx_hal_dma.c ****   /* Initialize the DMA state*/
 185:Drivers/STM32F0xx_HAL_Driver/Src/stm32f0xx_hal_dma.c ****   hdma->State = HAL_DMA_STATE_READY;
 121              		.loc 1 185 15
 122 0072 7B68     		ldr	r3, [r7, #4]
 123 0074 2122     		movs	r2, #33
 124 0076 0121     		movs	r1, #1
 125 0078 9954     		strb	r1, [r3, r2]
 186:Drivers/STM32F0xx_HAL_Driver/Src/stm32f0xx_hal_dma.c **** 
 187:Drivers/STM32F0xx_HAL_Driver/Src/stm32f0xx_hal_dma.c ****   /* Allocate lock resource and initialize it */
 188:Drivers/STM32F0xx_HAL_Driver/Src/stm32f0xx_hal_dma.c ****   hdma->Lock = HAL_UNLOCKED;
 126              		.loc 1 188 14
 127 007a 7B68     		ldr	r3, [r7, #4]
 128 007c 2022     		movs	r2, #32
 129 007e 0021     		movs	r1, #0
 130 0080 9954     		strb	r1, [r3, r2]
 189:Drivers/STM32F0xx_HAL_Driver/Src/stm32f0xx_hal_dma.c **** 
 190:Drivers/STM32F0xx_HAL_Driver/Src/stm32f0xx_hal_dma.c ****   return HAL_OK;
 131              		.loc 1 190 10
 132 0082 0023     		movs	r3, #0
 133              	.L3:
 191:Drivers/STM32F0xx_HAL_Driver/Src/stm32f0xx_hal_dma.c **** }
 134              		.loc 1 191 1
 135 0084 1800     		movs	r0, r3
 136 0086 BD46     		mov	sp, r7
 137 0088 04B0     		add	sp, sp, #16
 138              		@ sp needed
 139 008a 80BD     		pop	{r7, pc}
 140              	.L5:
 141              		.align	2
 142              	.L4:
 143 008c 0FC0FFFF 		.word	-16369
 144              		.cfi_endproc
 145              	.LFE40:
 147              		.section	.text.HAL_DMA_DeInit,"ax",%progbits
 148              		.align	1
 149              		.global	HAL_DMA_DeInit
ARM GAS  C:\Users\mason\AppData\Local\Temp\ccKXoFR7.s 			page 7


 150              		.syntax unified
 151              		.code	16
 152              		.thumb_func
 154              	HAL_DMA_DeInit:
 155              	.LFB41:
 192:Drivers/STM32F0xx_HAL_Driver/Src/stm32f0xx_hal_dma.c **** 
 193:Drivers/STM32F0xx_HAL_Driver/Src/stm32f0xx_hal_dma.c **** /**
 194:Drivers/STM32F0xx_HAL_Driver/Src/stm32f0xx_hal_dma.c ****   * @brief  DeInitialize the DMA peripheral
 195:Drivers/STM32F0xx_HAL_Driver/Src/stm32f0xx_hal_dma.c ****   * @param  hdma pointer to a DMA_HandleTypeDef structure that contains
 196:Drivers/STM32F0xx_HAL_Driver/Src/stm32f0xx_hal_dma.c ****   *               the configuration information for the specified DMA Channel.
 197:Drivers/STM32F0xx_HAL_Driver/Src/stm32f0xx_hal_dma.c ****   * @retval HAL status
 198:Drivers/STM32F0xx_HAL_Driver/Src/stm32f0xx_hal_dma.c ****   */
 199:Drivers/STM32F0xx_HAL_Driver/Src/stm32f0xx_hal_dma.c **** HAL_StatusTypeDef HAL_DMA_DeInit(DMA_HandleTypeDef *hdma)
 200:Drivers/STM32F0xx_HAL_Driver/Src/stm32f0xx_hal_dma.c **** {
 156              		.loc 1 200 1
 157              		.cfi_startproc
 158              		@ args = 0, pretend = 0, frame = 8
 159              		@ frame_needed = 1, uses_anonymous_args = 0
 160 0000 80B5     		push	{r7, lr}
 161              	.LCFI3:
 162              		.cfi_def_cfa_offset 8
 163              		.cfi_offset 7, -8
 164              		.cfi_offset 14, -4
 165 0002 82B0     		sub	sp, sp, #8
 166              	.LCFI4:
 167              		.cfi_def_cfa_offset 16
 168 0004 00AF     		add	r7, sp, #0
 169              	.LCFI5:
 170              		.cfi_def_cfa_register 7
 171 0006 7860     		str	r0, [r7, #4]
 201:Drivers/STM32F0xx_HAL_Driver/Src/stm32f0xx_hal_dma.c ****   /* Check the DMA handle allocation */
 202:Drivers/STM32F0xx_HAL_Driver/Src/stm32f0xx_hal_dma.c ****   if (NULL == hdma)
 172              		.loc 1 202 6
 173 0008 7B68     		ldr	r3, [r7, #4]
 174 000a 002B     		cmp	r3, #0
 175 000c 01D1     		bne	.L7
 203:Drivers/STM32F0xx_HAL_Driver/Src/stm32f0xx_hal_dma.c ****   {
 204:Drivers/STM32F0xx_HAL_Driver/Src/stm32f0xx_hal_dma.c ****     return HAL_ERROR;
 176              		.loc 1 204 12
 177 000e 0123     		movs	r3, #1
 178 0010 3BE0     		b	.L8
 179              	.L7:
 205:Drivers/STM32F0xx_HAL_Driver/Src/stm32f0xx_hal_dma.c ****   }
 206:Drivers/STM32F0xx_HAL_Driver/Src/stm32f0xx_hal_dma.c **** 
 207:Drivers/STM32F0xx_HAL_Driver/Src/stm32f0xx_hal_dma.c ****   /* Check the parameters */
 208:Drivers/STM32F0xx_HAL_Driver/Src/stm32f0xx_hal_dma.c ****   assert_param(IS_DMA_ALL_INSTANCE(hdma->Instance));
 209:Drivers/STM32F0xx_HAL_Driver/Src/stm32f0xx_hal_dma.c **** 
 210:Drivers/STM32F0xx_HAL_Driver/Src/stm32f0xx_hal_dma.c ****   /* Disable the selected DMA Channelx */
 211:Drivers/STM32F0xx_HAL_Driver/Src/stm32f0xx_hal_dma.c ****   hdma->Instance->CCR &= ~DMA_CCR_EN;
 180              		.loc 1 211 7
 181 0012 7B68     		ldr	r3, [r7, #4]
 182 0014 1B68     		ldr	r3, [r3]
 183              		.loc 1 211 23
 184 0016 1A68     		ldr	r2, [r3]
 185              		.loc 1 211 7
 186 0018 7B68     		ldr	r3, [r7, #4]
 187 001a 1B68     		ldr	r3, [r3]
ARM GAS  C:\Users\mason\AppData\Local\Temp\ccKXoFR7.s 			page 8


 188              		.loc 1 211 23
 189 001c 0121     		movs	r1, #1
 190 001e 8A43     		bics	r2, r1
 191 0020 1A60     		str	r2, [r3]
 212:Drivers/STM32F0xx_HAL_Driver/Src/stm32f0xx_hal_dma.c **** 
 213:Drivers/STM32F0xx_HAL_Driver/Src/stm32f0xx_hal_dma.c ****   /* Reset DMA Channel control register */
 214:Drivers/STM32F0xx_HAL_Driver/Src/stm32f0xx_hal_dma.c ****   hdma->Instance->CCR  = 0U;
 192              		.loc 1 214 7
 193 0022 7B68     		ldr	r3, [r7, #4]
 194 0024 1B68     		ldr	r3, [r3]
 195              		.loc 1 214 24
 196 0026 0022     		movs	r2, #0
 197 0028 1A60     		str	r2, [r3]
 215:Drivers/STM32F0xx_HAL_Driver/Src/stm32f0xx_hal_dma.c **** 
 216:Drivers/STM32F0xx_HAL_Driver/Src/stm32f0xx_hal_dma.c ****   /* Reset DMA Channel Number of Data to Transfer register */
 217:Drivers/STM32F0xx_HAL_Driver/Src/stm32f0xx_hal_dma.c ****   hdma->Instance->CNDTR = 0U;
 198              		.loc 1 217 7
 199 002a 7B68     		ldr	r3, [r7, #4]
 200 002c 1B68     		ldr	r3, [r3]
 201              		.loc 1 217 25
 202 002e 0022     		movs	r2, #0
 203 0030 5A60     		str	r2, [r3, #4]
 218:Drivers/STM32F0xx_HAL_Driver/Src/stm32f0xx_hal_dma.c **** 
 219:Drivers/STM32F0xx_HAL_Driver/Src/stm32f0xx_hal_dma.c ****   /* Reset DMA Channel peripheral address register */
 220:Drivers/STM32F0xx_HAL_Driver/Src/stm32f0xx_hal_dma.c ****   hdma->Instance->CPAR  = 0U;
 204              		.loc 1 220 7
 205 0032 7B68     		ldr	r3, [r7, #4]
 206 0034 1B68     		ldr	r3, [r3]
 207              		.loc 1 220 25
 208 0036 0022     		movs	r2, #0
 209 0038 9A60     		str	r2, [r3, #8]
 221:Drivers/STM32F0xx_HAL_Driver/Src/stm32f0xx_hal_dma.c **** 
 222:Drivers/STM32F0xx_HAL_Driver/Src/stm32f0xx_hal_dma.c ****   /* Reset DMA Channel memory address register */
 223:Drivers/STM32F0xx_HAL_Driver/Src/stm32f0xx_hal_dma.c ****   hdma->Instance->CMAR = 0U;
 210              		.loc 1 223 7
 211 003a 7B68     		ldr	r3, [r7, #4]
 212 003c 1B68     		ldr	r3, [r3]
 213              		.loc 1 223 24
 214 003e 0022     		movs	r2, #0
 215 0040 DA60     		str	r2, [r3, #12]
 224:Drivers/STM32F0xx_HAL_Driver/Src/stm32f0xx_hal_dma.c **** 
 225:Drivers/STM32F0xx_HAL_Driver/Src/stm32f0xx_hal_dma.c ****   /* Get DMA Base Address */
 226:Drivers/STM32F0xx_HAL_Driver/Src/stm32f0xx_hal_dma.c ****   DMA_CalcBaseAndBitshift(hdma);
 216              		.loc 1 226 3
 217 0042 7B68     		ldr	r3, [r7, #4]
 218 0044 1800     		movs	r0, r3
 219 0046 FFF7FEFF 		bl	DMA_CalcBaseAndBitshift
 227:Drivers/STM32F0xx_HAL_Driver/Src/stm32f0xx_hal_dma.c **** 
 228:Drivers/STM32F0xx_HAL_Driver/Src/stm32f0xx_hal_dma.c ****   /* Clear all flags */
 229:Drivers/STM32F0xx_HAL_Driver/Src/stm32f0xx_hal_dma.c ****   hdma->DmaBaseAddress->IFCR = DMA_FLAG_GL1 << hdma->ChannelIndex;
 220              		.loc 1 229 52
 221 004a 7B68     		ldr	r3, [r7, #4]
 222 004c 1A6C     		ldr	r2, [r3, #64]
 223              		.loc 1 229 7
 224 004e 7B68     		ldr	r3, [r7, #4]
 225 0050 DB6B     		ldr	r3, [r3, #60]
 226              		.loc 1 229 45
ARM GAS  C:\Users\mason\AppData\Local\Temp\ccKXoFR7.s 			page 9


 227 0052 0121     		movs	r1, #1
 228 0054 9140     		lsls	r1, r1, r2
 229 0056 0A00     		movs	r2, r1
 230              		.loc 1 229 30
 231 0058 5A60     		str	r2, [r3, #4]
 230:Drivers/STM32F0xx_HAL_Driver/Src/stm32f0xx_hal_dma.c **** 
 231:Drivers/STM32F0xx_HAL_Driver/Src/stm32f0xx_hal_dma.c ****   /* Clean callbacks */
 232:Drivers/STM32F0xx_HAL_Driver/Src/stm32f0xx_hal_dma.c ****   hdma->XferCpltCallback = NULL;
 232              		.loc 1 232 26
 233 005a 7B68     		ldr	r3, [r7, #4]
 234 005c 0022     		movs	r2, #0
 235 005e 9A62     		str	r2, [r3, #40]
 233:Drivers/STM32F0xx_HAL_Driver/Src/stm32f0xx_hal_dma.c ****   hdma->XferHalfCpltCallback = NULL;
 236              		.loc 1 233 30
 237 0060 7B68     		ldr	r3, [r7, #4]
 238 0062 0022     		movs	r2, #0
 239 0064 DA62     		str	r2, [r3, #44]
 234:Drivers/STM32F0xx_HAL_Driver/Src/stm32f0xx_hal_dma.c ****   hdma->XferErrorCallback = NULL;
 240              		.loc 1 234 27
 241 0066 7B68     		ldr	r3, [r7, #4]
 242 0068 0022     		movs	r2, #0
 243 006a 1A63     		str	r2, [r3, #48]
 235:Drivers/STM32F0xx_HAL_Driver/Src/stm32f0xx_hal_dma.c ****   hdma->XferAbortCallback = NULL;
 244              		.loc 1 235 27
 245 006c 7B68     		ldr	r3, [r7, #4]
 246 006e 0022     		movs	r2, #0
 247 0070 5A63     		str	r2, [r3, #52]
 236:Drivers/STM32F0xx_HAL_Driver/Src/stm32f0xx_hal_dma.c **** 
 237:Drivers/STM32F0xx_HAL_Driver/Src/stm32f0xx_hal_dma.c ****   /* Reset the error code */
 238:Drivers/STM32F0xx_HAL_Driver/Src/stm32f0xx_hal_dma.c ****   hdma->ErrorCode = HAL_DMA_ERROR_NONE;
 248              		.loc 1 238 19
 249 0072 7B68     		ldr	r3, [r7, #4]
 250 0074 0022     		movs	r2, #0
 251 0076 9A63     		str	r2, [r3, #56]
 239:Drivers/STM32F0xx_HAL_Driver/Src/stm32f0xx_hal_dma.c **** 
 240:Drivers/STM32F0xx_HAL_Driver/Src/stm32f0xx_hal_dma.c ****   /* Reset the DMA state */
 241:Drivers/STM32F0xx_HAL_Driver/Src/stm32f0xx_hal_dma.c ****   hdma->State = HAL_DMA_STATE_RESET;
 252              		.loc 1 241 15
 253 0078 7B68     		ldr	r3, [r7, #4]
 254 007a 2122     		movs	r2, #33
 255 007c 0021     		movs	r1, #0
 256 007e 9954     		strb	r1, [r3, r2]
 242:Drivers/STM32F0xx_HAL_Driver/Src/stm32f0xx_hal_dma.c **** 
 243:Drivers/STM32F0xx_HAL_Driver/Src/stm32f0xx_hal_dma.c ****   /* Release Lock */
 244:Drivers/STM32F0xx_HAL_Driver/Src/stm32f0xx_hal_dma.c ****   __HAL_UNLOCK(hdma);
 257              		.loc 1 244 3
 258 0080 7B68     		ldr	r3, [r7, #4]
 259 0082 2022     		movs	r2, #32
 260 0084 0021     		movs	r1, #0
 261 0086 9954     		strb	r1, [r3, r2]
 245:Drivers/STM32F0xx_HAL_Driver/Src/stm32f0xx_hal_dma.c **** 
 246:Drivers/STM32F0xx_HAL_Driver/Src/stm32f0xx_hal_dma.c ****   return HAL_OK;
 262              		.loc 1 246 10
 263 0088 0023     		movs	r3, #0
 264              	.L8:
 247:Drivers/STM32F0xx_HAL_Driver/Src/stm32f0xx_hal_dma.c **** }
 265              		.loc 1 247 1
ARM GAS  C:\Users\mason\AppData\Local\Temp\ccKXoFR7.s 			page 10


 266 008a 1800     		movs	r0, r3
 267 008c BD46     		mov	sp, r7
 268 008e 02B0     		add	sp, sp, #8
 269              		@ sp needed
 270 0090 80BD     		pop	{r7, pc}
 271              		.cfi_endproc
 272              	.LFE41:
 274              		.section	.text.HAL_DMA_Start,"ax",%progbits
 275              		.align	1
 276              		.global	HAL_DMA_Start
 277              		.syntax unified
 278              		.code	16
 279              		.thumb_func
 281              	HAL_DMA_Start:
 282              	.LFB42:
 248:Drivers/STM32F0xx_HAL_Driver/Src/stm32f0xx_hal_dma.c **** 
 249:Drivers/STM32F0xx_HAL_Driver/Src/stm32f0xx_hal_dma.c **** /**
 250:Drivers/STM32F0xx_HAL_Driver/Src/stm32f0xx_hal_dma.c ****   * @}
 251:Drivers/STM32F0xx_HAL_Driver/Src/stm32f0xx_hal_dma.c ****   */
 252:Drivers/STM32F0xx_HAL_Driver/Src/stm32f0xx_hal_dma.c **** 
 253:Drivers/STM32F0xx_HAL_Driver/Src/stm32f0xx_hal_dma.c **** /** @defgroup DMA_Exported_Functions_Group2 Input and Output operation functions
 254:Drivers/STM32F0xx_HAL_Driver/Src/stm32f0xx_hal_dma.c ****  *  @brief   I/O operation functions
 255:Drivers/STM32F0xx_HAL_Driver/Src/stm32f0xx_hal_dma.c ****  *
 256:Drivers/STM32F0xx_HAL_Driver/Src/stm32f0xx_hal_dma.c **** @verbatim
 257:Drivers/STM32F0xx_HAL_Driver/Src/stm32f0xx_hal_dma.c ****  ===============================================================================
 258:Drivers/STM32F0xx_HAL_Driver/Src/stm32f0xx_hal_dma.c ****                       #####  IO operation functions  #####
 259:Drivers/STM32F0xx_HAL_Driver/Src/stm32f0xx_hal_dma.c ****  ===============================================================================
 260:Drivers/STM32F0xx_HAL_Driver/Src/stm32f0xx_hal_dma.c ****     [..]  This section provides functions allowing to:
 261:Drivers/STM32F0xx_HAL_Driver/Src/stm32f0xx_hal_dma.c ****       (+) Configure the source, destination address and data length and Start DMA transfer
 262:Drivers/STM32F0xx_HAL_Driver/Src/stm32f0xx_hal_dma.c ****       (+) Configure the source, destination address and data length and
 263:Drivers/STM32F0xx_HAL_Driver/Src/stm32f0xx_hal_dma.c ****           Start DMA transfer with interrupt
 264:Drivers/STM32F0xx_HAL_Driver/Src/stm32f0xx_hal_dma.c ****       (+) Abort DMA transfer
 265:Drivers/STM32F0xx_HAL_Driver/Src/stm32f0xx_hal_dma.c ****       (+) Poll for transfer complete
 266:Drivers/STM32F0xx_HAL_Driver/Src/stm32f0xx_hal_dma.c ****       (+) Handle DMA interrupt request
 267:Drivers/STM32F0xx_HAL_Driver/Src/stm32f0xx_hal_dma.c **** 
 268:Drivers/STM32F0xx_HAL_Driver/Src/stm32f0xx_hal_dma.c **** @endverbatim
 269:Drivers/STM32F0xx_HAL_Driver/Src/stm32f0xx_hal_dma.c ****   * @{
 270:Drivers/STM32F0xx_HAL_Driver/Src/stm32f0xx_hal_dma.c ****   */
 271:Drivers/STM32F0xx_HAL_Driver/Src/stm32f0xx_hal_dma.c **** 
 272:Drivers/STM32F0xx_HAL_Driver/Src/stm32f0xx_hal_dma.c **** /**
 273:Drivers/STM32F0xx_HAL_Driver/Src/stm32f0xx_hal_dma.c ****   * @brief  Start the DMA Transfer.
 274:Drivers/STM32F0xx_HAL_Driver/Src/stm32f0xx_hal_dma.c ****   * @param  hdma pointer to a DMA_HandleTypeDef structure that contains
 275:Drivers/STM32F0xx_HAL_Driver/Src/stm32f0xx_hal_dma.c ****   *              the configuration information for the specified DMA Channel.
 276:Drivers/STM32F0xx_HAL_Driver/Src/stm32f0xx_hal_dma.c ****   * @param  SrcAddress The source memory Buffer address
 277:Drivers/STM32F0xx_HAL_Driver/Src/stm32f0xx_hal_dma.c ****   * @param  DstAddress The destination memory Buffer address
 278:Drivers/STM32F0xx_HAL_Driver/Src/stm32f0xx_hal_dma.c ****   * @param  DataLength The length of data to be transferred from source to destination
 279:Drivers/STM32F0xx_HAL_Driver/Src/stm32f0xx_hal_dma.c ****   * @retval HAL status
 280:Drivers/STM32F0xx_HAL_Driver/Src/stm32f0xx_hal_dma.c ****   */
 281:Drivers/STM32F0xx_HAL_Driver/Src/stm32f0xx_hal_dma.c **** HAL_StatusTypeDef HAL_DMA_Start(DMA_HandleTypeDef *hdma, uint32_t SrcAddress, uint32_t DstAddress, 
 282:Drivers/STM32F0xx_HAL_Driver/Src/stm32f0xx_hal_dma.c **** {
 283              		.loc 1 282 1
 284              		.cfi_startproc
 285              		@ args = 0, pretend = 0, frame = 24
 286              		@ frame_needed = 1, uses_anonymous_args = 0
 287 0000 80B5     		push	{r7, lr}
 288              	.LCFI6:
 289              		.cfi_def_cfa_offset 8
ARM GAS  C:\Users\mason\AppData\Local\Temp\ccKXoFR7.s 			page 11


 290              		.cfi_offset 7, -8
 291              		.cfi_offset 14, -4
 292 0002 86B0     		sub	sp, sp, #24
 293              	.LCFI7:
 294              		.cfi_def_cfa_offset 32
 295 0004 00AF     		add	r7, sp, #0
 296              	.LCFI8:
 297              		.cfi_def_cfa_register 7
 298 0006 F860     		str	r0, [r7, #12]
 299 0008 B960     		str	r1, [r7, #8]
 300 000a 7A60     		str	r2, [r7, #4]
 301 000c 3B60     		str	r3, [r7]
 283:Drivers/STM32F0xx_HAL_Driver/Src/stm32f0xx_hal_dma.c ****   HAL_StatusTypeDef status = HAL_OK;
 302              		.loc 1 283 21
 303 000e 1723     		movs	r3, #23
 304 0010 FB18     		adds	r3, r7, r3
 305 0012 0022     		movs	r2, #0
 306 0014 1A70     		strb	r2, [r3]
 284:Drivers/STM32F0xx_HAL_Driver/Src/stm32f0xx_hal_dma.c **** 
 285:Drivers/STM32F0xx_HAL_Driver/Src/stm32f0xx_hal_dma.c ****   /* Check the parameters */
 286:Drivers/STM32F0xx_HAL_Driver/Src/stm32f0xx_hal_dma.c ****   assert_param(IS_DMA_BUFFER_SIZE(DataLength));
 287:Drivers/STM32F0xx_HAL_Driver/Src/stm32f0xx_hal_dma.c **** 
 288:Drivers/STM32F0xx_HAL_Driver/Src/stm32f0xx_hal_dma.c ****   /* Process locked */
 289:Drivers/STM32F0xx_HAL_Driver/Src/stm32f0xx_hal_dma.c ****   __HAL_LOCK(hdma);
 307              		.loc 1 289 3
 308 0016 FB68     		ldr	r3, [r7, #12]
 309 0018 2022     		movs	r2, #32
 310 001a 9B5C     		ldrb	r3, [r3, r2]
 311 001c 012B     		cmp	r3, #1
 312 001e 01D1     		bne	.L10
 313              		.loc 1 289 3 is_stmt 0 discriminator 1
 314 0020 0223     		movs	r3, #2
 315 0022 32E0     		b	.L11
 316              	.L10:
 317              		.loc 1 289 3 discriminator 2
 318 0024 FB68     		ldr	r3, [r7, #12]
 319 0026 2022     		movs	r2, #32
 320 0028 0121     		movs	r1, #1
 321 002a 9954     		strb	r1, [r3, r2]
 290:Drivers/STM32F0xx_HAL_Driver/Src/stm32f0xx_hal_dma.c **** 
 291:Drivers/STM32F0xx_HAL_Driver/Src/stm32f0xx_hal_dma.c ****   if (HAL_DMA_STATE_READY == hdma->State)
 322              		.loc 1 291 34 is_stmt 1 discriminator 2
 323 002c FB68     		ldr	r3, [r7, #12]
 324 002e 2122     		movs	r2, #33
 325 0030 9B5C     		ldrb	r3, [r3, r2]
 326 0032 DBB2     		uxtb	r3, r3
 327              		.loc 1 291 6 discriminator 2
 328 0034 012B     		cmp	r3, #1
 329 0036 1DD1     		bne	.L12
 292:Drivers/STM32F0xx_HAL_Driver/Src/stm32f0xx_hal_dma.c ****   {
 293:Drivers/STM32F0xx_HAL_Driver/Src/stm32f0xx_hal_dma.c ****     /* Change DMA peripheral state */
 294:Drivers/STM32F0xx_HAL_Driver/Src/stm32f0xx_hal_dma.c ****     hdma->State = HAL_DMA_STATE_BUSY;
 330              		.loc 1 294 17
 331 0038 FB68     		ldr	r3, [r7, #12]
 332 003a 2122     		movs	r2, #33
 333 003c 0221     		movs	r1, #2
 334 003e 9954     		strb	r1, [r3, r2]
ARM GAS  C:\Users\mason\AppData\Local\Temp\ccKXoFR7.s 			page 12


 295:Drivers/STM32F0xx_HAL_Driver/Src/stm32f0xx_hal_dma.c **** 
 296:Drivers/STM32F0xx_HAL_Driver/Src/stm32f0xx_hal_dma.c ****     hdma->ErrorCode = HAL_DMA_ERROR_NONE;
 335              		.loc 1 296 21
 336 0040 FB68     		ldr	r3, [r7, #12]
 337 0042 0022     		movs	r2, #0
 338 0044 9A63     		str	r2, [r3, #56]
 297:Drivers/STM32F0xx_HAL_Driver/Src/stm32f0xx_hal_dma.c **** 
 298:Drivers/STM32F0xx_HAL_Driver/Src/stm32f0xx_hal_dma.c ****     /* Disable the peripheral */
 299:Drivers/STM32F0xx_HAL_Driver/Src/stm32f0xx_hal_dma.c ****     hdma->Instance->CCR &= ~DMA_CCR_EN;
 339              		.loc 1 299 9
 340 0046 FB68     		ldr	r3, [r7, #12]
 341 0048 1B68     		ldr	r3, [r3]
 342              		.loc 1 299 25
 343 004a 1A68     		ldr	r2, [r3]
 344              		.loc 1 299 9
 345 004c FB68     		ldr	r3, [r7, #12]
 346 004e 1B68     		ldr	r3, [r3]
 347              		.loc 1 299 25
 348 0050 0121     		movs	r1, #1
 349 0052 8A43     		bics	r2, r1
 350 0054 1A60     		str	r2, [r3]
 300:Drivers/STM32F0xx_HAL_Driver/Src/stm32f0xx_hal_dma.c **** 
 301:Drivers/STM32F0xx_HAL_Driver/Src/stm32f0xx_hal_dma.c ****     /* Configure the source, destination address and the data length */
 302:Drivers/STM32F0xx_HAL_Driver/Src/stm32f0xx_hal_dma.c ****     DMA_SetConfig(hdma, SrcAddress, DstAddress, DataLength);
 351              		.loc 1 302 5
 352 0056 3B68     		ldr	r3, [r7]
 353 0058 7A68     		ldr	r2, [r7, #4]
 354 005a B968     		ldr	r1, [r7, #8]
 355 005c F868     		ldr	r0, [r7, #12]
 356 005e FFF7FEFF 		bl	DMA_SetConfig
 303:Drivers/STM32F0xx_HAL_Driver/Src/stm32f0xx_hal_dma.c **** 
 304:Drivers/STM32F0xx_HAL_Driver/Src/stm32f0xx_hal_dma.c ****     /* Enable the Peripheral */
 305:Drivers/STM32F0xx_HAL_Driver/Src/stm32f0xx_hal_dma.c ****     hdma->Instance->CCR |= DMA_CCR_EN;
 357              		.loc 1 305 9
 358 0062 FB68     		ldr	r3, [r7, #12]
 359 0064 1B68     		ldr	r3, [r3]
 360              		.loc 1 305 25
 361 0066 1A68     		ldr	r2, [r3]
 362              		.loc 1 305 9
 363 0068 FB68     		ldr	r3, [r7, #12]
 364 006a 1B68     		ldr	r3, [r3]
 365              		.loc 1 305 25
 366 006c 0121     		movs	r1, #1
 367 006e 0A43     		orrs	r2, r1
 368 0070 1A60     		str	r2, [r3]
 369 0072 07E0     		b	.L13
 370              	.L12:
 306:Drivers/STM32F0xx_HAL_Driver/Src/stm32f0xx_hal_dma.c ****   }
 307:Drivers/STM32F0xx_HAL_Driver/Src/stm32f0xx_hal_dma.c ****   else
 308:Drivers/STM32F0xx_HAL_Driver/Src/stm32f0xx_hal_dma.c ****   {
 309:Drivers/STM32F0xx_HAL_Driver/Src/stm32f0xx_hal_dma.c ****     /* Process Unlocked */
 310:Drivers/STM32F0xx_HAL_Driver/Src/stm32f0xx_hal_dma.c ****     __HAL_UNLOCK(hdma);
 371              		.loc 1 310 5
 372 0074 FB68     		ldr	r3, [r7, #12]
 373 0076 2022     		movs	r2, #32
 374 0078 0021     		movs	r1, #0
 375 007a 9954     		strb	r1, [r3, r2]
ARM GAS  C:\Users\mason\AppData\Local\Temp\ccKXoFR7.s 			page 13


 311:Drivers/STM32F0xx_HAL_Driver/Src/stm32f0xx_hal_dma.c **** 
 312:Drivers/STM32F0xx_HAL_Driver/Src/stm32f0xx_hal_dma.c ****     /* Remain BUSY */
 313:Drivers/STM32F0xx_HAL_Driver/Src/stm32f0xx_hal_dma.c ****     status = HAL_BUSY;
 376              		.loc 1 313 12
 377 007c 1723     		movs	r3, #23
 378 007e FB18     		adds	r3, r7, r3
 379 0080 0222     		movs	r2, #2
 380 0082 1A70     		strb	r2, [r3]
 381              	.L13:
 314:Drivers/STM32F0xx_HAL_Driver/Src/stm32f0xx_hal_dma.c ****   }
 315:Drivers/STM32F0xx_HAL_Driver/Src/stm32f0xx_hal_dma.c **** 
 316:Drivers/STM32F0xx_HAL_Driver/Src/stm32f0xx_hal_dma.c ****   return status;
 382              		.loc 1 316 10
 383 0084 1723     		movs	r3, #23
 384 0086 FB18     		adds	r3, r7, r3
 385 0088 1B78     		ldrb	r3, [r3]
 386              	.L11:
 317:Drivers/STM32F0xx_HAL_Driver/Src/stm32f0xx_hal_dma.c **** }
 387              		.loc 1 317 1
 388 008a 1800     		movs	r0, r3
 389 008c BD46     		mov	sp, r7
 390 008e 06B0     		add	sp, sp, #24
 391              		@ sp needed
 392 0090 80BD     		pop	{r7, pc}
 393              		.cfi_endproc
 394              	.LFE42:
 396              		.section	.text.HAL_DMA_Start_IT,"ax",%progbits
 397              		.align	1
 398              		.global	HAL_DMA_Start_IT
 399              		.syntax unified
 400              		.code	16
 401              		.thumb_func
 403              	HAL_DMA_Start_IT:
 404              	.LFB43:
 318:Drivers/STM32F0xx_HAL_Driver/Src/stm32f0xx_hal_dma.c **** 
 319:Drivers/STM32F0xx_HAL_Driver/Src/stm32f0xx_hal_dma.c **** /**
 320:Drivers/STM32F0xx_HAL_Driver/Src/stm32f0xx_hal_dma.c ****   * @brief  Start the DMA Transfer with interrupt enabled.
 321:Drivers/STM32F0xx_HAL_Driver/Src/stm32f0xx_hal_dma.c ****   * @param  hdma       pointer to a DMA_HandleTypeDef structure that contains
 322:Drivers/STM32F0xx_HAL_Driver/Src/stm32f0xx_hal_dma.c ****   *                     the configuration information for the specified DMA Channel.
 323:Drivers/STM32F0xx_HAL_Driver/Src/stm32f0xx_hal_dma.c ****   * @param  SrcAddress The source memory Buffer address
 324:Drivers/STM32F0xx_HAL_Driver/Src/stm32f0xx_hal_dma.c ****   * @param  DstAddress The destination memory Buffer address
 325:Drivers/STM32F0xx_HAL_Driver/Src/stm32f0xx_hal_dma.c ****   * @param  DataLength The length of data to be transferred from source to destination
 326:Drivers/STM32F0xx_HAL_Driver/Src/stm32f0xx_hal_dma.c ****   * @retval HAL status
 327:Drivers/STM32F0xx_HAL_Driver/Src/stm32f0xx_hal_dma.c ****   */
 328:Drivers/STM32F0xx_HAL_Driver/Src/stm32f0xx_hal_dma.c **** HAL_StatusTypeDef HAL_DMA_Start_IT(DMA_HandleTypeDef *hdma, uint32_t SrcAddress, uint32_t DstAddres
 329:Drivers/STM32F0xx_HAL_Driver/Src/stm32f0xx_hal_dma.c **** {
 405              		.loc 1 329 1
 406              		.cfi_startproc
 407              		@ args = 0, pretend = 0, frame = 24
 408              		@ frame_needed = 1, uses_anonymous_args = 0
 409 0000 80B5     		push	{r7, lr}
 410              	.LCFI9:
 411              		.cfi_def_cfa_offset 8
 412              		.cfi_offset 7, -8
 413              		.cfi_offset 14, -4
 414 0002 86B0     		sub	sp, sp, #24
 415              	.LCFI10:
ARM GAS  C:\Users\mason\AppData\Local\Temp\ccKXoFR7.s 			page 14


 416              		.cfi_def_cfa_offset 32
 417 0004 00AF     		add	r7, sp, #0
 418              	.LCFI11:
 419              		.cfi_def_cfa_register 7
 420 0006 F860     		str	r0, [r7, #12]
 421 0008 B960     		str	r1, [r7, #8]
 422 000a 7A60     		str	r2, [r7, #4]
 423 000c 3B60     		str	r3, [r7]
 330:Drivers/STM32F0xx_HAL_Driver/Src/stm32f0xx_hal_dma.c ****   HAL_StatusTypeDef status = HAL_OK;
 424              		.loc 1 330 21
 425 000e 1723     		movs	r3, #23
 426 0010 FB18     		adds	r3, r7, r3
 427 0012 0022     		movs	r2, #0
 428 0014 1A70     		strb	r2, [r3]
 331:Drivers/STM32F0xx_HAL_Driver/Src/stm32f0xx_hal_dma.c **** 
 332:Drivers/STM32F0xx_HAL_Driver/Src/stm32f0xx_hal_dma.c ****   /* Check the parameters */
 333:Drivers/STM32F0xx_HAL_Driver/Src/stm32f0xx_hal_dma.c ****   assert_param(IS_DMA_BUFFER_SIZE(DataLength));
 334:Drivers/STM32F0xx_HAL_Driver/Src/stm32f0xx_hal_dma.c **** 
 335:Drivers/STM32F0xx_HAL_Driver/Src/stm32f0xx_hal_dma.c ****   /* Process locked */
 336:Drivers/STM32F0xx_HAL_Driver/Src/stm32f0xx_hal_dma.c ****   __HAL_LOCK(hdma);
 429              		.loc 1 336 3
 430 0016 FB68     		ldr	r3, [r7, #12]
 431 0018 2022     		movs	r2, #32
 432 001a 9B5C     		ldrb	r3, [r3, r2]
 433 001c 012B     		cmp	r3, #1
 434 001e 01D1     		bne	.L15
 435              		.loc 1 336 3 is_stmt 0 discriminator 1
 436 0020 0223     		movs	r3, #2
 437 0022 4FE0     		b	.L16
 438              	.L15:
 439              		.loc 1 336 3 discriminator 2
 440 0024 FB68     		ldr	r3, [r7, #12]
 441 0026 2022     		movs	r2, #32
 442 0028 0121     		movs	r1, #1
 443 002a 9954     		strb	r1, [r3, r2]
 337:Drivers/STM32F0xx_HAL_Driver/Src/stm32f0xx_hal_dma.c **** 
 338:Drivers/STM32F0xx_HAL_Driver/Src/stm32f0xx_hal_dma.c ****   if (HAL_DMA_STATE_READY == hdma->State)
 444              		.loc 1 338 34 is_stmt 1 discriminator 2
 445 002c FB68     		ldr	r3, [r7, #12]
 446 002e 2122     		movs	r2, #33
 447 0030 9B5C     		ldrb	r3, [r3, r2]
 448 0032 DBB2     		uxtb	r3, r3
 449              		.loc 1 338 6 discriminator 2
 450 0034 012B     		cmp	r3, #1
 451 0036 3AD1     		bne	.L17
 339:Drivers/STM32F0xx_HAL_Driver/Src/stm32f0xx_hal_dma.c ****   {
 340:Drivers/STM32F0xx_HAL_Driver/Src/stm32f0xx_hal_dma.c ****     /* Change DMA peripheral state */
 341:Drivers/STM32F0xx_HAL_Driver/Src/stm32f0xx_hal_dma.c ****     hdma->State = HAL_DMA_STATE_BUSY;
 452              		.loc 1 341 17
 453 0038 FB68     		ldr	r3, [r7, #12]
 454 003a 2122     		movs	r2, #33
 455 003c 0221     		movs	r1, #2
 456 003e 9954     		strb	r1, [r3, r2]
 342:Drivers/STM32F0xx_HAL_Driver/Src/stm32f0xx_hal_dma.c **** 
 343:Drivers/STM32F0xx_HAL_Driver/Src/stm32f0xx_hal_dma.c ****     hdma->ErrorCode = HAL_DMA_ERROR_NONE;
 457              		.loc 1 343 21
 458 0040 FB68     		ldr	r3, [r7, #12]
ARM GAS  C:\Users\mason\AppData\Local\Temp\ccKXoFR7.s 			page 15


 459 0042 0022     		movs	r2, #0
 460 0044 9A63     		str	r2, [r3, #56]
 344:Drivers/STM32F0xx_HAL_Driver/Src/stm32f0xx_hal_dma.c **** 
 345:Drivers/STM32F0xx_HAL_Driver/Src/stm32f0xx_hal_dma.c ****     /* Disable the peripheral */
 346:Drivers/STM32F0xx_HAL_Driver/Src/stm32f0xx_hal_dma.c ****     hdma->Instance->CCR &= ~DMA_CCR_EN;
 461              		.loc 1 346 9
 462 0046 FB68     		ldr	r3, [r7, #12]
 463 0048 1B68     		ldr	r3, [r3]
 464              		.loc 1 346 25
 465 004a 1A68     		ldr	r2, [r3]
 466              		.loc 1 346 9
 467 004c FB68     		ldr	r3, [r7, #12]
 468 004e 1B68     		ldr	r3, [r3]
 469              		.loc 1 346 25
 470 0050 0121     		movs	r1, #1
 471 0052 8A43     		bics	r2, r1
 472 0054 1A60     		str	r2, [r3]
 347:Drivers/STM32F0xx_HAL_Driver/Src/stm32f0xx_hal_dma.c **** 
 348:Drivers/STM32F0xx_HAL_Driver/Src/stm32f0xx_hal_dma.c ****     /* Configure the source, destination address and the data length */
 349:Drivers/STM32F0xx_HAL_Driver/Src/stm32f0xx_hal_dma.c ****     DMA_SetConfig(hdma, SrcAddress, DstAddress, DataLength);
 473              		.loc 1 349 5
 474 0056 3B68     		ldr	r3, [r7]
 475 0058 7A68     		ldr	r2, [r7, #4]
 476 005a B968     		ldr	r1, [r7, #8]
 477 005c F868     		ldr	r0, [r7, #12]
 478 005e FFF7FEFF 		bl	DMA_SetConfig
 350:Drivers/STM32F0xx_HAL_Driver/Src/stm32f0xx_hal_dma.c **** 
 351:Drivers/STM32F0xx_HAL_Driver/Src/stm32f0xx_hal_dma.c ****     /* Enable the transfer complete, & transfer error interrupts */
 352:Drivers/STM32F0xx_HAL_Driver/Src/stm32f0xx_hal_dma.c ****     /* Half transfer interrupt is optional: enable it only if associated callback is available */
 353:Drivers/STM32F0xx_HAL_Driver/Src/stm32f0xx_hal_dma.c ****     if (NULL != hdma->XferHalfCpltCallback)
 479              		.loc 1 353 21
 480 0062 FB68     		ldr	r3, [r7, #12]
 481 0064 DB6A     		ldr	r3, [r3, #44]
 482              		.loc 1 353 8
 483 0066 002B     		cmp	r3, #0
 484 0068 08D0     		beq	.L18
 354:Drivers/STM32F0xx_HAL_Driver/Src/stm32f0xx_hal_dma.c ****     {
 355:Drivers/STM32F0xx_HAL_Driver/Src/stm32f0xx_hal_dma.c ****       hdma->Instance->CCR |= (DMA_IT_TC | DMA_IT_HT | DMA_IT_TE);
 485              		.loc 1 355 11
 486 006a FB68     		ldr	r3, [r7, #12]
 487 006c 1B68     		ldr	r3, [r3]
 488              		.loc 1 355 27
 489 006e 1A68     		ldr	r2, [r3]
 490              		.loc 1 355 11
 491 0070 FB68     		ldr	r3, [r7, #12]
 492 0072 1B68     		ldr	r3, [r3]
 493              		.loc 1 355 27
 494 0074 0E21     		movs	r1, #14
 495 0076 0A43     		orrs	r2, r1
 496 0078 1A60     		str	r2, [r3]
 497 007a 0FE0     		b	.L19
 498              	.L18:
 356:Drivers/STM32F0xx_HAL_Driver/Src/stm32f0xx_hal_dma.c ****     }
 357:Drivers/STM32F0xx_HAL_Driver/Src/stm32f0xx_hal_dma.c ****     else
 358:Drivers/STM32F0xx_HAL_Driver/Src/stm32f0xx_hal_dma.c ****     {
 359:Drivers/STM32F0xx_HAL_Driver/Src/stm32f0xx_hal_dma.c ****       hdma->Instance->CCR |= (DMA_IT_TC | DMA_IT_TE);
 499              		.loc 1 359 11
ARM GAS  C:\Users\mason\AppData\Local\Temp\ccKXoFR7.s 			page 16


 500 007c FB68     		ldr	r3, [r7, #12]
 501 007e 1B68     		ldr	r3, [r3]
 502              		.loc 1 359 27
 503 0080 1A68     		ldr	r2, [r3]
 504              		.loc 1 359 11
 505 0082 FB68     		ldr	r3, [r7, #12]
 506 0084 1B68     		ldr	r3, [r3]
 507              		.loc 1 359 27
 508 0086 0A21     		movs	r1, #10
 509 0088 0A43     		orrs	r2, r1
 510 008a 1A60     		str	r2, [r3]
 360:Drivers/STM32F0xx_HAL_Driver/Src/stm32f0xx_hal_dma.c ****       hdma->Instance->CCR &= ~DMA_IT_HT;
 511              		.loc 1 360 11
 512 008c FB68     		ldr	r3, [r7, #12]
 513 008e 1B68     		ldr	r3, [r3]
 514              		.loc 1 360 27
 515 0090 1A68     		ldr	r2, [r3]
 516              		.loc 1 360 11
 517 0092 FB68     		ldr	r3, [r7, #12]
 518 0094 1B68     		ldr	r3, [r3]
 519              		.loc 1 360 27
 520 0096 0421     		movs	r1, #4
 521 0098 8A43     		bics	r2, r1
 522 009a 1A60     		str	r2, [r3]
 523              	.L19:
 361:Drivers/STM32F0xx_HAL_Driver/Src/stm32f0xx_hal_dma.c ****     }
 362:Drivers/STM32F0xx_HAL_Driver/Src/stm32f0xx_hal_dma.c **** 
 363:Drivers/STM32F0xx_HAL_Driver/Src/stm32f0xx_hal_dma.c ****     /* Enable the Peripheral */
 364:Drivers/STM32F0xx_HAL_Driver/Src/stm32f0xx_hal_dma.c ****     hdma->Instance->CCR |= DMA_CCR_EN;
 524              		.loc 1 364 9
 525 009c FB68     		ldr	r3, [r7, #12]
 526 009e 1B68     		ldr	r3, [r3]
 527              		.loc 1 364 25
 528 00a0 1A68     		ldr	r2, [r3]
 529              		.loc 1 364 9
 530 00a2 FB68     		ldr	r3, [r7, #12]
 531 00a4 1B68     		ldr	r3, [r3]
 532              		.loc 1 364 25
 533 00a6 0121     		movs	r1, #1
 534 00a8 0A43     		orrs	r2, r1
 535 00aa 1A60     		str	r2, [r3]
 536 00ac 07E0     		b	.L20
 537              	.L17:
 365:Drivers/STM32F0xx_HAL_Driver/Src/stm32f0xx_hal_dma.c ****   }
 366:Drivers/STM32F0xx_HAL_Driver/Src/stm32f0xx_hal_dma.c ****   else
 367:Drivers/STM32F0xx_HAL_Driver/Src/stm32f0xx_hal_dma.c ****   {
 368:Drivers/STM32F0xx_HAL_Driver/Src/stm32f0xx_hal_dma.c ****     /* Process Unlocked */
 369:Drivers/STM32F0xx_HAL_Driver/Src/stm32f0xx_hal_dma.c ****     __HAL_UNLOCK(hdma);
 538              		.loc 1 369 5
 539 00ae FB68     		ldr	r3, [r7, #12]
 540 00b0 2022     		movs	r2, #32
 541 00b2 0021     		movs	r1, #0
 542 00b4 9954     		strb	r1, [r3, r2]
 370:Drivers/STM32F0xx_HAL_Driver/Src/stm32f0xx_hal_dma.c **** 
 371:Drivers/STM32F0xx_HAL_Driver/Src/stm32f0xx_hal_dma.c ****     /* Remain BUSY */
 372:Drivers/STM32F0xx_HAL_Driver/Src/stm32f0xx_hal_dma.c ****     status = HAL_BUSY;
 543              		.loc 1 372 12
ARM GAS  C:\Users\mason\AppData\Local\Temp\ccKXoFR7.s 			page 17


 544 00b6 1723     		movs	r3, #23
 545 00b8 FB18     		adds	r3, r7, r3
 546 00ba 0222     		movs	r2, #2
 547 00bc 1A70     		strb	r2, [r3]
 548              	.L20:
 373:Drivers/STM32F0xx_HAL_Driver/Src/stm32f0xx_hal_dma.c ****   }
 374:Drivers/STM32F0xx_HAL_Driver/Src/stm32f0xx_hal_dma.c **** 
 375:Drivers/STM32F0xx_HAL_Driver/Src/stm32f0xx_hal_dma.c ****   return status;
 549              		.loc 1 375 10
 550 00be 1723     		movs	r3, #23
 551 00c0 FB18     		adds	r3, r7, r3
 552 00c2 1B78     		ldrb	r3, [r3]
 553              	.L16:
 376:Drivers/STM32F0xx_HAL_Driver/Src/stm32f0xx_hal_dma.c **** }
 554              		.loc 1 376 1
 555 00c4 1800     		movs	r0, r3
 556 00c6 BD46     		mov	sp, r7
 557 00c8 06B0     		add	sp, sp, #24
 558              		@ sp needed
 559 00ca 80BD     		pop	{r7, pc}
 560              		.cfi_endproc
 561              	.LFE43:
 563              		.section	.text.HAL_DMA_Abort,"ax",%progbits
 564              		.align	1
 565              		.global	HAL_DMA_Abort
 566              		.syntax unified
 567              		.code	16
 568              		.thumb_func
 570              	HAL_DMA_Abort:
 571              	.LFB44:
 377:Drivers/STM32F0xx_HAL_Driver/Src/stm32f0xx_hal_dma.c **** 
 378:Drivers/STM32F0xx_HAL_Driver/Src/stm32f0xx_hal_dma.c **** /**
 379:Drivers/STM32F0xx_HAL_Driver/Src/stm32f0xx_hal_dma.c ****   * @brief  Abort the DMA Transfer.
 380:Drivers/STM32F0xx_HAL_Driver/Src/stm32f0xx_hal_dma.c ****   * @param  hdma  pointer to a DMA_HandleTypeDef structure that contains
 381:Drivers/STM32F0xx_HAL_Driver/Src/stm32f0xx_hal_dma.c ****   *               the configuration information for the specified DMA Channel.
 382:Drivers/STM32F0xx_HAL_Driver/Src/stm32f0xx_hal_dma.c ****   * @retval HAL status
 383:Drivers/STM32F0xx_HAL_Driver/Src/stm32f0xx_hal_dma.c ****   */
 384:Drivers/STM32F0xx_HAL_Driver/Src/stm32f0xx_hal_dma.c **** HAL_StatusTypeDef HAL_DMA_Abort(DMA_HandleTypeDef *hdma)
 385:Drivers/STM32F0xx_HAL_Driver/Src/stm32f0xx_hal_dma.c **** {
 572              		.loc 1 385 1
 573              		.cfi_startproc
 574              		@ args = 0, pretend = 0, frame = 8
 575              		@ frame_needed = 1, uses_anonymous_args = 0
 576 0000 80B5     		push	{r7, lr}
 577              	.LCFI12:
 578              		.cfi_def_cfa_offset 8
 579              		.cfi_offset 7, -8
 580              		.cfi_offset 14, -4
 581 0002 82B0     		sub	sp, sp, #8
 582              	.LCFI13:
 583              		.cfi_def_cfa_offset 16
 584 0004 00AF     		add	r7, sp, #0
 585              	.LCFI14:
 586              		.cfi_def_cfa_register 7
 587 0006 7860     		str	r0, [r7, #4]
 386:Drivers/STM32F0xx_HAL_Driver/Src/stm32f0xx_hal_dma.c ****   if (hdma->State != HAL_DMA_STATE_BUSY)
 588              		.loc 1 386 11
ARM GAS  C:\Users\mason\AppData\Local\Temp\ccKXoFR7.s 			page 18


 589 0008 7B68     		ldr	r3, [r7, #4]
 590 000a 2122     		movs	r2, #33
 591 000c 9B5C     		ldrb	r3, [r3, r2]
 592 000e DBB2     		uxtb	r3, r3
 593              		.loc 1 386 6
 594 0010 022B     		cmp	r3, #2
 595 0012 08D0     		beq	.L22
 387:Drivers/STM32F0xx_HAL_Driver/Src/stm32f0xx_hal_dma.c ****   {
 388:Drivers/STM32F0xx_HAL_Driver/Src/stm32f0xx_hal_dma.c ****     /* no transfer ongoing */
 389:Drivers/STM32F0xx_HAL_Driver/Src/stm32f0xx_hal_dma.c ****     hdma->ErrorCode = HAL_DMA_ERROR_NO_XFER;
 596              		.loc 1 389 21
 597 0014 7B68     		ldr	r3, [r7, #4]
 598 0016 0422     		movs	r2, #4
 599 0018 9A63     		str	r2, [r3, #56]
 390:Drivers/STM32F0xx_HAL_Driver/Src/stm32f0xx_hal_dma.c **** 
 391:Drivers/STM32F0xx_HAL_Driver/Src/stm32f0xx_hal_dma.c ****     /* Process Unlocked */
 392:Drivers/STM32F0xx_HAL_Driver/Src/stm32f0xx_hal_dma.c ****     __HAL_UNLOCK(hdma);
 600              		.loc 1 392 5
 601 001a 7B68     		ldr	r3, [r7, #4]
 602 001c 2022     		movs	r2, #32
 603 001e 0021     		movs	r1, #0
 604 0020 9954     		strb	r1, [r3, r2]
 393:Drivers/STM32F0xx_HAL_Driver/Src/stm32f0xx_hal_dma.c **** 
 394:Drivers/STM32F0xx_HAL_Driver/Src/stm32f0xx_hal_dma.c ****     return HAL_ERROR;
 605              		.loc 1 394 12
 606 0022 0123     		movs	r3, #1
 607 0024 20E0     		b	.L23
 608              	.L22:
 395:Drivers/STM32F0xx_HAL_Driver/Src/stm32f0xx_hal_dma.c ****   }
 396:Drivers/STM32F0xx_HAL_Driver/Src/stm32f0xx_hal_dma.c ****   else
 397:Drivers/STM32F0xx_HAL_Driver/Src/stm32f0xx_hal_dma.c ****   {
 398:Drivers/STM32F0xx_HAL_Driver/Src/stm32f0xx_hal_dma.c ****     /* Disable DMA IT */
 399:Drivers/STM32F0xx_HAL_Driver/Src/stm32f0xx_hal_dma.c ****     hdma->Instance->CCR &= ~(DMA_IT_TC | DMA_IT_HT | DMA_IT_TE);
 609              		.loc 1 399 9
 610 0026 7B68     		ldr	r3, [r7, #4]
 611 0028 1B68     		ldr	r3, [r3]
 612              		.loc 1 399 25
 613 002a 1A68     		ldr	r2, [r3]
 614              		.loc 1 399 9
 615 002c 7B68     		ldr	r3, [r7, #4]
 616 002e 1B68     		ldr	r3, [r3]
 617              		.loc 1 399 25
 618 0030 0E21     		movs	r1, #14
 619 0032 8A43     		bics	r2, r1
 620 0034 1A60     		str	r2, [r3]
 400:Drivers/STM32F0xx_HAL_Driver/Src/stm32f0xx_hal_dma.c **** 
 401:Drivers/STM32F0xx_HAL_Driver/Src/stm32f0xx_hal_dma.c ****     /* Disable the channel */
 402:Drivers/STM32F0xx_HAL_Driver/Src/stm32f0xx_hal_dma.c ****     hdma->Instance->CCR &= ~DMA_CCR_EN;
 621              		.loc 1 402 9
 622 0036 7B68     		ldr	r3, [r7, #4]
 623 0038 1B68     		ldr	r3, [r3]
 624              		.loc 1 402 25
 625 003a 1A68     		ldr	r2, [r3]
 626              		.loc 1 402 9
 627 003c 7B68     		ldr	r3, [r7, #4]
 628 003e 1B68     		ldr	r3, [r3]
 629              		.loc 1 402 25
ARM GAS  C:\Users\mason\AppData\Local\Temp\ccKXoFR7.s 			page 19


 630 0040 0121     		movs	r1, #1
 631 0042 8A43     		bics	r2, r1
 632 0044 1A60     		str	r2, [r3]
 403:Drivers/STM32F0xx_HAL_Driver/Src/stm32f0xx_hal_dma.c **** 
 404:Drivers/STM32F0xx_HAL_Driver/Src/stm32f0xx_hal_dma.c ****     /* Clear all flags */
 405:Drivers/STM32F0xx_HAL_Driver/Src/stm32f0xx_hal_dma.c ****     hdma->DmaBaseAddress->IFCR = (DMA_FLAG_GL1 << hdma->ChannelIndex);
 633              		.loc 1 405 55
 634 0046 7B68     		ldr	r3, [r7, #4]
 635 0048 1A6C     		ldr	r2, [r3, #64]
 636              		.loc 1 405 9
 637 004a 7B68     		ldr	r3, [r7, #4]
 638 004c DB6B     		ldr	r3, [r3, #60]
 639              		.loc 1 405 48
 640 004e 0121     		movs	r1, #1
 641 0050 9140     		lsls	r1, r1, r2
 642 0052 0A00     		movs	r2, r1
 643              		.loc 1 405 32
 644 0054 5A60     		str	r2, [r3, #4]
 406:Drivers/STM32F0xx_HAL_Driver/Src/stm32f0xx_hal_dma.c ****   }
 407:Drivers/STM32F0xx_HAL_Driver/Src/stm32f0xx_hal_dma.c ****   /* Change the DMA state*/
 408:Drivers/STM32F0xx_HAL_Driver/Src/stm32f0xx_hal_dma.c ****   hdma->State = HAL_DMA_STATE_READY;
 645              		.loc 1 408 15
 646 0056 7B68     		ldr	r3, [r7, #4]
 647 0058 2122     		movs	r2, #33
 648 005a 0121     		movs	r1, #1
 649 005c 9954     		strb	r1, [r3, r2]
 409:Drivers/STM32F0xx_HAL_Driver/Src/stm32f0xx_hal_dma.c **** 
 410:Drivers/STM32F0xx_HAL_Driver/Src/stm32f0xx_hal_dma.c ****   /* Process Unlocked */
 411:Drivers/STM32F0xx_HAL_Driver/Src/stm32f0xx_hal_dma.c ****   __HAL_UNLOCK(hdma);
 650              		.loc 1 411 3
 651 005e 7B68     		ldr	r3, [r7, #4]
 652 0060 2022     		movs	r2, #32
 653 0062 0021     		movs	r1, #0
 654 0064 9954     		strb	r1, [r3, r2]
 412:Drivers/STM32F0xx_HAL_Driver/Src/stm32f0xx_hal_dma.c **** 
 413:Drivers/STM32F0xx_HAL_Driver/Src/stm32f0xx_hal_dma.c ****   return HAL_OK;
 655              		.loc 1 413 10
 656 0066 0023     		movs	r3, #0
 657              	.L23:
 414:Drivers/STM32F0xx_HAL_Driver/Src/stm32f0xx_hal_dma.c **** }
 658              		.loc 1 414 1
 659 0068 1800     		movs	r0, r3
 660 006a BD46     		mov	sp, r7
 661 006c 02B0     		add	sp, sp, #8
 662              		@ sp needed
 663 006e 80BD     		pop	{r7, pc}
 664              		.cfi_endproc
 665              	.LFE44:
 667              		.section	.text.HAL_DMA_Abort_IT,"ax",%progbits
 668              		.align	1
 669              		.global	HAL_DMA_Abort_IT
 670              		.syntax unified
 671              		.code	16
 672              		.thumb_func
 674              	HAL_DMA_Abort_IT:
 675              	.LFB45:
 415:Drivers/STM32F0xx_HAL_Driver/Src/stm32f0xx_hal_dma.c **** 
ARM GAS  C:\Users\mason\AppData\Local\Temp\ccKXoFR7.s 			page 20


 416:Drivers/STM32F0xx_HAL_Driver/Src/stm32f0xx_hal_dma.c **** /**
 417:Drivers/STM32F0xx_HAL_Driver/Src/stm32f0xx_hal_dma.c ****   * @brief  Abort the DMA Transfer in Interrupt mode.
 418:Drivers/STM32F0xx_HAL_Driver/Src/stm32f0xx_hal_dma.c ****   * @param  hdma  pointer to a DMA_HandleTypeDef structure that contains
 419:Drivers/STM32F0xx_HAL_Driver/Src/stm32f0xx_hal_dma.c ****   *               the configuration information for the specified DMA Stream.
 420:Drivers/STM32F0xx_HAL_Driver/Src/stm32f0xx_hal_dma.c ****   * @retval HAL status
 421:Drivers/STM32F0xx_HAL_Driver/Src/stm32f0xx_hal_dma.c ****   */
 422:Drivers/STM32F0xx_HAL_Driver/Src/stm32f0xx_hal_dma.c **** HAL_StatusTypeDef HAL_DMA_Abort_IT(DMA_HandleTypeDef *hdma)
 423:Drivers/STM32F0xx_HAL_Driver/Src/stm32f0xx_hal_dma.c **** {
 676              		.loc 1 423 1
 677              		.cfi_startproc
 678              		@ args = 0, pretend = 0, frame = 16
 679              		@ frame_needed = 1, uses_anonymous_args = 0
 680 0000 80B5     		push	{r7, lr}
 681              	.LCFI15:
 682              		.cfi_def_cfa_offset 8
 683              		.cfi_offset 7, -8
 684              		.cfi_offset 14, -4
 685 0002 84B0     		sub	sp, sp, #16
 686              	.LCFI16:
 687              		.cfi_def_cfa_offset 24
 688 0004 00AF     		add	r7, sp, #0
 689              	.LCFI17:
 690              		.cfi_def_cfa_register 7
 691 0006 7860     		str	r0, [r7, #4]
 424:Drivers/STM32F0xx_HAL_Driver/Src/stm32f0xx_hal_dma.c ****   HAL_StatusTypeDef status = HAL_OK;
 692              		.loc 1 424 21
 693 0008 0F21     		movs	r1, #15
 694 000a 7B18     		adds	r3, r7, r1
 695 000c 0022     		movs	r2, #0
 696 000e 1A70     		strb	r2, [r3]
 425:Drivers/STM32F0xx_HAL_Driver/Src/stm32f0xx_hal_dma.c **** 
 426:Drivers/STM32F0xx_HAL_Driver/Src/stm32f0xx_hal_dma.c ****   if (HAL_DMA_STATE_BUSY != hdma->State)
 697              		.loc 1 426 33
 698 0010 7B68     		ldr	r3, [r7, #4]
 699 0012 2122     		movs	r2, #33
 700 0014 9B5C     		ldrb	r3, [r3, r2]
 701 0016 DBB2     		uxtb	r3, r3
 702              		.loc 1 426 6
 703 0018 022B     		cmp	r3, #2
 704 001a 06D0     		beq	.L25
 427:Drivers/STM32F0xx_HAL_Driver/Src/stm32f0xx_hal_dma.c ****   {
 428:Drivers/STM32F0xx_HAL_Driver/Src/stm32f0xx_hal_dma.c ****     /* no transfer ongoing */
 429:Drivers/STM32F0xx_HAL_Driver/Src/stm32f0xx_hal_dma.c ****     hdma->ErrorCode = HAL_DMA_ERROR_NO_XFER;
 705              		.loc 1 429 21
 706 001c 7B68     		ldr	r3, [r7, #4]
 707 001e 0422     		movs	r2, #4
 708 0020 9A63     		str	r2, [r3, #56]
 430:Drivers/STM32F0xx_HAL_Driver/Src/stm32f0xx_hal_dma.c **** 
 431:Drivers/STM32F0xx_HAL_Driver/Src/stm32f0xx_hal_dma.c ****     status = HAL_ERROR;
 709              		.loc 1 431 12
 710 0022 7B18     		adds	r3, r7, r1
 711 0024 0122     		movs	r2, #1
 712 0026 1A70     		strb	r2, [r3]
 713 0028 28E0     		b	.L26
 714              	.L25:
 432:Drivers/STM32F0xx_HAL_Driver/Src/stm32f0xx_hal_dma.c ****   }
 433:Drivers/STM32F0xx_HAL_Driver/Src/stm32f0xx_hal_dma.c ****   else
ARM GAS  C:\Users\mason\AppData\Local\Temp\ccKXoFR7.s 			page 21


 434:Drivers/STM32F0xx_HAL_Driver/Src/stm32f0xx_hal_dma.c ****   {
 435:Drivers/STM32F0xx_HAL_Driver/Src/stm32f0xx_hal_dma.c **** 
 436:Drivers/STM32F0xx_HAL_Driver/Src/stm32f0xx_hal_dma.c ****     /* Disable DMA IT */
 437:Drivers/STM32F0xx_HAL_Driver/Src/stm32f0xx_hal_dma.c ****     hdma->Instance->CCR &= ~(DMA_IT_TC | DMA_IT_HT | DMA_IT_TE);
 715              		.loc 1 437 9
 716 002a 7B68     		ldr	r3, [r7, #4]
 717 002c 1B68     		ldr	r3, [r3]
 718              		.loc 1 437 25
 719 002e 1A68     		ldr	r2, [r3]
 720              		.loc 1 437 9
 721 0030 7B68     		ldr	r3, [r7, #4]
 722 0032 1B68     		ldr	r3, [r3]
 723              		.loc 1 437 25
 724 0034 0E21     		movs	r1, #14
 725 0036 8A43     		bics	r2, r1
 726 0038 1A60     		str	r2, [r3]
 438:Drivers/STM32F0xx_HAL_Driver/Src/stm32f0xx_hal_dma.c **** 
 439:Drivers/STM32F0xx_HAL_Driver/Src/stm32f0xx_hal_dma.c ****     /* Disable the channel */
 440:Drivers/STM32F0xx_HAL_Driver/Src/stm32f0xx_hal_dma.c ****     hdma->Instance->CCR &= ~DMA_CCR_EN;
 727              		.loc 1 440 9
 728 003a 7B68     		ldr	r3, [r7, #4]
 729 003c 1B68     		ldr	r3, [r3]
 730              		.loc 1 440 25
 731 003e 1A68     		ldr	r2, [r3]
 732              		.loc 1 440 9
 733 0040 7B68     		ldr	r3, [r7, #4]
 734 0042 1B68     		ldr	r3, [r3]
 735              		.loc 1 440 25
 736 0044 0121     		movs	r1, #1
 737 0046 8A43     		bics	r2, r1
 738 0048 1A60     		str	r2, [r3]
 441:Drivers/STM32F0xx_HAL_Driver/Src/stm32f0xx_hal_dma.c **** 
 442:Drivers/STM32F0xx_HAL_Driver/Src/stm32f0xx_hal_dma.c ****     /* Clear all flags */
 443:Drivers/STM32F0xx_HAL_Driver/Src/stm32f0xx_hal_dma.c ****     hdma->DmaBaseAddress->IFCR = DMA_FLAG_GL1 << hdma->ChannelIndex;
 739              		.loc 1 443 54
 740 004a 7B68     		ldr	r3, [r7, #4]
 741 004c 1A6C     		ldr	r2, [r3, #64]
 742              		.loc 1 443 9
 743 004e 7B68     		ldr	r3, [r7, #4]
 744 0050 DB6B     		ldr	r3, [r3, #60]
 745              		.loc 1 443 47
 746 0052 0121     		movs	r1, #1
 747 0054 9140     		lsls	r1, r1, r2
 748 0056 0A00     		movs	r2, r1
 749              		.loc 1 443 32
 750 0058 5A60     		str	r2, [r3, #4]
 444:Drivers/STM32F0xx_HAL_Driver/Src/stm32f0xx_hal_dma.c **** 
 445:Drivers/STM32F0xx_HAL_Driver/Src/stm32f0xx_hal_dma.c ****     /* Change the DMA state */
 446:Drivers/STM32F0xx_HAL_Driver/Src/stm32f0xx_hal_dma.c ****     hdma->State = HAL_DMA_STATE_READY;
 751              		.loc 1 446 17
 752 005a 7B68     		ldr	r3, [r7, #4]
 753 005c 2122     		movs	r2, #33
 754 005e 0121     		movs	r1, #1
 755 0060 9954     		strb	r1, [r3, r2]
 447:Drivers/STM32F0xx_HAL_Driver/Src/stm32f0xx_hal_dma.c **** 
 448:Drivers/STM32F0xx_HAL_Driver/Src/stm32f0xx_hal_dma.c ****     /* Process Unlocked */
 449:Drivers/STM32F0xx_HAL_Driver/Src/stm32f0xx_hal_dma.c ****     __HAL_UNLOCK(hdma);
ARM GAS  C:\Users\mason\AppData\Local\Temp\ccKXoFR7.s 			page 22


 756              		.loc 1 449 5
 757 0062 7B68     		ldr	r3, [r7, #4]
 758 0064 2022     		movs	r2, #32
 759 0066 0021     		movs	r1, #0
 760 0068 9954     		strb	r1, [r3, r2]
 450:Drivers/STM32F0xx_HAL_Driver/Src/stm32f0xx_hal_dma.c **** 
 451:Drivers/STM32F0xx_HAL_Driver/Src/stm32f0xx_hal_dma.c ****     /* Call User Abort callback */
 452:Drivers/STM32F0xx_HAL_Driver/Src/stm32f0xx_hal_dma.c ****     if (hdma->XferAbortCallback != NULL)
 761              		.loc 1 452 13
 762 006a 7B68     		ldr	r3, [r7, #4]
 763 006c 5B6B     		ldr	r3, [r3, #52]
 764              		.loc 1 452 8
 765 006e 002B     		cmp	r3, #0
 766 0070 04D0     		beq	.L26
 453:Drivers/STM32F0xx_HAL_Driver/Src/stm32f0xx_hal_dma.c ****     {
 454:Drivers/STM32F0xx_HAL_Driver/Src/stm32f0xx_hal_dma.c ****       hdma->XferAbortCallback(hdma);
 767              		.loc 1 454 11
 768 0072 7B68     		ldr	r3, [r7, #4]
 769 0074 5B6B     		ldr	r3, [r3, #52]
 770              		.loc 1 454 7
 771 0076 7A68     		ldr	r2, [r7, #4]
 772 0078 1000     		movs	r0, r2
 773 007a 9847     		blx	r3
 774              	.LVL0:
 775              	.L26:
 455:Drivers/STM32F0xx_HAL_Driver/Src/stm32f0xx_hal_dma.c ****     }
 456:Drivers/STM32F0xx_HAL_Driver/Src/stm32f0xx_hal_dma.c ****   }
 457:Drivers/STM32F0xx_HAL_Driver/Src/stm32f0xx_hal_dma.c ****   return status;
 776              		.loc 1 457 10
 777 007c 0F23     		movs	r3, #15
 778 007e FB18     		adds	r3, r7, r3
 779 0080 1B78     		ldrb	r3, [r3]
 458:Drivers/STM32F0xx_HAL_Driver/Src/stm32f0xx_hal_dma.c **** }
 780              		.loc 1 458 1
 781 0082 1800     		movs	r0, r3
 782 0084 BD46     		mov	sp, r7
 783 0086 04B0     		add	sp, sp, #16
 784              		@ sp needed
 785 0088 80BD     		pop	{r7, pc}
 786              		.cfi_endproc
 787              	.LFE45:
 789              		.section	.text.HAL_DMA_PollForTransfer,"ax",%progbits
 790              		.align	1
 791              		.global	HAL_DMA_PollForTransfer
 792              		.syntax unified
 793              		.code	16
 794              		.thumb_func
 796              	HAL_DMA_PollForTransfer:
 797              	.LFB46:
 459:Drivers/STM32F0xx_HAL_Driver/Src/stm32f0xx_hal_dma.c **** 
 460:Drivers/STM32F0xx_HAL_Driver/Src/stm32f0xx_hal_dma.c **** /**
 461:Drivers/STM32F0xx_HAL_Driver/Src/stm32f0xx_hal_dma.c ****   * @brief  Polling for transfer complete.
 462:Drivers/STM32F0xx_HAL_Driver/Src/stm32f0xx_hal_dma.c ****   * @param  hdma    pointer to a DMA_HandleTypeDef structure that contains
 463:Drivers/STM32F0xx_HAL_Driver/Src/stm32f0xx_hal_dma.c ****   *                  the configuration information for the specified DMA Channel.
 464:Drivers/STM32F0xx_HAL_Driver/Src/stm32f0xx_hal_dma.c ****   * @param  CompleteLevel Specifies the DMA level complete.
 465:Drivers/STM32F0xx_HAL_Driver/Src/stm32f0xx_hal_dma.c ****   * @param  Timeout       Timeout duration.
 466:Drivers/STM32F0xx_HAL_Driver/Src/stm32f0xx_hal_dma.c ****   * @retval HAL status
ARM GAS  C:\Users\mason\AppData\Local\Temp\ccKXoFR7.s 			page 23


 467:Drivers/STM32F0xx_HAL_Driver/Src/stm32f0xx_hal_dma.c ****   */
 468:Drivers/STM32F0xx_HAL_Driver/Src/stm32f0xx_hal_dma.c **** HAL_StatusTypeDef HAL_DMA_PollForTransfer(DMA_HandleTypeDef *hdma, uint32_t CompleteLevel, uint32_t
 469:Drivers/STM32F0xx_HAL_Driver/Src/stm32f0xx_hal_dma.c **** {
 798              		.loc 1 469 1
 799              		.cfi_startproc
 800              		@ args = 0, pretend = 0, frame = 24
 801              		@ frame_needed = 1, uses_anonymous_args = 0
 802 0000 80B5     		push	{r7, lr}
 803              	.LCFI18:
 804              		.cfi_def_cfa_offset 8
 805              		.cfi_offset 7, -8
 806              		.cfi_offset 14, -4
 807 0002 86B0     		sub	sp, sp, #24
 808              	.LCFI19:
 809              		.cfi_def_cfa_offset 32
 810 0004 00AF     		add	r7, sp, #0
 811              	.LCFI20:
 812              		.cfi_def_cfa_register 7
 813 0006 F860     		str	r0, [r7, #12]
 814 0008 B960     		str	r1, [r7, #8]
 815 000a 7A60     		str	r2, [r7, #4]
 470:Drivers/STM32F0xx_HAL_Driver/Src/stm32f0xx_hal_dma.c ****   uint32_t temp;
 471:Drivers/STM32F0xx_HAL_Driver/Src/stm32f0xx_hal_dma.c ****   uint32_t tickstart = 0U;
 816              		.loc 1 471 12
 817 000c 0023     		movs	r3, #0
 818 000e 3B61     		str	r3, [r7, #16]
 472:Drivers/STM32F0xx_HAL_Driver/Src/stm32f0xx_hal_dma.c **** 
 473:Drivers/STM32F0xx_HAL_Driver/Src/stm32f0xx_hal_dma.c ****   if (HAL_DMA_STATE_BUSY != hdma->State)
 819              		.loc 1 473 33
 820 0010 FB68     		ldr	r3, [r7, #12]
 821 0012 2122     		movs	r2, #33
 822 0014 9B5C     		ldrb	r3, [r3, r2]
 823 0016 DBB2     		uxtb	r3, r3
 824              		.loc 1 473 6
 825 0018 022B     		cmp	r3, #2
 826 001a 08D0     		beq	.L29
 474:Drivers/STM32F0xx_HAL_Driver/Src/stm32f0xx_hal_dma.c ****   {
 475:Drivers/STM32F0xx_HAL_Driver/Src/stm32f0xx_hal_dma.c ****     /* no transfer ongoing */
 476:Drivers/STM32F0xx_HAL_Driver/Src/stm32f0xx_hal_dma.c ****     hdma->ErrorCode = HAL_DMA_ERROR_NO_XFER;
 827              		.loc 1 476 21
 828 001c FB68     		ldr	r3, [r7, #12]
 829 001e 0422     		movs	r2, #4
 830 0020 9A63     		str	r2, [r3, #56]
 477:Drivers/STM32F0xx_HAL_Driver/Src/stm32f0xx_hal_dma.c ****     __HAL_UNLOCK(hdma);
 831              		.loc 1 477 5
 832 0022 FB68     		ldr	r3, [r7, #12]
 833 0024 2022     		movs	r2, #32
 834 0026 0021     		movs	r1, #0
 835 0028 9954     		strb	r1, [r3, r2]
 478:Drivers/STM32F0xx_HAL_Driver/Src/stm32f0xx_hal_dma.c ****     return HAL_ERROR;
 836              		.loc 1 478 12
 837 002a 0123     		movs	r3, #1
 838 002c 7DE0     		b	.L30
 839              	.L29:
 479:Drivers/STM32F0xx_HAL_Driver/Src/stm32f0xx_hal_dma.c ****   }
 480:Drivers/STM32F0xx_HAL_Driver/Src/stm32f0xx_hal_dma.c **** 
 481:Drivers/STM32F0xx_HAL_Driver/Src/stm32f0xx_hal_dma.c ****   /* Polling mode not supported in circular mode */
ARM GAS  C:\Users\mason\AppData\Local\Temp\ccKXoFR7.s 			page 24


 482:Drivers/STM32F0xx_HAL_Driver/Src/stm32f0xx_hal_dma.c ****   if (RESET != (hdma->Instance->CCR & DMA_CCR_CIRC))
 840              		.loc 1 482 21
 841 002e FB68     		ldr	r3, [r7, #12]
 842 0030 1B68     		ldr	r3, [r3]
 843              		.loc 1 482 31
 844 0032 1B68     		ldr	r3, [r3]
 845              		.loc 1 482 37
 846 0034 2022     		movs	r2, #32
 847 0036 1340     		ands	r3, r2
 848              		.loc 1 482 6
 849 0038 05D0     		beq	.L31
 483:Drivers/STM32F0xx_HAL_Driver/Src/stm32f0xx_hal_dma.c ****   {
 484:Drivers/STM32F0xx_HAL_Driver/Src/stm32f0xx_hal_dma.c ****     hdma->ErrorCode = HAL_DMA_ERROR_NOT_SUPPORTED;
 850              		.loc 1 484 21
 851 003a FB68     		ldr	r3, [r7, #12]
 852 003c 8022     		movs	r2, #128
 853 003e 5200     		lsls	r2, r2, #1
 854 0040 9A63     		str	r2, [r3, #56]
 485:Drivers/STM32F0xx_HAL_Driver/Src/stm32f0xx_hal_dma.c ****     return HAL_ERROR;
 855              		.loc 1 485 12
 856 0042 0123     		movs	r3, #1
 857 0044 71E0     		b	.L30
 858              	.L31:
 486:Drivers/STM32F0xx_HAL_Driver/Src/stm32f0xx_hal_dma.c ****   }
 487:Drivers/STM32F0xx_HAL_Driver/Src/stm32f0xx_hal_dma.c **** 
 488:Drivers/STM32F0xx_HAL_Driver/Src/stm32f0xx_hal_dma.c ****   /* Get the level transfer complete flag */
 489:Drivers/STM32F0xx_HAL_Driver/Src/stm32f0xx_hal_dma.c ****   if (HAL_DMA_FULL_TRANSFER == CompleteLevel)
 859              		.loc 1 489 6
 860 0046 BB68     		ldr	r3, [r7, #8]
 861 0048 002B     		cmp	r3, #0
 862 004a 06D1     		bne	.L32
 490:Drivers/STM32F0xx_HAL_Driver/Src/stm32f0xx_hal_dma.c ****   {
 491:Drivers/STM32F0xx_HAL_Driver/Src/stm32f0xx_hal_dma.c ****     /* Transfer Complete flag */
 492:Drivers/STM32F0xx_HAL_Driver/Src/stm32f0xx_hal_dma.c ****     temp = DMA_FLAG_TC1 << hdma->ChannelIndex;
 863              		.loc 1 492 32
 864 004c FB68     		ldr	r3, [r7, #12]
 865 004e 1B6C     		ldr	r3, [r3, #64]
 866              		.loc 1 492 10
 867 0050 0222     		movs	r2, #2
 868 0052 9A40     		lsls	r2, r2, r3
 869 0054 1300     		movs	r3, r2
 870 0056 7B61     		str	r3, [r7, #20]
 871 0058 05E0     		b	.L33
 872              	.L32:
 493:Drivers/STM32F0xx_HAL_Driver/Src/stm32f0xx_hal_dma.c ****   }
 494:Drivers/STM32F0xx_HAL_Driver/Src/stm32f0xx_hal_dma.c ****   else
 495:Drivers/STM32F0xx_HAL_Driver/Src/stm32f0xx_hal_dma.c ****   {
 496:Drivers/STM32F0xx_HAL_Driver/Src/stm32f0xx_hal_dma.c ****     /* Half Transfer Complete flag */
 497:Drivers/STM32F0xx_HAL_Driver/Src/stm32f0xx_hal_dma.c ****     temp = DMA_FLAG_HT1 << hdma->ChannelIndex;
 873              		.loc 1 497 32
 874 005a FB68     		ldr	r3, [r7, #12]
 875 005c 1B6C     		ldr	r3, [r3, #64]
 876              		.loc 1 497 10
 877 005e 0422     		movs	r2, #4
 878 0060 9A40     		lsls	r2, r2, r3
 879 0062 1300     		movs	r3, r2
 880 0064 7B61     		str	r3, [r7, #20]
ARM GAS  C:\Users\mason\AppData\Local\Temp\ccKXoFR7.s 			page 25


 881              	.L33:
 498:Drivers/STM32F0xx_HAL_Driver/Src/stm32f0xx_hal_dma.c ****   }
 499:Drivers/STM32F0xx_HAL_Driver/Src/stm32f0xx_hal_dma.c **** 
 500:Drivers/STM32F0xx_HAL_Driver/Src/stm32f0xx_hal_dma.c ****   /* Get tick */
 501:Drivers/STM32F0xx_HAL_Driver/Src/stm32f0xx_hal_dma.c ****   tickstart = HAL_GetTick();
 882              		.loc 1 501 15
 883 0066 FFF7FEFF 		bl	HAL_GetTick
 884 006a 0300     		movs	r3, r0
 885 006c 3B61     		str	r3, [r7, #16]
 502:Drivers/STM32F0xx_HAL_Driver/Src/stm32f0xx_hal_dma.c **** 
 503:Drivers/STM32F0xx_HAL_Driver/Src/stm32f0xx_hal_dma.c ****   while (RESET == (hdma->DmaBaseAddress->ISR & temp))
 886              		.loc 1 503 9
 887 006e 39E0     		b	.L34
 888              	.L37:
 504:Drivers/STM32F0xx_HAL_Driver/Src/stm32f0xx_hal_dma.c ****   {
 505:Drivers/STM32F0xx_HAL_Driver/Src/stm32f0xx_hal_dma.c ****     if (RESET != (hdma->DmaBaseAddress->ISR & (DMA_FLAG_TE1 << hdma->ChannelIndex)))
 889              		.loc 1 505 23
 890 0070 FB68     		ldr	r3, [r7, #12]
 891 0072 DB6B     		ldr	r3, [r3, #60]
 892              		.loc 1 505 39
 893 0074 1A68     		ldr	r2, [r3]
 894              		.loc 1 505 68
 895 0076 FB68     		ldr	r3, [r7, #12]
 896 0078 1B6C     		ldr	r3, [r3, #64]
 897              		.loc 1 505 61
 898 007a 0821     		movs	r1, #8
 899 007c 9940     		lsls	r1, r1, r3
 900 007e 0B00     		movs	r3, r1
 901              		.loc 1 505 45
 902 0080 1340     		ands	r3, r2
 903              		.loc 1 505 8
 904 0082 14D0     		beq	.L35
 506:Drivers/STM32F0xx_HAL_Driver/Src/stm32f0xx_hal_dma.c ****     {
 507:Drivers/STM32F0xx_HAL_Driver/Src/stm32f0xx_hal_dma.c ****       /* When a DMA transfer error occurs */
 508:Drivers/STM32F0xx_HAL_Driver/Src/stm32f0xx_hal_dma.c ****       /* A hardware clear of its EN bits is performed */
 509:Drivers/STM32F0xx_HAL_Driver/Src/stm32f0xx_hal_dma.c ****       /* Clear all flags */
 510:Drivers/STM32F0xx_HAL_Driver/Src/stm32f0xx_hal_dma.c ****       hdma->DmaBaseAddress->IFCR = DMA_FLAG_GL1 << hdma->ChannelIndex;
 905              		.loc 1 510 56
 906 0084 FB68     		ldr	r3, [r7, #12]
 907 0086 1A6C     		ldr	r2, [r3, #64]
 908              		.loc 1 510 11
 909 0088 FB68     		ldr	r3, [r7, #12]
 910 008a DB6B     		ldr	r3, [r3, #60]
 911              		.loc 1 510 49
 912 008c 0121     		movs	r1, #1
 913 008e 9140     		lsls	r1, r1, r2
 914 0090 0A00     		movs	r2, r1
 915              		.loc 1 510 34
 916 0092 5A60     		str	r2, [r3, #4]
 511:Drivers/STM32F0xx_HAL_Driver/Src/stm32f0xx_hal_dma.c **** 
 512:Drivers/STM32F0xx_HAL_Driver/Src/stm32f0xx_hal_dma.c ****       /* Update error code */
 513:Drivers/STM32F0xx_HAL_Driver/Src/stm32f0xx_hal_dma.c ****       hdma->ErrorCode = HAL_DMA_ERROR_TE;
 917              		.loc 1 513 23
 918 0094 FB68     		ldr	r3, [r7, #12]
 919 0096 0122     		movs	r2, #1
 920 0098 9A63     		str	r2, [r3, #56]
 514:Drivers/STM32F0xx_HAL_Driver/Src/stm32f0xx_hal_dma.c **** 
ARM GAS  C:\Users\mason\AppData\Local\Temp\ccKXoFR7.s 			page 26


 515:Drivers/STM32F0xx_HAL_Driver/Src/stm32f0xx_hal_dma.c ****       /* Change the DMA state */
 516:Drivers/STM32F0xx_HAL_Driver/Src/stm32f0xx_hal_dma.c ****       hdma->State = HAL_DMA_STATE_READY;
 921              		.loc 1 516 19
 922 009a FB68     		ldr	r3, [r7, #12]
 923 009c 2122     		movs	r2, #33
 924 009e 0121     		movs	r1, #1
 925 00a0 9954     		strb	r1, [r3, r2]
 517:Drivers/STM32F0xx_HAL_Driver/Src/stm32f0xx_hal_dma.c **** 
 518:Drivers/STM32F0xx_HAL_Driver/Src/stm32f0xx_hal_dma.c ****       /* Process Unlocked */
 519:Drivers/STM32F0xx_HAL_Driver/Src/stm32f0xx_hal_dma.c ****       __HAL_UNLOCK(hdma);
 926              		.loc 1 519 7
 927 00a2 FB68     		ldr	r3, [r7, #12]
 928 00a4 2022     		movs	r2, #32
 929 00a6 0021     		movs	r1, #0
 930 00a8 9954     		strb	r1, [r3, r2]
 520:Drivers/STM32F0xx_HAL_Driver/Src/stm32f0xx_hal_dma.c **** 
 521:Drivers/STM32F0xx_HAL_Driver/Src/stm32f0xx_hal_dma.c ****       return HAL_ERROR;
 931              		.loc 1 521 14
 932 00aa 0123     		movs	r3, #1
 933 00ac 3DE0     		b	.L30
 934              	.L35:
 522:Drivers/STM32F0xx_HAL_Driver/Src/stm32f0xx_hal_dma.c ****     }
 523:Drivers/STM32F0xx_HAL_Driver/Src/stm32f0xx_hal_dma.c ****     /* Check for the Timeout */
 524:Drivers/STM32F0xx_HAL_Driver/Src/stm32f0xx_hal_dma.c ****     if (Timeout != HAL_MAX_DELAY)
 935              		.loc 1 524 8
 936 00ae 7B68     		ldr	r3, [r7, #4]
 937 00b0 0133     		adds	r3, r3, #1
 938 00b2 17D0     		beq	.L34
 525:Drivers/STM32F0xx_HAL_Driver/Src/stm32f0xx_hal_dma.c ****     {
 526:Drivers/STM32F0xx_HAL_Driver/Src/stm32f0xx_hal_dma.c ****       if ((Timeout == 0U) || ((HAL_GetTick() - tickstart) > Timeout))
 939              		.loc 1 526 10
 940 00b4 7B68     		ldr	r3, [r7, #4]
 941 00b6 002B     		cmp	r3, #0
 942 00b8 07D0     		beq	.L36
 943              		.loc 1 526 32 discriminator 1
 944 00ba FFF7FEFF 		bl	HAL_GetTick
 945 00be 0200     		movs	r2, r0
 946              		.loc 1 526 46 discriminator 1
 947 00c0 3B69     		ldr	r3, [r7, #16]
 948 00c2 D31A     		subs	r3, r2, r3
 949              		.loc 1 526 27 discriminator 1
 950 00c4 7A68     		ldr	r2, [r7, #4]
 951 00c6 9A42     		cmp	r2, r3
 952 00c8 0CD2     		bcs	.L34
 953              	.L36:
 527:Drivers/STM32F0xx_HAL_Driver/Src/stm32f0xx_hal_dma.c ****       {
 528:Drivers/STM32F0xx_HAL_Driver/Src/stm32f0xx_hal_dma.c ****         /* Update error code */
 529:Drivers/STM32F0xx_HAL_Driver/Src/stm32f0xx_hal_dma.c ****         hdma->ErrorCode = HAL_DMA_ERROR_TIMEOUT;
 954              		.loc 1 529 25
 955 00ca FB68     		ldr	r3, [r7, #12]
 956 00cc 2022     		movs	r2, #32
 957 00ce 9A63     		str	r2, [r3, #56]
 530:Drivers/STM32F0xx_HAL_Driver/Src/stm32f0xx_hal_dma.c **** 
 531:Drivers/STM32F0xx_HAL_Driver/Src/stm32f0xx_hal_dma.c ****         /* Change the DMA state */
 532:Drivers/STM32F0xx_HAL_Driver/Src/stm32f0xx_hal_dma.c ****         hdma->State = HAL_DMA_STATE_READY;
 958              		.loc 1 532 21
 959 00d0 FB68     		ldr	r3, [r7, #12]
ARM GAS  C:\Users\mason\AppData\Local\Temp\ccKXoFR7.s 			page 27


 960 00d2 2122     		movs	r2, #33
 961 00d4 0121     		movs	r1, #1
 962 00d6 9954     		strb	r1, [r3, r2]
 533:Drivers/STM32F0xx_HAL_Driver/Src/stm32f0xx_hal_dma.c **** 
 534:Drivers/STM32F0xx_HAL_Driver/Src/stm32f0xx_hal_dma.c ****         /* Process Unlocked */
 535:Drivers/STM32F0xx_HAL_Driver/Src/stm32f0xx_hal_dma.c ****         __HAL_UNLOCK(hdma);
 963              		.loc 1 535 9
 964 00d8 FB68     		ldr	r3, [r7, #12]
 965 00da 2022     		movs	r2, #32
 966 00dc 0021     		movs	r1, #0
 967 00de 9954     		strb	r1, [r3, r2]
 536:Drivers/STM32F0xx_HAL_Driver/Src/stm32f0xx_hal_dma.c **** 
 537:Drivers/STM32F0xx_HAL_Driver/Src/stm32f0xx_hal_dma.c ****         return HAL_ERROR;
 968              		.loc 1 537 16
 969 00e0 0123     		movs	r3, #1
 970 00e2 22E0     		b	.L30
 971              	.L34:
 503:Drivers/STM32F0xx_HAL_Driver/Src/stm32f0xx_hal_dma.c ****   {
 972              		.loc 1 503 24
 973 00e4 FB68     		ldr	r3, [r7, #12]
 974 00e6 DB6B     		ldr	r3, [r3, #60]
 503:Drivers/STM32F0xx_HAL_Driver/Src/stm32f0xx_hal_dma.c ****   {
 975              		.loc 1 503 40
 976 00e8 1B68     		ldr	r3, [r3]
 503:Drivers/STM32F0xx_HAL_Driver/Src/stm32f0xx_hal_dma.c ****   {
 977              		.loc 1 503 46
 978 00ea 7A69     		ldr	r2, [r7, #20]
 979 00ec 1340     		ands	r3, r2
 503:Drivers/STM32F0xx_HAL_Driver/Src/stm32f0xx_hal_dma.c ****   {
 980              		.loc 1 503 9
 981 00ee BFD0     		beq	.L37
 538:Drivers/STM32F0xx_HAL_Driver/Src/stm32f0xx_hal_dma.c ****       }
 539:Drivers/STM32F0xx_HAL_Driver/Src/stm32f0xx_hal_dma.c ****     }
 540:Drivers/STM32F0xx_HAL_Driver/Src/stm32f0xx_hal_dma.c ****   }
 541:Drivers/STM32F0xx_HAL_Driver/Src/stm32f0xx_hal_dma.c **** 
 542:Drivers/STM32F0xx_HAL_Driver/Src/stm32f0xx_hal_dma.c ****   if (HAL_DMA_FULL_TRANSFER == CompleteLevel)
 982              		.loc 1 542 6
 983 00f0 BB68     		ldr	r3, [r7, #8]
 984 00f2 002B     		cmp	r3, #0
 985 00f4 0CD1     		bne	.L38
 543:Drivers/STM32F0xx_HAL_Driver/Src/stm32f0xx_hal_dma.c ****   {
 544:Drivers/STM32F0xx_HAL_Driver/Src/stm32f0xx_hal_dma.c ****     /* Clear the transfer complete flag */
 545:Drivers/STM32F0xx_HAL_Driver/Src/stm32f0xx_hal_dma.c ****     hdma->DmaBaseAddress->IFCR = DMA_FLAG_TC1 << hdma->ChannelIndex;
 986              		.loc 1 545 54
 987 00f6 FB68     		ldr	r3, [r7, #12]
 988 00f8 1A6C     		ldr	r2, [r3, #64]
 989              		.loc 1 545 9
 990 00fa FB68     		ldr	r3, [r7, #12]
 991 00fc DB6B     		ldr	r3, [r3, #60]
 992              		.loc 1 545 47
 993 00fe 0221     		movs	r1, #2
 994 0100 9140     		lsls	r1, r1, r2
 995 0102 0A00     		movs	r2, r1
 996              		.loc 1 545 32
 997 0104 5A60     		str	r2, [r3, #4]
 546:Drivers/STM32F0xx_HAL_Driver/Src/stm32f0xx_hal_dma.c **** 
 547:Drivers/STM32F0xx_HAL_Driver/Src/stm32f0xx_hal_dma.c ****     /* The selected Channelx EN bit is cleared (DMA is disabled and
ARM GAS  C:\Users\mason\AppData\Local\Temp\ccKXoFR7.s 			page 28


 548:Drivers/STM32F0xx_HAL_Driver/Src/stm32f0xx_hal_dma.c ****     all transfers are complete) */
 549:Drivers/STM32F0xx_HAL_Driver/Src/stm32f0xx_hal_dma.c ****     hdma->State = HAL_DMA_STATE_READY;
 998              		.loc 1 549 17
 999 0106 FB68     		ldr	r3, [r7, #12]
 1000 0108 2122     		movs	r2, #33
 1001 010a 0121     		movs	r1, #1
 1002 010c 9954     		strb	r1, [r3, r2]
 1003 010e 07E0     		b	.L39
 1004              	.L38:
 550:Drivers/STM32F0xx_HAL_Driver/Src/stm32f0xx_hal_dma.c ****   }
 551:Drivers/STM32F0xx_HAL_Driver/Src/stm32f0xx_hal_dma.c ****   else
 552:Drivers/STM32F0xx_HAL_Driver/Src/stm32f0xx_hal_dma.c ****   {
 553:Drivers/STM32F0xx_HAL_Driver/Src/stm32f0xx_hal_dma.c ****     /* Clear the half transfer complete flag */
 554:Drivers/STM32F0xx_HAL_Driver/Src/stm32f0xx_hal_dma.c ****     hdma->DmaBaseAddress->IFCR = DMA_FLAG_HT1 << hdma->ChannelIndex;
 1005              		.loc 1 554 54
 1006 0110 FB68     		ldr	r3, [r7, #12]
 1007 0112 1A6C     		ldr	r2, [r3, #64]
 1008              		.loc 1 554 9
 1009 0114 FB68     		ldr	r3, [r7, #12]
 1010 0116 DB6B     		ldr	r3, [r3, #60]
 1011              		.loc 1 554 47
 1012 0118 0421     		movs	r1, #4
 1013 011a 9140     		lsls	r1, r1, r2
 1014 011c 0A00     		movs	r2, r1
 1015              		.loc 1 554 32
 1016 011e 5A60     		str	r2, [r3, #4]
 1017              	.L39:
 555:Drivers/STM32F0xx_HAL_Driver/Src/stm32f0xx_hal_dma.c ****   }
 556:Drivers/STM32F0xx_HAL_Driver/Src/stm32f0xx_hal_dma.c **** 
 557:Drivers/STM32F0xx_HAL_Driver/Src/stm32f0xx_hal_dma.c ****   /* Process unlocked */
 558:Drivers/STM32F0xx_HAL_Driver/Src/stm32f0xx_hal_dma.c ****   __HAL_UNLOCK(hdma);
 1018              		.loc 1 558 3
 1019 0120 FB68     		ldr	r3, [r7, #12]
 1020 0122 2022     		movs	r2, #32
 1021 0124 0021     		movs	r1, #0
 1022 0126 9954     		strb	r1, [r3, r2]
 559:Drivers/STM32F0xx_HAL_Driver/Src/stm32f0xx_hal_dma.c **** 
 560:Drivers/STM32F0xx_HAL_Driver/Src/stm32f0xx_hal_dma.c ****   return HAL_OK;
 1023              		.loc 1 560 10
 1024 0128 0023     		movs	r3, #0
 1025              	.L30:
 561:Drivers/STM32F0xx_HAL_Driver/Src/stm32f0xx_hal_dma.c **** }
 1026              		.loc 1 561 1
 1027 012a 1800     		movs	r0, r3
 1028 012c BD46     		mov	sp, r7
 1029 012e 06B0     		add	sp, sp, #24
 1030              		@ sp needed
 1031 0130 80BD     		pop	{r7, pc}
 1032              		.cfi_endproc
 1033              	.LFE46:
 1035              		.section	.text.HAL_DMA_IRQHandler,"ax",%progbits
 1036              		.align	1
 1037              		.global	HAL_DMA_IRQHandler
 1038              		.syntax unified
 1039              		.code	16
 1040              		.thumb_func
 1042              	HAL_DMA_IRQHandler:
ARM GAS  C:\Users\mason\AppData\Local\Temp\ccKXoFR7.s 			page 29


 1043              	.LFB47:
 562:Drivers/STM32F0xx_HAL_Driver/Src/stm32f0xx_hal_dma.c **** 
 563:Drivers/STM32F0xx_HAL_Driver/Src/stm32f0xx_hal_dma.c **** /**
 564:Drivers/STM32F0xx_HAL_Driver/Src/stm32f0xx_hal_dma.c ****   * @brief  Handle DMA interrupt request.
 565:Drivers/STM32F0xx_HAL_Driver/Src/stm32f0xx_hal_dma.c ****   * @param  hdma pointer to a DMA_HandleTypeDef structure that contains
 566:Drivers/STM32F0xx_HAL_Driver/Src/stm32f0xx_hal_dma.c ****   *               the configuration information for the specified DMA Channel.
 567:Drivers/STM32F0xx_HAL_Driver/Src/stm32f0xx_hal_dma.c ****   * @retval None
 568:Drivers/STM32F0xx_HAL_Driver/Src/stm32f0xx_hal_dma.c ****   */
 569:Drivers/STM32F0xx_HAL_Driver/Src/stm32f0xx_hal_dma.c **** void HAL_DMA_IRQHandler(DMA_HandleTypeDef *hdma)
 570:Drivers/STM32F0xx_HAL_Driver/Src/stm32f0xx_hal_dma.c **** {
 1044              		.loc 1 570 1
 1045              		.cfi_startproc
 1046              		@ args = 0, pretend = 0, frame = 16
 1047              		@ frame_needed = 1, uses_anonymous_args = 0
 1048 0000 80B5     		push	{r7, lr}
 1049              	.LCFI21:
 1050              		.cfi_def_cfa_offset 8
 1051              		.cfi_offset 7, -8
 1052              		.cfi_offset 14, -4
 1053 0002 84B0     		sub	sp, sp, #16
 1054              	.LCFI22:
 1055              		.cfi_def_cfa_offset 24
 1056 0004 00AF     		add	r7, sp, #0
 1057              	.LCFI23:
 1058              		.cfi_def_cfa_register 7
 1059 0006 7860     		str	r0, [r7, #4]
 571:Drivers/STM32F0xx_HAL_Driver/Src/stm32f0xx_hal_dma.c ****   uint32_t flag_it = hdma->DmaBaseAddress->ISR;
 1060              		.loc 1 571 26
 1061 0008 7B68     		ldr	r3, [r7, #4]
 1062 000a DB6B     		ldr	r3, [r3, #60]
 1063              		.loc 1 571 12
 1064 000c 1B68     		ldr	r3, [r3]
 1065 000e FB60     		str	r3, [r7, #12]
 572:Drivers/STM32F0xx_HAL_Driver/Src/stm32f0xx_hal_dma.c ****   uint32_t source_it = hdma->Instance->CCR;
 1066              		.loc 1 572 28
 1067 0010 7B68     		ldr	r3, [r7, #4]
 1068 0012 1B68     		ldr	r3, [r3]
 1069              		.loc 1 572 12
 1070 0014 1B68     		ldr	r3, [r3]
 1071 0016 BB60     		str	r3, [r7, #8]
 573:Drivers/STM32F0xx_HAL_Driver/Src/stm32f0xx_hal_dma.c **** 
 574:Drivers/STM32F0xx_HAL_Driver/Src/stm32f0xx_hal_dma.c ****   /* Half Transfer Complete Interrupt management ******************************/
 575:Drivers/STM32F0xx_HAL_Driver/Src/stm32f0xx_hal_dma.c ****   if ((RESET != (flag_it & (DMA_FLAG_HT1 << hdma->ChannelIndex))) && (RESET != (source_it & DMA_IT_
 1072              		.loc 1 575 49
 1073 0018 7B68     		ldr	r3, [r7, #4]
 1074 001a 1B6C     		ldr	r3, [r3, #64]
 1075              		.loc 1 575 42
 1076 001c 0422     		movs	r2, #4
 1077 001e 9A40     		lsls	r2, r2, r3
 1078 0020 1300     		movs	r3, r2
 1079              		.loc 1 575 26
 1080 0022 FA68     		ldr	r2, [r7, #12]
 1081 0024 1340     		ands	r3, r2
 1082              		.loc 1 575 6
 1083 0026 24D0     		beq	.L41
 1084              		.loc 1 575 91 discriminator 1
 1085 0028 BB68     		ldr	r3, [r7, #8]
ARM GAS  C:\Users\mason\AppData\Local\Temp\ccKXoFR7.s 			page 30


 1086 002a 0422     		movs	r2, #4
 1087 002c 1340     		ands	r3, r2
 1088              		.loc 1 575 67 discriminator 1
 1089 002e 20D0     		beq	.L41
 576:Drivers/STM32F0xx_HAL_Driver/Src/stm32f0xx_hal_dma.c ****   {
 577:Drivers/STM32F0xx_HAL_Driver/Src/stm32f0xx_hal_dma.c ****     /* Disable the half transfer interrupt if the DMA mode is not CIRCULAR */
 578:Drivers/STM32F0xx_HAL_Driver/Src/stm32f0xx_hal_dma.c ****     if ((hdma->Instance->CCR & DMA_CCR_CIRC) == 0U)
 1090              		.loc 1 578 14
 1091 0030 7B68     		ldr	r3, [r7, #4]
 1092 0032 1B68     		ldr	r3, [r3]
 1093              		.loc 1 578 24
 1094 0034 1B68     		ldr	r3, [r3]
 1095              		.loc 1 578 30
 1096 0036 2022     		movs	r2, #32
 1097 0038 1340     		ands	r3, r2
 1098              		.loc 1 578 8
 1099 003a 07D1     		bne	.L42
 579:Drivers/STM32F0xx_HAL_Driver/Src/stm32f0xx_hal_dma.c ****     {
 580:Drivers/STM32F0xx_HAL_Driver/Src/stm32f0xx_hal_dma.c ****       /* Disable the half transfer interrupt */
 581:Drivers/STM32F0xx_HAL_Driver/Src/stm32f0xx_hal_dma.c ****       hdma->Instance->CCR &= ~DMA_IT_HT;
 1100              		.loc 1 581 11
 1101 003c 7B68     		ldr	r3, [r7, #4]
 1102 003e 1B68     		ldr	r3, [r3]
 1103              		.loc 1 581 27
 1104 0040 1A68     		ldr	r2, [r3]
 1105              		.loc 1 581 11
 1106 0042 7B68     		ldr	r3, [r7, #4]
 1107 0044 1B68     		ldr	r3, [r3]
 1108              		.loc 1 581 27
 1109 0046 0421     		movs	r1, #4
 1110 0048 8A43     		bics	r2, r1
 1111 004a 1A60     		str	r2, [r3]
 1112              	.L42:
 582:Drivers/STM32F0xx_HAL_Driver/Src/stm32f0xx_hal_dma.c ****     }
 583:Drivers/STM32F0xx_HAL_Driver/Src/stm32f0xx_hal_dma.c **** 
 584:Drivers/STM32F0xx_HAL_Driver/Src/stm32f0xx_hal_dma.c ****     /* Clear the half transfer complete flag */
 585:Drivers/STM32F0xx_HAL_Driver/Src/stm32f0xx_hal_dma.c ****     hdma->DmaBaseAddress->IFCR = DMA_FLAG_HT1 << hdma->ChannelIndex;
 1113              		.loc 1 585 54
 1114 004c 7B68     		ldr	r3, [r7, #4]
 1115 004e 1A6C     		ldr	r2, [r3, #64]
 1116              		.loc 1 585 9
 1117 0050 7B68     		ldr	r3, [r7, #4]
 1118 0052 DB6B     		ldr	r3, [r3, #60]
 1119              		.loc 1 585 47
 1120 0054 0421     		movs	r1, #4
 1121 0056 9140     		lsls	r1, r1, r2
 1122 0058 0A00     		movs	r2, r1
 1123              		.loc 1 585 32
 1124 005a 5A60     		str	r2, [r3, #4]
 586:Drivers/STM32F0xx_HAL_Driver/Src/stm32f0xx_hal_dma.c **** 
 587:Drivers/STM32F0xx_HAL_Driver/Src/stm32f0xx_hal_dma.c ****     /* DMA peripheral state is not updated in Half Transfer */
 588:Drivers/STM32F0xx_HAL_Driver/Src/stm32f0xx_hal_dma.c ****     /* State is updated only in Transfer Complete case */
 589:Drivers/STM32F0xx_HAL_Driver/Src/stm32f0xx_hal_dma.c **** 
 590:Drivers/STM32F0xx_HAL_Driver/Src/stm32f0xx_hal_dma.c ****     if (hdma->XferHalfCpltCallback != NULL)
 1125              		.loc 1 590 13
 1126 005c 7B68     		ldr	r3, [r7, #4]
 1127 005e DB6A     		ldr	r3, [r3, #44]
ARM GAS  C:\Users\mason\AppData\Local\Temp\ccKXoFR7.s 			page 31


 1128              		.loc 1 590 8
 1129 0060 002B     		cmp	r3, #0
 1130 0062 00D1     		bne	.LCB873
 1131 0064 6AE0     		b	.L44	@long jump
 1132              	.LCB873:
 591:Drivers/STM32F0xx_HAL_Driver/Src/stm32f0xx_hal_dma.c ****     {
 592:Drivers/STM32F0xx_HAL_Driver/Src/stm32f0xx_hal_dma.c ****       /* Half transfer callback */
 593:Drivers/STM32F0xx_HAL_Driver/Src/stm32f0xx_hal_dma.c ****       hdma->XferHalfCpltCallback(hdma);
 1133              		.loc 1 593 11
 1134 0066 7B68     		ldr	r3, [r7, #4]
 1135 0068 DB6A     		ldr	r3, [r3, #44]
 1136              		.loc 1 593 7
 1137 006a 7A68     		ldr	r2, [r7, #4]
 1138 006c 1000     		movs	r0, r2
 1139 006e 9847     		blx	r3
 1140              	.LVL1:
 590:Drivers/STM32F0xx_HAL_Driver/Src/stm32f0xx_hal_dma.c ****     {
 1141              		.loc 1 590 8
 1142 0070 64E0     		b	.L44
 1143              	.L41:
 594:Drivers/STM32F0xx_HAL_Driver/Src/stm32f0xx_hal_dma.c ****     }
 595:Drivers/STM32F0xx_HAL_Driver/Src/stm32f0xx_hal_dma.c ****   }
 596:Drivers/STM32F0xx_HAL_Driver/Src/stm32f0xx_hal_dma.c **** 
 597:Drivers/STM32F0xx_HAL_Driver/Src/stm32f0xx_hal_dma.c ****   /* Transfer Complete Interrupt management ***********************************/
 598:Drivers/STM32F0xx_HAL_Driver/Src/stm32f0xx_hal_dma.c ****   else if ((RESET != (flag_it & (DMA_FLAG_TC1 << hdma->ChannelIndex))) && (RESET != (source_it & DM
 1144              		.loc 1 598 54
 1145 0072 7B68     		ldr	r3, [r7, #4]
 1146 0074 1B6C     		ldr	r3, [r3, #64]
 1147              		.loc 1 598 47
 1148 0076 0222     		movs	r2, #2
 1149 0078 9A40     		lsls	r2, r2, r3
 1150 007a 1300     		movs	r3, r2
 1151              		.loc 1 598 31
 1152 007c FA68     		ldr	r2, [r7, #12]
 1153 007e 1340     		ands	r3, r2
 1154              		.loc 1 598 11
 1155 0080 2BD0     		beq	.L45
 1156              		.loc 1 598 96 discriminator 1
 1157 0082 BB68     		ldr	r3, [r7, #8]
 1158 0084 0222     		movs	r2, #2
 1159 0086 1340     		ands	r3, r2
 1160              		.loc 1 598 72 discriminator 1
 1161 0088 27D0     		beq	.L45
 599:Drivers/STM32F0xx_HAL_Driver/Src/stm32f0xx_hal_dma.c ****   {
 600:Drivers/STM32F0xx_HAL_Driver/Src/stm32f0xx_hal_dma.c ****     if ((hdma->Instance->CCR & DMA_CCR_CIRC) == 0U)
 1162              		.loc 1 600 14
 1163 008a 7B68     		ldr	r3, [r7, #4]
 1164 008c 1B68     		ldr	r3, [r3]
 1165              		.loc 1 600 24
 1166 008e 1B68     		ldr	r3, [r3]
 1167              		.loc 1 600 30
 1168 0090 2022     		movs	r2, #32
 1169 0092 1340     		ands	r3, r2
 1170              		.loc 1 600 8
 1171 0094 0BD1     		bne	.L46
 601:Drivers/STM32F0xx_HAL_Driver/Src/stm32f0xx_hal_dma.c ****     {
 602:Drivers/STM32F0xx_HAL_Driver/Src/stm32f0xx_hal_dma.c ****       /* Disable the transfer complete  & transfer error interrupts */
ARM GAS  C:\Users\mason\AppData\Local\Temp\ccKXoFR7.s 			page 32


 603:Drivers/STM32F0xx_HAL_Driver/Src/stm32f0xx_hal_dma.c ****       /* if the DMA mode is not CIRCULAR */
 604:Drivers/STM32F0xx_HAL_Driver/Src/stm32f0xx_hal_dma.c ****       hdma->Instance->CCR &= ~(DMA_IT_TC | DMA_IT_TE);
 1172              		.loc 1 604 11
 1173 0096 7B68     		ldr	r3, [r7, #4]
 1174 0098 1B68     		ldr	r3, [r3]
 1175              		.loc 1 604 27
 1176 009a 1A68     		ldr	r2, [r3]
 1177              		.loc 1 604 11
 1178 009c 7B68     		ldr	r3, [r7, #4]
 1179 009e 1B68     		ldr	r3, [r3]
 1180              		.loc 1 604 27
 1181 00a0 0A21     		movs	r1, #10
 1182 00a2 8A43     		bics	r2, r1
 1183 00a4 1A60     		str	r2, [r3]
 605:Drivers/STM32F0xx_HAL_Driver/Src/stm32f0xx_hal_dma.c **** 
 606:Drivers/STM32F0xx_HAL_Driver/Src/stm32f0xx_hal_dma.c ****       /* Change the DMA state */
 607:Drivers/STM32F0xx_HAL_Driver/Src/stm32f0xx_hal_dma.c ****       hdma->State = HAL_DMA_STATE_READY;
 1184              		.loc 1 607 19
 1185 00a6 7B68     		ldr	r3, [r7, #4]
 1186 00a8 2122     		movs	r2, #33
 1187 00aa 0121     		movs	r1, #1
 1188 00ac 9954     		strb	r1, [r3, r2]
 1189              	.L46:
 608:Drivers/STM32F0xx_HAL_Driver/Src/stm32f0xx_hal_dma.c ****     }
 609:Drivers/STM32F0xx_HAL_Driver/Src/stm32f0xx_hal_dma.c **** 
 610:Drivers/STM32F0xx_HAL_Driver/Src/stm32f0xx_hal_dma.c ****     /* Clear the transfer complete flag */
 611:Drivers/STM32F0xx_HAL_Driver/Src/stm32f0xx_hal_dma.c ****     hdma->DmaBaseAddress->IFCR = DMA_FLAG_TC1 << hdma->ChannelIndex;
 1190              		.loc 1 611 54
 1191 00ae 7B68     		ldr	r3, [r7, #4]
 1192 00b0 1A6C     		ldr	r2, [r3, #64]
 1193              		.loc 1 611 9
 1194 00b2 7B68     		ldr	r3, [r7, #4]
 1195 00b4 DB6B     		ldr	r3, [r3, #60]
 1196              		.loc 1 611 47
 1197 00b6 0221     		movs	r1, #2
 1198 00b8 9140     		lsls	r1, r1, r2
 1199 00ba 0A00     		movs	r2, r1
 1200              		.loc 1 611 32
 1201 00bc 5A60     		str	r2, [r3, #4]
 612:Drivers/STM32F0xx_HAL_Driver/Src/stm32f0xx_hal_dma.c **** 
 613:Drivers/STM32F0xx_HAL_Driver/Src/stm32f0xx_hal_dma.c ****     /* Process Unlocked */
 614:Drivers/STM32F0xx_HAL_Driver/Src/stm32f0xx_hal_dma.c ****     __HAL_UNLOCK(hdma);
 1202              		.loc 1 614 5
 1203 00be 7B68     		ldr	r3, [r7, #4]
 1204 00c0 2022     		movs	r2, #32
 1205 00c2 0021     		movs	r1, #0
 1206 00c4 9954     		strb	r1, [r3, r2]
 615:Drivers/STM32F0xx_HAL_Driver/Src/stm32f0xx_hal_dma.c **** 
 616:Drivers/STM32F0xx_HAL_Driver/Src/stm32f0xx_hal_dma.c ****     if (hdma->XferCpltCallback != NULL)
 1207              		.loc 1 616 13
 1208 00c6 7B68     		ldr	r3, [r7, #4]
 1209 00c8 9B6A     		ldr	r3, [r3, #40]
 1210              		.loc 1 616 8
 1211 00ca 002B     		cmp	r3, #0
 1212 00cc 36D0     		beq	.L44
 617:Drivers/STM32F0xx_HAL_Driver/Src/stm32f0xx_hal_dma.c ****     {
 618:Drivers/STM32F0xx_HAL_Driver/Src/stm32f0xx_hal_dma.c ****       /* Transfer complete callback */
ARM GAS  C:\Users\mason\AppData\Local\Temp\ccKXoFR7.s 			page 33


 619:Drivers/STM32F0xx_HAL_Driver/Src/stm32f0xx_hal_dma.c ****       hdma->XferCpltCallback(hdma);
 1213              		.loc 1 619 11
 1214 00ce 7B68     		ldr	r3, [r7, #4]
 1215 00d0 9B6A     		ldr	r3, [r3, #40]
 1216              		.loc 1 619 7
 1217 00d2 7A68     		ldr	r2, [r7, #4]
 1218 00d4 1000     		movs	r0, r2
 1219 00d6 9847     		blx	r3
 1220              	.LVL2:
 616:Drivers/STM32F0xx_HAL_Driver/Src/stm32f0xx_hal_dma.c ****     {
 1221              		.loc 1 616 8
 1222 00d8 30E0     		b	.L44
 1223              	.L45:
 620:Drivers/STM32F0xx_HAL_Driver/Src/stm32f0xx_hal_dma.c ****     }
 621:Drivers/STM32F0xx_HAL_Driver/Src/stm32f0xx_hal_dma.c ****   }
 622:Drivers/STM32F0xx_HAL_Driver/Src/stm32f0xx_hal_dma.c **** 
 623:Drivers/STM32F0xx_HAL_Driver/Src/stm32f0xx_hal_dma.c ****   /* Transfer Error Interrupt management ***************************************/
 624:Drivers/STM32F0xx_HAL_Driver/Src/stm32f0xx_hal_dma.c ****   else if ((RESET != (flag_it & (DMA_FLAG_TE1 << hdma->ChannelIndex))) && (RESET != (source_it & DM
 1224              		.loc 1 624 54
 1225 00da 7B68     		ldr	r3, [r7, #4]
 1226 00dc 1B6C     		ldr	r3, [r3, #64]
 1227              		.loc 1 624 47
 1228 00de 0822     		movs	r2, #8
 1229 00e0 9A40     		lsls	r2, r2, r3
 1230 00e2 1300     		movs	r3, r2
 1231              		.loc 1 624 31
 1232 00e4 FA68     		ldr	r2, [r7, #12]
 1233 00e6 1340     		ands	r3, r2
 1234              		.loc 1 624 11
 1235 00e8 28D0     		beq	.L48
 1236              		.loc 1 624 96 discriminator 1
 1237 00ea BB68     		ldr	r3, [r7, #8]
 1238 00ec 0822     		movs	r2, #8
 1239 00ee 1340     		ands	r3, r2
 1240              		.loc 1 624 72 discriminator 1
 1241 00f0 24D0     		beq	.L48
 625:Drivers/STM32F0xx_HAL_Driver/Src/stm32f0xx_hal_dma.c ****   {
 626:Drivers/STM32F0xx_HAL_Driver/Src/stm32f0xx_hal_dma.c ****     /* When a DMA transfer error occurs */
 627:Drivers/STM32F0xx_HAL_Driver/Src/stm32f0xx_hal_dma.c ****     /* A hardware clear of its EN bits is performed */
 628:Drivers/STM32F0xx_HAL_Driver/Src/stm32f0xx_hal_dma.c ****     /* Then, disable all DMA interrupts */
 629:Drivers/STM32F0xx_HAL_Driver/Src/stm32f0xx_hal_dma.c ****     hdma->Instance->CCR &= ~(DMA_IT_TC | DMA_IT_HT | DMA_IT_TE);
 1242              		.loc 1 629 9
 1243 00f2 7B68     		ldr	r3, [r7, #4]
 1244 00f4 1B68     		ldr	r3, [r3]
 1245              		.loc 1 629 25
 1246 00f6 1A68     		ldr	r2, [r3]
 1247              		.loc 1 629 9
 1248 00f8 7B68     		ldr	r3, [r7, #4]
 1249 00fa 1B68     		ldr	r3, [r3]
 1250              		.loc 1 629 25
 1251 00fc 0E21     		movs	r1, #14
 1252 00fe 8A43     		bics	r2, r1
 1253 0100 1A60     		str	r2, [r3]
 630:Drivers/STM32F0xx_HAL_Driver/Src/stm32f0xx_hal_dma.c **** 
 631:Drivers/STM32F0xx_HAL_Driver/Src/stm32f0xx_hal_dma.c ****     /* Clear all flags */
 632:Drivers/STM32F0xx_HAL_Driver/Src/stm32f0xx_hal_dma.c ****     hdma->DmaBaseAddress->IFCR = DMA_FLAG_GL1 << hdma->ChannelIndex;
 1254              		.loc 1 632 54
ARM GAS  C:\Users\mason\AppData\Local\Temp\ccKXoFR7.s 			page 34


 1255 0102 7B68     		ldr	r3, [r7, #4]
 1256 0104 1A6C     		ldr	r2, [r3, #64]
 1257              		.loc 1 632 9
 1258 0106 7B68     		ldr	r3, [r7, #4]
 1259 0108 DB6B     		ldr	r3, [r3, #60]
 1260              		.loc 1 632 47
 1261 010a 0121     		movs	r1, #1
 1262 010c 9140     		lsls	r1, r1, r2
 1263 010e 0A00     		movs	r2, r1
 1264              		.loc 1 632 32
 1265 0110 5A60     		str	r2, [r3, #4]
 633:Drivers/STM32F0xx_HAL_Driver/Src/stm32f0xx_hal_dma.c **** 
 634:Drivers/STM32F0xx_HAL_Driver/Src/stm32f0xx_hal_dma.c ****     /* Update error code */
 635:Drivers/STM32F0xx_HAL_Driver/Src/stm32f0xx_hal_dma.c ****     hdma->ErrorCode = HAL_DMA_ERROR_TE;
 1266              		.loc 1 635 21
 1267 0112 7B68     		ldr	r3, [r7, #4]
 1268 0114 0122     		movs	r2, #1
 1269 0116 9A63     		str	r2, [r3, #56]
 636:Drivers/STM32F0xx_HAL_Driver/Src/stm32f0xx_hal_dma.c **** 
 637:Drivers/STM32F0xx_HAL_Driver/Src/stm32f0xx_hal_dma.c ****     /* Change the DMA state */
 638:Drivers/STM32F0xx_HAL_Driver/Src/stm32f0xx_hal_dma.c ****     hdma->State = HAL_DMA_STATE_READY;
 1270              		.loc 1 638 17
 1271 0118 7B68     		ldr	r3, [r7, #4]
 1272 011a 2122     		movs	r2, #33
 1273 011c 0121     		movs	r1, #1
 1274 011e 9954     		strb	r1, [r3, r2]
 639:Drivers/STM32F0xx_HAL_Driver/Src/stm32f0xx_hal_dma.c **** 
 640:Drivers/STM32F0xx_HAL_Driver/Src/stm32f0xx_hal_dma.c ****     /* Process Unlocked */
 641:Drivers/STM32F0xx_HAL_Driver/Src/stm32f0xx_hal_dma.c ****     __HAL_UNLOCK(hdma);
 1275              		.loc 1 641 5
 1276 0120 7B68     		ldr	r3, [r7, #4]
 1277 0122 2022     		movs	r2, #32
 1278 0124 0021     		movs	r1, #0
 1279 0126 9954     		strb	r1, [r3, r2]
 642:Drivers/STM32F0xx_HAL_Driver/Src/stm32f0xx_hal_dma.c **** 
 643:Drivers/STM32F0xx_HAL_Driver/Src/stm32f0xx_hal_dma.c ****     if (hdma->XferErrorCallback != NULL)
 1280              		.loc 1 643 13
 1281 0128 7B68     		ldr	r3, [r7, #4]
 1282 012a 1B6B     		ldr	r3, [r3, #48]
 1283              		.loc 1 643 8
 1284 012c 002B     		cmp	r3, #0
 1285 012e 05D0     		beq	.L48
 644:Drivers/STM32F0xx_HAL_Driver/Src/stm32f0xx_hal_dma.c ****     {
 645:Drivers/STM32F0xx_HAL_Driver/Src/stm32f0xx_hal_dma.c ****       /* Transfer error callback */
 646:Drivers/STM32F0xx_HAL_Driver/Src/stm32f0xx_hal_dma.c ****       hdma->XferErrorCallback(hdma);
 1286              		.loc 1 646 11
 1287 0130 7B68     		ldr	r3, [r7, #4]
 1288 0132 1B6B     		ldr	r3, [r3, #48]
 1289              		.loc 1 646 7
 1290 0134 7A68     		ldr	r2, [r7, #4]
 1291 0136 1000     		movs	r0, r2
 1292 0138 9847     		blx	r3
 1293              	.LVL3:
 647:Drivers/STM32F0xx_HAL_Driver/Src/stm32f0xx_hal_dma.c ****     }
 648:Drivers/STM32F0xx_HAL_Driver/Src/stm32f0xx_hal_dma.c ****   }
 649:Drivers/STM32F0xx_HAL_Driver/Src/stm32f0xx_hal_dma.c **** }
 1294              		.loc 1 649 1
ARM GAS  C:\Users\mason\AppData\Local\Temp\ccKXoFR7.s 			page 35


 1295 013a FFE7     		b	.L48
 1296              	.L44:
 1297              	.L48:
 1298 013c C046     		nop
 1299 013e BD46     		mov	sp, r7
 1300 0140 04B0     		add	sp, sp, #16
 1301              		@ sp needed
 1302 0142 80BD     		pop	{r7, pc}
 1303              		.cfi_endproc
 1304              	.LFE47:
 1306              		.section	.text.HAL_DMA_RegisterCallback,"ax",%progbits
 1307              		.align	1
 1308              		.global	HAL_DMA_RegisterCallback
 1309              		.syntax unified
 1310              		.code	16
 1311              		.thumb_func
 1313              	HAL_DMA_RegisterCallback:
 1314              	.LFB48:
 650:Drivers/STM32F0xx_HAL_Driver/Src/stm32f0xx_hal_dma.c **** 
 651:Drivers/STM32F0xx_HAL_Driver/Src/stm32f0xx_hal_dma.c **** /**
 652:Drivers/STM32F0xx_HAL_Driver/Src/stm32f0xx_hal_dma.c ****   * @brief  Register callbacks
 653:Drivers/STM32F0xx_HAL_Driver/Src/stm32f0xx_hal_dma.c ****   * @param  hdma                 pointer to a DMA_HandleTypeDef structure that contains
 654:Drivers/STM32F0xx_HAL_Driver/Src/stm32f0xx_hal_dma.c ****   *                               the configuration information for the specified DMA Stream.
 655:Drivers/STM32F0xx_HAL_Driver/Src/stm32f0xx_hal_dma.c ****   * @param  CallbackID           User Callback identifier
 656:Drivers/STM32F0xx_HAL_Driver/Src/stm32f0xx_hal_dma.c ****   *                               a HAL_DMA_CallbackIDTypeDef ENUM as parameter.
 657:Drivers/STM32F0xx_HAL_Driver/Src/stm32f0xx_hal_dma.c ****   * @param  pCallback            pointer to private callback function which has pointer to
 658:Drivers/STM32F0xx_HAL_Driver/Src/stm32f0xx_hal_dma.c ****   *                               a DMA_HandleTypeDef structure as parameter.
 659:Drivers/STM32F0xx_HAL_Driver/Src/stm32f0xx_hal_dma.c ****   * @retval HAL status
 660:Drivers/STM32F0xx_HAL_Driver/Src/stm32f0xx_hal_dma.c ****   */
 661:Drivers/STM32F0xx_HAL_Driver/Src/stm32f0xx_hal_dma.c **** HAL_StatusTypeDef HAL_DMA_RegisterCallback(DMA_HandleTypeDef *hdma, HAL_DMA_CallbackIDTypeDef Callb
 662:Drivers/STM32F0xx_HAL_Driver/Src/stm32f0xx_hal_dma.c **** {
 1315              		.loc 1 662 1
 1316              		.cfi_startproc
 1317              		@ args = 0, pretend = 0, frame = 24
 1318              		@ frame_needed = 1, uses_anonymous_args = 0
 1319 0000 80B5     		push	{r7, lr}
 1320              	.LCFI24:
 1321              		.cfi_def_cfa_offset 8
 1322              		.cfi_offset 7, -8
 1323              		.cfi_offset 14, -4
 1324 0002 86B0     		sub	sp, sp, #24
 1325              	.LCFI25:
 1326              		.cfi_def_cfa_offset 32
 1327 0004 00AF     		add	r7, sp, #0
 1328              	.LCFI26:
 1329              		.cfi_def_cfa_register 7
 1330 0006 F860     		str	r0, [r7, #12]
 1331 0008 7A60     		str	r2, [r7, #4]
 1332 000a 0B23     		movs	r3, #11
 1333 000c FB18     		adds	r3, r7, r3
 1334 000e 0A1C     		adds	r2, r1, #0
 1335 0010 1A70     		strb	r2, [r3]
 663:Drivers/STM32F0xx_HAL_Driver/Src/stm32f0xx_hal_dma.c ****   HAL_StatusTypeDef status = HAL_OK;
 1336              		.loc 1 663 21
 1337 0012 1723     		movs	r3, #23
 1338 0014 FB18     		adds	r3, r7, r3
 1339 0016 0022     		movs	r2, #0
ARM GAS  C:\Users\mason\AppData\Local\Temp\ccKXoFR7.s 			page 36


 1340 0018 1A70     		strb	r2, [r3]
 664:Drivers/STM32F0xx_HAL_Driver/Src/stm32f0xx_hal_dma.c **** 
 665:Drivers/STM32F0xx_HAL_Driver/Src/stm32f0xx_hal_dma.c ****   /* Process locked */
 666:Drivers/STM32F0xx_HAL_Driver/Src/stm32f0xx_hal_dma.c ****   __HAL_LOCK(hdma);
 1341              		.loc 1 666 3
 1342 001a FB68     		ldr	r3, [r7, #12]
 1343 001c 2022     		movs	r2, #32
 1344 001e 9B5C     		ldrb	r3, [r3, r2]
 1345 0020 012B     		cmp	r3, #1
 1346 0022 01D1     		bne	.L50
 1347              		.loc 1 666 3 is_stmt 0 discriminator 1
 1348 0024 0223     		movs	r3, #2
 1349 0026 37E0     		b	.L51
 1350              	.L50:
 1351              		.loc 1 666 3 discriminator 2
 1352 0028 FB68     		ldr	r3, [r7, #12]
 1353 002a 2022     		movs	r2, #32
 1354 002c 0121     		movs	r1, #1
 1355 002e 9954     		strb	r1, [r3, r2]
 667:Drivers/STM32F0xx_HAL_Driver/Src/stm32f0xx_hal_dma.c **** 
 668:Drivers/STM32F0xx_HAL_Driver/Src/stm32f0xx_hal_dma.c ****   if (HAL_DMA_STATE_READY == hdma->State)
 1356              		.loc 1 668 34 is_stmt 1 discriminator 2
 1357 0030 FB68     		ldr	r3, [r7, #12]
 1358 0032 2122     		movs	r2, #33
 1359 0034 9B5C     		ldrb	r3, [r3, r2]
 1360 0036 DBB2     		uxtb	r3, r3
 1361              		.loc 1 668 6 discriminator 2
 1362 0038 012B     		cmp	r3, #1
 1363 003a 22D1     		bne	.L52
 669:Drivers/STM32F0xx_HAL_Driver/Src/stm32f0xx_hal_dma.c ****   {
 670:Drivers/STM32F0xx_HAL_Driver/Src/stm32f0xx_hal_dma.c ****     switch (CallbackID)
 1364              		.loc 1 670 5
 1365 003c 0B23     		movs	r3, #11
 1366 003e FB18     		adds	r3, r7, r3
 1367 0040 1B78     		ldrb	r3, [r3]
 1368 0042 032B     		cmp	r3, #3
 1369 0044 14D0     		beq	.L53
 1370 0046 17DC     		bgt	.L54
 1371 0048 022B     		cmp	r3, #2
 1372 004a 0DD0     		beq	.L55
 1373 004c 14DC     		bgt	.L54
 1374 004e 002B     		cmp	r3, #0
 1375 0050 02D0     		beq	.L56
 1376 0052 012B     		cmp	r3, #1
 1377 0054 04D0     		beq	.L57
 1378 0056 0FE0     		b	.L54
 1379              	.L56:
 671:Drivers/STM32F0xx_HAL_Driver/Src/stm32f0xx_hal_dma.c ****     {
 672:Drivers/STM32F0xx_HAL_Driver/Src/stm32f0xx_hal_dma.c ****       case  HAL_DMA_XFER_CPLT_CB_ID:
 673:Drivers/STM32F0xx_HAL_Driver/Src/stm32f0xx_hal_dma.c ****         hdma->XferCpltCallback = pCallback;
 1380              		.loc 1 673 32
 1381 0058 FB68     		ldr	r3, [r7, #12]
 1382 005a 7A68     		ldr	r2, [r7, #4]
 1383 005c 9A62     		str	r2, [r3, #40]
 674:Drivers/STM32F0xx_HAL_Driver/Src/stm32f0xx_hal_dma.c ****         break;
 1384              		.loc 1 674 9
 1385 005e 14E0     		b	.L59
ARM GAS  C:\Users\mason\AppData\Local\Temp\ccKXoFR7.s 			page 37


 1386              	.L57:
 675:Drivers/STM32F0xx_HAL_Driver/Src/stm32f0xx_hal_dma.c **** 
 676:Drivers/STM32F0xx_HAL_Driver/Src/stm32f0xx_hal_dma.c ****       case  HAL_DMA_XFER_HALFCPLT_CB_ID:
 677:Drivers/STM32F0xx_HAL_Driver/Src/stm32f0xx_hal_dma.c ****         hdma->XferHalfCpltCallback = pCallback;
 1387              		.loc 1 677 36
 1388 0060 FB68     		ldr	r3, [r7, #12]
 1389 0062 7A68     		ldr	r2, [r7, #4]
 1390 0064 DA62     		str	r2, [r3, #44]
 678:Drivers/STM32F0xx_HAL_Driver/Src/stm32f0xx_hal_dma.c ****         break;
 1391              		.loc 1 678 9
 1392 0066 10E0     		b	.L59
 1393              	.L55:
 679:Drivers/STM32F0xx_HAL_Driver/Src/stm32f0xx_hal_dma.c **** 
 680:Drivers/STM32F0xx_HAL_Driver/Src/stm32f0xx_hal_dma.c ****       case  HAL_DMA_XFER_ERROR_CB_ID:
 681:Drivers/STM32F0xx_HAL_Driver/Src/stm32f0xx_hal_dma.c ****         hdma->XferErrorCallback = pCallback;
 1394              		.loc 1 681 33
 1395 0068 FB68     		ldr	r3, [r7, #12]
 1396 006a 7A68     		ldr	r2, [r7, #4]
 1397 006c 1A63     		str	r2, [r3, #48]
 682:Drivers/STM32F0xx_HAL_Driver/Src/stm32f0xx_hal_dma.c ****         break;
 1398              		.loc 1 682 9
 1399 006e 0CE0     		b	.L59
 1400              	.L53:
 683:Drivers/STM32F0xx_HAL_Driver/Src/stm32f0xx_hal_dma.c **** 
 684:Drivers/STM32F0xx_HAL_Driver/Src/stm32f0xx_hal_dma.c ****       case  HAL_DMA_XFER_ABORT_CB_ID:
 685:Drivers/STM32F0xx_HAL_Driver/Src/stm32f0xx_hal_dma.c ****         hdma->XferAbortCallback = pCallback;
 1401              		.loc 1 685 33
 1402 0070 FB68     		ldr	r3, [r7, #12]
 1403 0072 7A68     		ldr	r2, [r7, #4]
 1404 0074 5A63     		str	r2, [r3, #52]
 686:Drivers/STM32F0xx_HAL_Driver/Src/stm32f0xx_hal_dma.c ****         break;
 1405              		.loc 1 686 9
 1406 0076 08E0     		b	.L59
 1407              	.L54:
 687:Drivers/STM32F0xx_HAL_Driver/Src/stm32f0xx_hal_dma.c **** 
 688:Drivers/STM32F0xx_HAL_Driver/Src/stm32f0xx_hal_dma.c ****       default:
 689:Drivers/STM32F0xx_HAL_Driver/Src/stm32f0xx_hal_dma.c ****         status = HAL_ERROR;
 1408              		.loc 1 689 16
 1409 0078 1723     		movs	r3, #23
 1410 007a FB18     		adds	r3, r7, r3
 1411 007c 0122     		movs	r2, #1
 1412 007e 1A70     		strb	r2, [r3]
 690:Drivers/STM32F0xx_HAL_Driver/Src/stm32f0xx_hal_dma.c ****         break;
 1413              		.loc 1 690 9
 1414 0080 03E0     		b	.L59
 1415              	.L52:
 691:Drivers/STM32F0xx_HAL_Driver/Src/stm32f0xx_hal_dma.c ****     }
 692:Drivers/STM32F0xx_HAL_Driver/Src/stm32f0xx_hal_dma.c ****   }
 693:Drivers/STM32F0xx_HAL_Driver/Src/stm32f0xx_hal_dma.c ****   else
 694:Drivers/STM32F0xx_HAL_Driver/Src/stm32f0xx_hal_dma.c ****   {
 695:Drivers/STM32F0xx_HAL_Driver/Src/stm32f0xx_hal_dma.c ****     status = HAL_ERROR;
 1416              		.loc 1 695 12
 1417 0082 1723     		movs	r3, #23
 1418 0084 FB18     		adds	r3, r7, r3
 1419 0086 0122     		movs	r2, #1
 1420 0088 1A70     		strb	r2, [r3]
 1421              	.L59:
ARM GAS  C:\Users\mason\AppData\Local\Temp\ccKXoFR7.s 			page 38


 696:Drivers/STM32F0xx_HAL_Driver/Src/stm32f0xx_hal_dma.c ****   }
 697:Drivers/STM32F0xx_HAL_Driver/Src/stm32f0xx_hal_dma.c **** 
 698:Drivers/STM32F0xx_HAL_Driver/Src/stm32f0xx_hal_dma.c ****   /* Release Lock */
 699:Drivers/STM32F0xx_HAL_Driver/Src/stm32f0xx_hal_dma.c ****   __HAL_UNLOCK(hdma);
 1422              		.loc 1 699 3
 1423 008a FB68     		ldr	r3, [r7, #12]
 1424 008c 2022     		movs	r2, #32
 1425 008e 0021     		movs	r1, #0
 1426 0090 9954     		strb	r1, [r3, r2]
 700:Drivers/STM32F0xx_HAL_Driver/Src/stm32f0xx_hal_dma.c **** 
 701:Drivers/STM32F0xx_HAL_Driver/Src/stm32f0xx_hal_dma.c ****   return status;
 1427              		.loc 1 701 10
 1428 0092 1723     		movs	r3, #23
 1429 0094 FB18     		adds	r3, r7, r3
 1430 0096 1B78     		ldrb	r3, [r3]
 1431              	.L51:
 702:Drivers/STM32F0xx_HAL_Driver/Src/stm32f0xx_hal_dma.c **** }
 1432              		.loc 1 702 1
 1433 0098 1800     		movs	r0, r3
 1434 009a BD46     		mov	sp, r7
 1435 009c 06B0     		add	sp, sp, #24
 1436              		@ sp needed
 1437 009e 80BD     		pop	{r7, pc}
 1438              		.cfi_endproc
 1439              	.LFE48:
 1441              		.section	.text.HAL_DMA_UnRegisterCallback,"ax",%progbits
 1442              		.align	1
 1443              		.global	HAL_DMA_UnRegisterCallback
 1444              		.syntax unified
 1445              		.code	16
 1446              		.thumb_func
 1448              	HAL_DMA_UnRegisterCallback:
 1449              	.LFB49:
 703:Drivers/STM32F0xx_HAL_Driver/Src/stm32f0xx_hal_dma.c **** 
 704:Drivers/STM32F0xx_HAL_Driver/Src/stm32f0xx_hal_dma.c **** /**
 705:Drivers/STM32F0xx_HAL_Driver/Src/stm32f0xx_hal_dma.c ****   * @brief  UnRegister callbacks
 706:Drivers/STM32F0xx_HAL_Driver/Src/stm32f0xx_hal_dma.c ****   * @param  hdma                 pointer to a DMA_HandleTypeDef structure that contains
 707:Drivers/STM32F0xx_HAL_Driver/Src/stm32f0xx_hal_dma.c ****   *                               the configuration information for the specified DMA Stream.
 708:Drivers/STM32F0xx_HAL_Driver/Src/stm32f0xx_hal_dma.c ****   * @param  CallbackID           User Callback identifier
 709:Drivers/STM32F0xx_HAL_Driver/Src/stm32f0xx_hal_dma.c ****   *                               a HAL_DMA_CallbackIDTypeDef ENUM as parameter.
 710:Drivers/STM32F0xx_HAL_Driver/Src/stm32f0xx_hal_dma.c ****   * @retval HAL status
 711:Drivers/STM32F0xx_HAL_Driver/Src/stm32f0xx_hal_dma.c ****   */
 712:Drivers/STM32F0xx_HAL_Driver/Src/stm32f0xx_hal_dma.c **** HAL_StatusTypeDef HAL_DMA_UnRegisterCallback(DMA_HandleTypeDef *hdma, HAL_DMA_CallbackIDTypeDef Cal
 713:Drivers/STM32F0xx_HAL_Driver/Src/stm32f0xx_hal_dma.c **** {
 1450              		.loc 1 713 1
 1451              		.cfi_startproc
 1452              		@ args = 0, pretend = 0, frame = 16
 1453              		@ frame_needed = 1, uses_anonymous_args = 0
 1454 0000 80B5     		push	{r7, lr}
 1455              	.LCFI27:
 1456              		.cfi_def_cfa_offset 8
 1457              		.cfi_offset 7, -8
 1458              		.cfi_offset 14, -4
 1459 0002 84B0     		sub	sp, sp, #16
 1460              	.LCFI28:
 1461              		.cfi_def_cfa_offset 24
 1462 0004 00AF     		add	r7, sp, #0
ARM GAS  C:\Users\mason\AppData\Local\Temp\ccKXoFR7.s 			page 39


 1463              	.LCFI29:
 1464              		.cfi_def_cfa_register 7
 1465 0006 7860     		str	r0, [r7, #4]
 1466 0008 0A00     		movs	r2, r1
 1467 000a FB1C     		adds	r3, r7, #3
 1468 000c 1A70     		strb	r2, [r3]
 714:Drivers/STM32F0xx_HAL_Driver/Src/stm32f0xx_hal_dma.c ****   HAL_StatusTypeDef status = HAL_OK;
 1469              		.loc 1 714 21
 1470 000e 0F23     		movs	r3, #15
 1471 0010 FB18     		adds	r3, r7, r3
 1472 0012 0022     		movs	r2, #0
 1473 0014 1A70     		strb	r2, [r3]
 715:Drivers/STM32F0xx_HAL_Driver/Src/stm32f0xx_hal_dma.c **** 
 716:Drivers/STM32F0xx_HAL_Driver/Src/stm32f0xx_hal_dma.c ****   /* Process locked */
 717:Drivers/STM32F0xx_HAL_Driver/Src/stm32f0xx_hal_dma.c ****   __HAL_LOCK(hdma);
 1474              		.loc 1 717 3
 1475 0016 7B68     		ldr	r3, [r7, #4]
 1476 0018 2022     		movs	r2, #32
 1477 001a 9B5C     		ldrb	r3, [r3, r2]
 1478 001c 012B     		cmp	r3, #1
 1479 001e 01D1     		bne	.L61
 1480              		.loc 1 717 3 is_stmt 0 discriminator 1
 1481 0020 0223     		movs	r3, #2
 1482 0022 3FE0     		b	.L62
 1483              	.L61:
 1484              		.loc 1 717 3 discriminator 2
 1485 0024 7B68     		ldr	r3, [r7, #4]
 1486 0026 2022     		movs	r2, #32
 1487 0028 0121     		movs	r1, #1
 1488 002a 9954     		strb	r1, [r3, r2]
 718:Drivers/STM32F0xx_HAL_Driver/Src/stm32f0xx_hal_dma.c **** 
 719:Drivers/STM32F0xx_HAL_Driver/Src/stm32f0xx_hal_dma.c ****   if (HAL_DMA_STATE_READY == hdma->State)
 1489              		.loc 1 719 34 is_stmt 1 discriminator 2
 1490 002c 7B68     		ldr	r3, [r7, #4]
 1491 002e 2122     		movs	r2, #33
 1492 0030 9B5C     		ldrb	r3, [r3, r2]
 1493 0032 DBB2     		uxtb	r3, r3
 1494              		.loc 1 719 6 discriminator 2
 1495 0034 012B     		cmp	r3, #1
 1496 0036 2AD1     		bne	.L63
 720:Drivers/STM32F0xx_HAL_Driver/Src/stm32f0xx_hal_dma.c ****   {
 721:Drivers/STM32F0xx_HAL_Driver/Src/stm32f0xx_hal_dma.c ****     switch (CallbackID)
 1497              		.loc 1 721 5
 1498 0038 FB1C     		adds	r3, r7, #3
 1499 003a 1B78     		ldrb	r3, [r3]
 1500 003c 042B     		cmp	r3, #4
 1501 003e 21D8     		bhi	.L64
 1502 0040 9A00     		lsls	r2, r3, #2
 1503 0042 1A4B     		ldr	r3, .L73
 1504 0044 D318     		adds	r3, r2, r3
 1505 0046 1B68     		ldr	r3, [r3]
 1506 0048 9F46     		mov	pc, r3
 1507              		.section	.rodata.HAL_DMA_UnRegisterCallback,"a",%progbits
 1508              		.align	2
 1509              	.L66:
 1510 0000 4A000000 		.word	.L70
 1511 0004 52000000 		.word	.L69
ARM GAS  C:\Users\mason\AppData\Local\Temp\ccKXoFR7.s 			page 40


 1512 0008 5A000000 		.word	.L68
 1513 000c 62000000 		.word	.L67
 1514 0010 6A000000 		.word	.L65
 1515              		.section	.text.HAL_DMA_UnRegisterCallback
 1516              	.L70:
 722:Drivers/STM32F0xx_HAL_Driver/Src/stm32f0xx_hal_dma.c ****     {
 723:Drivers/STM32F0xx_HAL_Driver/Src/stm32f0xx_hal_dma.c ****       case  HAL_DMA_XFER_CPLT_CB_ID:
 724:Drivers/STM32F0xx_HAL_Driver/Src/stm32f0xx_hal_dma.c ****         hdma->XferCpltCallback = NULL;
 1517              		.loc 1 724 32
 1518 004a 7B68     		ldr	r3, [r7, #4]
 1519 004c 0022     		movs	r2, #0
 1520 004e 9A62     		str	r2, [r3, #40]
 725:Drivers/STM32F0xx_HAL_Driver/Src/stm32f0xx_hal_dma.c ****         break;
 1521              		.loc 1 725 9
 1522 0050 21E0     		b	.L72
 1523              	.L69:
 726:Drivers/STM32F0xx_HAL_Driver/Src/stm32f0xx_hal_dma.c **** 
 727:Drivers/STM32F0xx_HAL_Driver/Src/stm32f0xx_hal_dma.c ****       case  HAL_DMA_XFER_HALFCPLT_CB_ID:
 728:Drivers/STM32F0xx_HAL_Driver/Src/stm32f0xx_hal_dma.c ****         hdma->XferHalfCpltCallback = NULL;
 1524              		.loc 1 728 36
 1525 0052 7B68     		ldr	r3, [r7, #4]
 1526 0054 0022     		movs	r2, #0
 1527 0056 DA62     		str	r2, [r3, #44]
 729:Drivers/STM32F0xx_HAL_Driver/Src/stm32f0xx_hal_dma.c ****         break;
 1528              		.loc 1 729 9
 1529 0058 1DE0     		b	.L72
 1530              	.L68:
 730:Drivers/STM32F0xx_HAL_Driver/Src/stm32f0xx_hal_dma.c **** 
 731:Drivers/STM32F0xx_HAL_Driver/Src/stm32f0xx_hal_dma.c ****       case  HAL_DMA_XFER_ERROR_CB_ID:
 732:Drivers/STM32F0xx_HAL_Driver/Src/stm32f0xx_hal_dma.c ****         hdma->XferErrorCallback = NULL;
 1531              		.loc 1 732 33
 1532 005a 7B68     		ldr	r3, [r7, #4]
 1533 005c 0022     		movs	r2, #0
 1534 005e 1A63     		str	r2, [r3, #48]
 733:Drivers/STM32F0xx_HAL_Driver/Src/stm32f0xx_hal_dma.c ****         break;
 1535              		.loc 1 733 9
 1536 0060 19E0     		b	.L72
 1537              	.L67:
 734:Drivers/STM32F0xx_HAL_Driver/Src/stm32f0xx_hal_dma.c **** 
 735:Drivers/STM32F0xx_HAL_Driver/Src/stm32f0xx_hal_dma.c ****       case  HAL_DMA_XFER_ABORT_CB_ID:
 736:Drivers/STM32F0xx_HAL_Driver/Src/stm32f0xx_hal_dma.c ****         hdma->XferAbortCallback = NULL;
 1538              		.loc 1 736 33
 1539 0062 7B68     		ldr	r3, [r7, #4]
 1540 0064 0022     		movs	r2, #0
 1541 0066 5A63     		str	r2, [r3, #52]
 737:Drivers/STM32F0xx_HAL_Driver/Src/stm32f0xx_hal_dma.c ****         break;
 1542              		.loc 1 737 9
 1543 0068 15E0     		b	.L72
 1544              	.L65:
 738:Drivers/STM32F0xx_HAL_Driver/Src/stm32f0xx_hal_dma.c **** 
 739:Drivers/STM32F0xx_HAL_Driver/Src/stm32f0xx_hal_dma.c ****       case   HAL_DMA_XFER_ALL_CB_ID:
 740:Drivers/STM32F0xx_HAL_Driver/Src/stm32f0xx_hal_dma.c ****         hdma->XferCpltCallback = NULL;
 1545              		.loc 1 740 32
 1546 006a 7B68     		ldr	r3, [r7, #4]
 1547 006c 0022     		movs	r2, #0
 1548 006e 9A62     		str	r2, [r3, #40]
 741:Drivers/STM32F0xx_HAL_Driver/Src/stm32f0xx_hal_dma.c ****         hdma->XferHalfCpltCallback = NULL;
ARM GAS  C:\Users\mason\AppData\Local\Temp\ccKXoFR7.s 			page 41


 1549              		.loc 1 741 36
 1550 0070 7B68     		ldr	r3, [r7, #4]
 1551 0072 0022     		movs	r2, #0
 1552 0074 DA62     		str	r2, [r3, #44]
 742:Drivers/STM32F0xx_HAL_Driver/Src/stm32f0xx_hal_dma.c ****         hdma->XferErrorCallback = NULL;
 1553              		.loc 1 742 33
 1554 0076 7B68     		ldr	r3, [r7, #4]
 1555 0078 0022     		movs	r2, #0
 1556 007a 1A63     		str	r2, [r3, #48]
 743:Drivers/STM32F0xx_HAL_Driver/Src/stm32f0xx_hal_dma.c ****         hdma->XferAbortCallback = NULL;
 1557              		.loc 1 743 33
 1558 007c 7B68     		ldr	r3, [r7, #4]
 1559 007e 0022     		movs	r2, #0
 1560 0080 5A63     		str	r2, [r3, #52]
 744:Drivers/STM32F0xx_HAL_Driver/Src/stm32f0xx_hal_dma.c ****         break;
 1561              		.loc 1 744 9
 1562 0082 08E0     		b	.L72
 1563              	.L64:
 745:Drivers/STM32F0xx_HAL_Driver/Src/stm32f0xx_hal_dma.c **** 
 746:Drivers/STM32F0xx_HAL_Driver/Src/stm32f0xx_hal_dma.c ****       default:
 747:Drivers/STM32F0xx_HAL_Driver/Src/stm32f0xx_hal_dma.c ****         status = HAL_ERROR;
 1564              		.loc 1 747 16
 1565 0084 0F23     		movs	r3, #15
 1566 0086 FB18     		adds	r3, r7, r3
 1567 0088 0122     		movs	r2, #1
 1568 008a 1A70     		strb	r2, [r3]
 748:Drivers/STM32F0xx_HAL_Driver/Src/stm32f0xx_hal_dma.c ****         break;
 1569              		.loc 1 748 9
 1570 008c 03E0     		b	.L72
 1571              	.L63:
 749:Drivers/STM32F0xx_HAL_Driver/Src/stm32f0xx_hal_dma.c ****     }
 750:Drivers/STM32F0xx_HAL_Driver/Src/stm32f0xx_hal_dma.c ****   }
 751:Drivers/STM32F0xx_HAL_Driver/Src/stm32f0xx_hal_dma.c ****   else
 752:Drivers/STM32F0xx_HAL_Driver/Src/stm32f0xx_hal_dma.c ****   {
 753:Drivers/STM32F0xx_HAL_Driver/Src/stm32f0xx_hal_dma.c ****     status = HAL_ERROR;
 1572              		.loc 1 753 12
 1573 008e 0F23     		movs	r3, #15
 1574 0090 FB18     		adds	r3, r7, r3
 1575 0092 0122     		movs	r2, #1
 1576 0094 1A70     		strb	r2, [r3]
 1577              	.L72:
 754:Drivers/STM32F0xx_HAL_Driver/Src/stm32f0xx_hal_dma.c ****   }
 755:Drivers/STM32F0xx_HAL_Driver/Src/stm32f0xx_hal_dma.c **** 
 756:Drivers/STM32F0xx_HAL_Driver/Src/stm32f0xx_hal_dma.c ****   /* Release Lock */
 757:Drivers/STM32F0xx_HAL_Driver/Src/stm32f0xx_hal_dma.c ****   __HAL_UNLOCK(hdma);
 1578              		.loc 1 757 3
 1579 0096 7B68     		ldr	r3, [r7, #4]
 1580 0098 2022     		movs	r2, #32
 1581 009a 0021     		movs	r1, #0
 1582 009c 9954     		strb	r1, [r3, r2]
 758:Drivers/STM32F0xx_HAL_Driver/Src/stm32f0xx_hal_dma.c **** 
 759:Drivers/STM32F0xx_HAL_Driver/Src/stm32f0xx_hal_dma.c ****   return status;
 1583              		.loc 1 759 10
 1584 009e 0F23     		movs	r3, #15
 1585 00a0 FB18     		adds	r3, r7, r3
 1586 00a2 1B78     		ldrb	r3, [r3]
 1587              	.L62:
ARM GAS  C:\Users\mason\AppData\Local\Temp\ccKXoFR7.s 			page 42


 760:Drivers/STM32F0xx_HAL_Driver/Src/stm32f0xx_hal_dma.c **** }
 1588              		.loc 1 760 1
 1589 00a4 1800     		movs	r0, r3
 1590 00a6 BD46     		mov	sp, r7
 1591 00a8 04B0     		add	sp, sp, #16
 1592              		@ sp needed
 1593 00aa 80BD     		pop	{r7, pc}
 1594              	.L74:
 1595              		.align	2
 1596              	.L73:
 1597 00ac 00000000 		.word	.L66
 1598              		.cfi_endproc
 1599              	.LFE49:
 1601              		.section	.text.HAL_DMA_GetState,"ax",%progbits
 1602              		.align	1
 1603              		.global	HAL_DMA_GetState
 1604              		.syntax unified
 1605              		.code	16
 1606              		.thumb_func
 1608              	HAL_DMA_GetState:
 1609              	.LFB50:
 761:Drivers/STM32F0xx_HAL_Driver/Src/stm32f0xx_hal_dma.c **** 
 762:Drivers/STM32F0xx_HAL_Driver/Src/stm32f0xx_hal_dma.c **** /**
 763:Drivers/STM32F0xx_HAL_Driver/Src/stm32f0xx_hal_dma.c ****   * @}
 764:Drivers/STM32F0xx_HAL_Driver/Src/stm32f0xx_hal_dma.c ****   */
 765:Drivers/STM32F0xx_HAL_Driver/Src/stm32f0xx_hal_dma.c **** 
 766:Drivers/STM32F0xx_HAL_Driver/Src/stm32f0xx_hal_dma.c **** /** @defgroup DMA_Exported_Functions_Group3 Peripheral State functions
 767:Drivers/STM32F0xx_HAL_Driver/Src/stm32f0xx_hal_dma.c ****  *  @brief    Peripheral State functions
 768:Drivers/STM32F0xx_HAL_Driver/Src/stm32f0xx_hal_dma.c ****  *
 769:Drivers/STM32F0xx_HAL_Driver/Src/stm32f0xx_hal_dma.c **** @verbatim
 770:Drivers/STM32F0xx_HAL_Driver/Src/stm32f0xx_hal_dma.c ****  ===============================================================================
 771:Drivers/STM32F0xx_HAL_Driver/Src/stm32f0xx_hal_dma.c ****                     ##### State and Errors functions #####
 772:Drivers/STM32F0xx_HAL_Driver/Src/stm32f0xx_hal_dma.c ****  ===============================================================================
 773:Drivers/STM32F0xx_HAL_Driver/Src/stm32f0xx_hal_dma.c ****     [..]
 774:Drivers/STM32F0xx_HAL_Driver/Src/stm32f0xx_hal_dma.c ****     This subsection provides functions allowing to
 775:Drivers/STM32F0xx_HAL_Driver/Src/stm32f0xx_hal_dma.c ****       (+) Check the DMA state
 776:Drivers/STM32F0xx_HAL_Driver/Src/stm32f0xx_hal_dma.c ****       (+) Get error code
 777:Drivers/STM32F0xx_HAL_Driver/Src/stm32f0xx_hal_dma.c **** 
 778:Drivers/STM32F0xx_HAL_Driver/Src/stm32f0xx_hal_dma.c **** @endverbatim
 779:Drivers/STM32F0xx_HAL_Driver/Src/stm32f0xx_hal_dma.c ****   * @{
 780:Drivers/STM32F0xx_HAL_Driver/Src/stm32f0xx_hal_dma.c ****   */
 781:Drivers/STM32F0xx_HAL_Driver/Src/stm32f0xx_hal_dma.c **** 
 782:Drivers/STM32F0xx_HAL_Driver/Src/stm32f0xx_hal_dma.c **** /**
 783:Drivers/STM32F0xx_HAL_Driver/Src/stm32f0xx_hal_dma.c ****   * @brief  Returns the DMA state.
 784:Drivers/STM32F0xx_HAL_Driver/Src/stm32f0xx_hal_dma.c ****   * @param  hdma pointer to a DMA_HandleTypeDef structure that contains
 785:Drivers/STM32F0xx_HAL_Driver/Src/stm32f0xx_hal_dma.c ****   *               the configuration information for the specified DMA Channel.
 786:Drivers/STM32F0xx_HAL_Driver/Src/stm32f0xx_hal_dma.c ****   * @retval HAL state
 787:Drivers/STM32F0xx_HAL_Driver/Src/stm32f0xx_hal_dma.c ****   */
 788:Drivers/STM32F0xx_HAL_Driver/Src/stm32f0xx_hal_dma.c **** HAL_DMA_StateTypeDef HAL_DMA_GetState(DMA_HandleTypeDef *hdma)
 789:Drivers/STM32F0xx_HAL_Driver/Src/stm32f0xx_hal_dma.c **** {
 1610              		.loc 1 789 1
 1611              		.cfi_startproc
 1612              		@ args = 0, pretend = 0, frame = 8
 1613              		@ frame_needed = 1, uses_anonymous_args = 0
 1614 0000 80B5     		push	{r7, lr}
 1615              	.LCFI30:
 1616              		.cfi_def_cfa_offset 8
ARM GAS  C:\Users\mason\AppData\Local\Temp\ccKXoFR7.s 			page 43


 1617              		.cfi_offset 7, -8
 1618              		.cfi_offset 14, -4
 1619 0002 82B0     		sub	sp, sp, #8
 1620              	.LCFI31:
 1621              		.cfi_def_cfa_offset 16
 1622 0004 00AF     		add	r7, sp, #0
 1623              	.LCFI32:
 1624              		.cfi_def_cfa_register 7
 1625 0006 7860     		str	r0, [r7, #4]
 790:Drivers/STM32F0xx_HAL_Driver/Src/stm32f0xx_hal_dma.c ****   return hdma->State;
 1626              		.loc 1 790 14
 1627 0008 7B68     		ldr	r3, [r7, #4]
 1628 000a 2122     		movs	r2, #33
 1629 000c 9B5C     		ldrb	r3, [r3, r2]
 1630 000e DBB2     		uxtb	r3, r3
 791:Drivers/STM32F0xx_HAL_Driver/Src/stm32f0xx_hal_dma.c **** }
 1631              		.loc 1 791 1
 1632 0010 1800     		movs	r0, r3
 1633 0012 BD46     		mov	sp, r7
 1634 0014 02B0     		add	sp, sp, #8
 1635              		@ sp needed
 1636 0016 80BD     		pop	{r7, pc}
 1637              		.cfi_endproc
 1638              	.LFE50:
 1640              		.section	.text.HAL_DMA_GetError,"ax",%progbits
 1641              		.align	1
 1642              		.global	HAL_DMA_GetError
 1643              		.syntax unified
 1644              		.code	16
 1645              		.thumb_func
 1647              	HAL_DMA_GetError:
 1648              	.LFB51:
 792:Drivers/STM32F0xx_HAL_Driver/Src/stm32f0xx_hal_dma.c **** 
 793:Drivers/STM32F0xx_HAL_Driver/Src/stm32f0xx_hal_dma.c **** /**
 794:Drivers/STM32F0xx_HAL_Driver/Src/stm32f0xx_hal_dma.c ****   * @brief  Return the DMA error code
 795:Drivers/STM32F0xx_HAL_Driver/Src/stm32f0xx_hal_dma.c ****   * @param  hdma pointer to a DMA_HandleTypeDef structure that contains
 796:Drivers/STM32F0xx_HAL_Driver/Src/stm32f0xx_hal_dma.c ****   *              the configuration information for the specified DMA Channel.
 797:Drivers/STM32F0xx_HAL_Driver/Src/stm32f0xx_hal_dma.c ****   * @retval DMA Error Code
 798:Drivers/STM32F0xx_HAL_Driver/Src/stm32f0xx_hal_dma.c ****   */
 799:Drivers/STM32F0xx_HAL_Driver/Src/stm32f0xx_hal_dma.c **** uint32_t HAL_DMA_GetError(DMA_HandleTypeDef *hdma)
 800:Drivers/STM32F0xx_HAL_Driver/Src/stm32f0xx_hal_dma.c **** {
 1649              		.loc 1 800 1
 1650              		.cfi_startproc
 1651              		@ args = 0, pretend = 0, frame = 8
 1652              		@ frame_needed = 1, uses_anonymous_args = 0
 1653 0000 80B5     		push	{r7, lr}
 1654              	.LCFI33:
 1655              		.cfi_def_cfa_offset 8
 1656              		.cfi_offset 7, -8
 1657              		.cfi_offset 14, -4
 1658 0002 82B0     		sub	sp, sp, #8
 1659              	.LCFI34:
 1660              		.cfi_def_cfa_offset 16
 1661 0004 00AF     		add	r7, sp, #0
 1662              	.LCFI35:
 1663              		.cfi_def_cfa_register 7
 1664 0006 7860     		str	r0, [r7, #4]
ARM GAS  C:\Users\mason\AppData\Local\Temp\ccKXoFR7.s 			page 44


 801:Drivers/STM32F0xx_HAL_Driver/Src/stm32f0xx_hal_dma.c ****   return hdma->ErrorCode;
 1665              		.loc 1 801 14
 1666 0008 7B68     		ldr	r3, [r7, #4]
 1667 000a 9B6B     		ldr	r3, [r3, #56]
 802:Drivers/STM32F0xx_HAL_Driver/Src/stm32f0xx_hal_dma.c **** }
 1668              		.loc 1 802 1
 1669 000c 1800     		movs	r0, r3
 1670 000e BD46     		mov	sp, r7
 1671 0010 02B0     		add	sp, sp, #8
 1672              		@ sp needed
 1673 0012 80BD     		pop	{r7, pc}
 1674              		.cfi_endproc
 1675              	.LFE51:
 1677              		.section	.text.DMA_SetConfig,"ax",%progbits
 1678              		.align	1
 1679              		.syntax unified
 1680              		.code	16
 1681              		.thumb_func
 1683              	DMA_SetConfig:
 1684              	.LFB52:
 803:Drivers/STM32F0xx_HAL_Driver/Src/stm32f0xx_hal_dma.c **** 
 804:Drivers/STM32F0xx_HAL_Driver/Src/stm32f0xx_hal_dma.c **** /**
 805:Drivers/STM32F0xx_HAL_Driver/Src/stm32f0xx_hal_dma.c ****   * @}
 806:Drivers/STM32F0xx_HAL_Driver/Src/stm32f0xx_hal_dma.c ****   */
 807:Drivers/STM32F0xx_HAL_Driver/Src/stm32f0xx_hal_dma.c **** 
 808:Drivers/STM32F0xx_HAL_Driver/Src/stm32f0xx_hal_dma.c **** /**
 809:Drivers/STM32F0xx_HAL_Driver/Src/stm32f0xx_hal_dma.c ****   * @}
 810:Drivers/STM32F0xx_HAL_Driver/Src/stm32f0xx_hal_dma.c ****   */
 811:Drivers/STM32F0xx_HAL_Driver/Src/stm32f0xx_hal_dma.c **** 
 812:Drivers/STM32F0xx_HAL_Driver/Src/stm32f0xx_hal_dma.c **** /** @addtogroup DMA_Private_Functions
 813:Drivers/STM32F0xx_HAL_Driver/Src/stm32f0xx_hal_dma.c ****   * @{
 814:Drivers/STM32F0xx_HAL_Driver/Src/stm32f0xx_hal_dma.c ****   */
 815:Drivers/STM32F0xx_HAL_Driver/Src/stm32f0xx_hal_dma.c **** 
 816:Drivers/STM32F0xx_HAL_Driver/Src/stm32f0xx_hal_dma.c **** /**
 817:Drivers/STM32F0xx_HAL_Driver/Src/stm32f0xx_hal_dma.c ****   * @brief  Set the DMA Transfer parameters.
 818:Drivers/STM32F0xx_HAL_Driver/Src/stm32f0xx_hal_dma.c ****   * @param  hdma       pointer to a DMA_HandleTypeDef structure that contains
 819:Drivers/STM32F0xx_HAL_Driver/Src/stm32f0xx_hal_dma.c ****   *                     the configuration information for the specified DMA Channel.
 820:Drivers/STM32F0xx_HAL_Driver/Src/stm32f0xx_hal_dma.c ****   * @param  SrcAddress The source memory Buffer address
 821:Drivers/STM32F0xx_HAL_Driver/Src/stm32f0xx_hal_dma.c ****   * @param  DstAddress The destination memory Buffer address
 822:Drivers/STM32F0xx_HAL_Driver/Src/stm32f0xx_hal_dma.c ****   * @param  DataLength The length of data to be transferred from source to destination
 823:Drivers/STM32F0xx_HAL_Driver/Src/stm32f0xx_hal_dma.c ****   * @retval HAL status
 824:Drivers/STM32F0xx_HAL_Driver/Src/stm32f0xx_hal_dma.c ****   */
 825:Drivers/STM32F0xx_HAL_Driver/Src/stm32f0xx_hal_dma.c **** static void DMA_SetConfig(DMA_HandleTypeDef *hdma, uint32_t SrcAddress, uint32_t DstAddress, uint32
 826:Drivers/STM32F0xx_HAL_Driver/Src/stm32f0xx_hal_dma.c **** {
 1685              		.loc 1 826 1
 1686              		.cfi_startproc
 1687              		@ args = 0, pretend = 0, frame = 16
 1688              		@ frame_needed = 1, uses_anonymous_args = 0
 1689 0000 80B5     		push	{r7, lr}
 1690              	.LCFI36:
 1691              		.cfi_def_cfa_offset 8
 1692              		.cfi_offset 7, -8
 1693              		.cfi_offset 14, -4
 1694 0002 84B0     		sub	sp, sp, #16
 1695              	.LCFI37:
 1696              		.cfi_def_cfa_offset 24
 1697 0004 00AF     		add	r7, sp, #0
ARM GAS  C:\Users\mason\AppData\Local\Temp\ccKXoFR7.s 			page 45


 1698              	.LCFI38:
 1699              		.cfi_def_cfa_register 7
 1700 0006 F860     		str	r0, [r7, #12]
 1701 0008 B960     		str	r1, [r7, #8]
 1702 000a 7A60     		str	r2, [r7, #4]
 1703 000c 3B60     		str	r3, [r7]
 827:Drivers/STM32F0xx_HAL_Driver/Src/stm32f0xx_hal_dma.c ****   /* Clear all flags */
 828:Drivers/STM32F0xx_HAL_Driver/Src/stm32f0xx_hal_dma.c ****   hdma->DmaBaseAddress->IFCR  = (DMA_FLAG_GL1 << hdma->ChannelIndex);
 1704              		.loc 1 828 54
 1705 000e FB68     		ldr	r3, [r7, #12]
 1706 0010 1A6C     		ldr	r2, [r3, #64]
 1707              		.loc 1 828 7
 1708 0012 FB68     		ldr	r3, [r7, #12]
 1709 0014 DB6B     		ldr	r3, [r3, #60]
 1710              		.loc 1 828 47
 1711 0016 0121     		movs	r1, #1
 1712 0018 9140     		lsls	r1, r1, r2
 1713 001a 0A00     		movs	r2, r1
 1714              		.loc 1 828 31
 1715 001c 5A60     		str	r2, [r3, #4]
 829:Drivers/STM32F0xx_HAL_Driver/Src/stm32f0xx_hal_dma.c **** 
 830:Drivers/STM32F0xx_HAL_Driver/Src/stm32f0xx_hal_dma.c ****   /* Configure DMA Channel data length */
 831:Drivers/STM32F0xx_HAL_Driver/Src/stm32f0xx_hal_dma.c ****   hdma->Instance->CNDTR = DataLength;
 1716              		.loc 1 831 7
 1717 001e FB68     		ldr	r3, [r7, #12]
 1718 0020 1B68     		ldr	r3, [r3]
 1719              		.loc 1 831 25
 1720 0022 3A68     		ldr	r2, [r7]
 1721 0024 5A60     		str	r2, [r3, #4]
 832:Drivers/STM32F0xx_HAL_Driver/Src/stm32f0xx_hal_dma.c **** 
 833:Drivers/STM32F0xx_HAL_Driver/Src/stm32f0xx_hal_dma.c ****   /* Memory to Peripheral */
 834:Drivers/STM32F0xx_HAL_Driver/Src/stm32f0xx_hal_dma.c ****   if ((hdma->Init.Direction) == DMA_MEMORY_TO_PERIPH)
 1722              		.loc 1 834 18
 1723 0026 FB68     		ldr	r3, [r7, #12]
 1724 0028 5B68     		ldr	r3, [r3, #4]
 1725              		.loc 1 834 6
 1726 002a 102B     		cmp	r3, #16
 1727 002c 08D1     		bne	.L80
 835:Drivers/STM32F0xx_HAL_Driver/Src/stm32f0xx_hal_dma.c ****   {
 836:Drivers/STM32F0xx_HAL_Driver/Src/stm32f0xx_hal_dma.c ****     /* Configure DMA Channel destination address */
 837:Drivers/STM32F0xx_HAL_Driver/Src/stm32f0xx_hal_dma.c ****     hdma->Instance->CPAR = DstAddress;
 1728              		.loc 1 837 9
 1729 002e FB68     		ldr	r3, [r7, #12]
 1730 0030 1B68     		ldr	r3, [r3]
 1731              		.loc 1 837 26
 1732 0032 7A68     		ldr	r2, [r7, #4]
 1733 0034 9A60     		str	r2, [r3, #8]
 838:Drivers/STM32F0xx_HAL_Driver/Src/stm32f0xx_hal_dma.c **** 
 839:Drivers/STM32F0xx_HAL_Driver/Src/stm32f0xx_hal_dma.c ****     /* Configure DMA Channel source address */
 840:Drivers/STM32F0xx_HAL_Driver/Src/stm32f0xx_hal_dma.c ****     hdma->Instance->CMAR = SrcAddress;
 1734              		.loc 1 840 9
 1735 0036 FB68     		ldr	r3, [r7, #12]
 1736 0038 1B68     		ldr	r3, [r3]
 1737              		.loc 1 840 26
 1738 003a BA68     		ldr	r2, [r7, #8]
 1739 003c DA60     		str	r2, [r3, #12]
 841:Drivers/STM32F0xx_HAL_Driver/Src/stm32f0xx_hal_dma.c ****   }
ARM GAS  C:\Users\mason\AppData\Local\Temp\ccKXoFR7.s 			page 46


 842:Drivers/STM32F0xx_HAL_Driver/Src/stm32f0xx_hal_dma.c ****   /* Peripheral to Memory */
 843:Drivers/STM32F0xx_HAL_Driver/Src/stm32f0xx_hal_dma.c ****   else
 844:Drivers/STM32F0xx_HAL_Driver/Src/stm32f0xx_hal_dma.c ****   {
 845:Drivers/STM32F0xx_HAL_Driver/Src/stm32f0xx_hal_dma.c ****     /* Configure DMA Channel source address */
 846:Drivers/STM32F0xx_HAL_Driver/Src/stm32f0xx_hal_dma.c ****     hdma->Instance->CPAR = SrcAddress;
 847:Drivers/STM32F0xx_HAL_Driver/Src/stm32f0xx_hal_dma.c **** 
 848:Drivers/STM32F0xx_HAL_Driver/Src/stm32f0xx_hal_dma.c ****     /* Configure DMA Channel destination address */
 849:Drivers/STM32F0xx_HAL_Driver/Src/stm32f0xx_hal_dma.c ****     hdma->Instance->CMAR = DstAddress;
 850:Drivers/STM32F0xx_HAL_Driver/Src/stm32f0xx_hal_dma.c ****   }
 851:Drivers/STM32F0xx_HAL_Driver/Src/stm32f0xx_hal_dma.c **** }
 1740              		.loc 1 851 1
 1741 003e 07E0     		b	.L82
 1742              	.L80:
 846:Drivers/STM32F0xx_HAL_Driver/Src/stm32f0xx_hal_dma.c **** 
 1743              		.loc 1 846 9
 1744 0040 FB68     		ldr	r3, [r7, #12]
 1745 0042 1B68     		ldr	r3, [r3]
 846:Drivers/STM32F0xx_HAL_Driver/Src/stm32f0xx_hal_dma.c **** 
 1746              		.loc 1 846 26
 1747 0044 BA68     		ldr	r2, [r7, #8]
 1748 0046 9A60     		str	r2, [r3, #8]
 849:Drivers/STM32F0xx_HAL_Driver/Src/stm32f0xx_hal_dma.c ****   }
 1749              		.loc 1 849 9
 1750 0048 FB68     		ldr	r3, [r7, #12]
 1751 004a 1B68     		ldr	r3, [r3]
 849:Drivers/STM32F0xx_HAL_Driver/Src/stm32f0xx_hal_dma.c ****   }
 1752              		.loc 1 849 26
 1753 004c 7A68     		ldr	r2, [r7, #4]
 1754 004e DA60     		str	r2, [r3, #12]
 1755              	.L82:
 1756              		.loc 1 851 1
 1757 0050 C046     		nop
 1758 0052 BD46     		mov	sp, r7
 1759 0054 04B0     		add	sp, sp, #16
 1760              		@ sp needed
 1761 0056 80BD     		pop	{r7, pc}
 1762              		.cfi_endproc
 1763              	.LFE52:
 1765              		.global	__aeabi_uidiv
 1766              		.section	.text.DMA_CalcBaseAndBitshift,"ax",%progbits
 1767              		.align	1
 1768              		.syntax unified
 1769              		.code	16
 1770              		.thumb_func
 1772              	DMA_CalcBaseAndBitshift:
 1773              	.LFB53:
 852:Drivers/STM32F0xx_HAL_Driver/Src/stm32f0xx_hal_dma.c **** 
 853:Drivers/STM32F0xx_HAL_Driver/Src/stm32f0xx_hal_dma.c **** /**
 854:Drivers/STM32F0xx_HAL_Driver/Src/stm32f0xx_hal_dma.c ****   * @brief  set the DMA base address and channel index depending on DMA instance
 855:Drivers/STM32F0xx_HAL_Driver/Src/stm32f0xx_hal_dma.c ****   * @param  hdma       pointer to a DMA_HandleTypeDef structure that contains
 856:Drivers/STM32F0xx_HAL_Driver/Src/stm32f0xx_hal_dma.c ****   *                     the configuration information for the specified DMA Stream.
 857:Drivers/STM32F0xx_HAL_Driver/Src/stm32f0xx_hal_dma.c ****   * @retval None
 858:Drivers/STM32F0xx_HAL_Driver/Src/stm32f0xx_hal_dma.c ****   */
 859:Drivers/STM32F0xx_HAL_Driver/Src/stm32f0xx_hal_dma.c **** static void DMA_CalcBaseAndBitshift(DMA_HandleTypeDef *hdma)
 860:Drivers/STM32F0xx_HAL_Driver/Src/stm32f0xx_hal_dma.c **** {
 1774              		.loc 1 860 1
 1775              		.cfi_startproc
ARM GAS  C:\Users\mason\AppData\Local\Temp\ccKXoFR7.s 			page 47


 1776              		@ args = 0, pretend = 0, frame = 8
 1777              		@ frame_needed = 1, uses_anonymous_args = 0
 1778 0000 80B5     		push	{r7, lr}
 1779              	.LCFI39:
 1780              		.cfi_def_cfa_offset 8
 1781              		.cfi_offset 7, -8
 1782              		.cfi_offset 14, -4
 1783 0002 82B0     		sub	sp, sp, #8
 1784              	.LCFI40:
 1785              		.cfi_def_cfa_offset 16
 1786 0004 00AF     		add	r7, sp, #0
 1787              	.LCFI41:
 1788              		.cfi_def_cfa_register 7
 1789 0006 7860     		str	r0, [r7, #4]
 861:Drivers/STM32F0xx_HAL_Driver/Src/stm32f0xx_hal_dma.c **** #if defined (DMA2)
 862:Drivers/STM32F0xx_HAL_Driver/Src/stm32f0xx_hal_dma.c ****   /* calculation of the channel index */
 863:Drivers/STM32F0xx_HAL_Driver/Src/stm32f0xx_hal_dma.c ****   if ((uint32_t)(hdma->Instance) < (uint32_t)(DMA2_Channel1))
 864:Drivers/STM32F0xx_HAL_Driver/Src/stm32f0xx_hal_dma.c ****   {
 865:Drivers/STM32F0xx_HAL_Driver/Src/stm32f0xx_hal_dma.c ****     /* DMA1 */
 866:Drivers/STM32F0xx_HAL_Driver/Src/stm32f0xx_hal_dma.c ****     hdma->ChannelIndex = (((uint32_t)hdma->Instance - (uint32_t)DMA1_Channel1) / ((uint32_t)DMA1_Ch
 867:Drivers/STM32F0xx_HAL_Driver/Src/stm32f0xx_hal_dma.c ****     hdma->DmaBaseAddress = DMA1;
 868:Drivers/STM32F0xx_HAL_Driver/Src/stm32f0xx_hal_dma.c ****   }
 869:Drivers/STM32F0xx_HAL_Driver/Src/stm32f0xx_hal_dma.c ****   else
 870:Drivers/STM32F0xx_HAL_Driver/Src/stm32f0xx_hal_dma.c ****   {
 871:Drivers/STM32F0xx_HAL_Driver/Src/stm32f0xx_hal_dma.c ****     /* DMA2 */
 872:Drivers/STM32F0xx_HAL_Driver/Src/stm32f0xx_hal_dma.c ****     hdma->ChannelIndex = (((uint32_t)hdma->Instance - (uint32_t)DMA2_Channel1) / ((uint32_t)DMA2_Ch
 873:Drivers/STM32F0xx_HAL_Driver/Src/stm32f0xx_hal_dma.c ****     hdma->DmaBaseAddress = DMA2;
 874:Drivers/STM32F0xx_HAL_Driver/Src/stm32f0xx_hal_dma.c ****   }
 875:Drivers/STM32F0xx_HAL_Driver/Src/stm32f0xx_hal_dma.c **** #else
 876:Drivers/STM32F0xx_HAL_Driver/Src/stm32f0xx_hal_dma.c ****   /* calculation of the channel index */
 877:Drivers/STM32F0xx_HAL_Driver/Src/stm32f0xx_hal_dma.c ****   /* DMA1 */
 878:Drivers/STM32F0xx_HAL_Driver/Src/stm32f0xx_hal_dma.c ****   hdma->ChannelIndex = (((uint32_t)hdma->Instance - (uint32_t)DMA1_Channel1) / ((uint32_t)DMA1_Chan
 1790              		.loc 1 878 40
 1791 0008 7B68     		ldr	r3, [r7, #4]
 1792 000a 1B68     		ldr	r3, [r3]
 1793              		.loc 1 878 51
 1794 000c 084A     		ldr	r2, .L84
 1795 000e 9446     		mov	ip, r2
 1796 0010 6344     		add	r3, r3, ip
 1797              		.loc 1 878 78
 1798 0012 1421     		movs	r1, #20
 1799 0014 1800     		movs	r0, r3
 1800 0016 FFF7FEFF 		bl	__aeabi_uidiv
 1801 001a 0300     		movs	r3, r0
 1802              		.loc 1 878 133
 1803 001c 9A00     		lsls	r2, r3, #2
 1804              		.loc 1 878 22
 1805 001e 7B68     		ldr	r3, [r7, #4]
 1806 0020 1A64     		str	r2, [r3, #64]
 879:Drivers/STM32F0xx_HAL_Driver/Src/stm32f0xx_hal_dma.c ****   hdma->DmaBaseAddress = DMA1;
 1807              		.loc 1 879 24
 1808 0022 7B68     		ldr	r3, [r7, #4]
 1809 0024 034A     		ldr	r2, .L84+4
 1810 0026 DA63     		str	r2, [r3, #60]
 880:Drivers/STM32F0xx_HAL_Driver/Src/stm32f0xx_hal_dma.c **** #endif
 881:Drivers/STM32F0xx_HAL_Driver/Src/stm32f0xx_hal_dma.c **** }
 1811              		.loc 1 881 1
ARM GAS  C:\Users\mason\AppData\Local\Temp\ccKXoFR7.s 			page 48


 1812 0028 C046     		nop
 1813 002a BD46     		mov	sp, r7
 1814 002c 02B0     		add	sp, sp, #8
 1815              		@ sp needed
 1816 002e 80BD     		pop	{r7, pc}
 1817              	.L85:
 1818              		.align	2
 1819              	.L84:
 1820 0030 F8FFFDBF 		.word	-1073872904
 1821 0034 00000240 		.word	1073872896
 1822              		.cfi_endproc
 1823              	.LFE53:
 1825              		.text
 1826              	.Letext0:
 1827              		.file 2 "c:\\program files (x86)\\openocdarmgccbuildtools\\gcc-arm-none-eabi-10.3-2021.10-win32\\a
 1828              		.file 3 "c:\\program files (x86)\\openocdarmgccbuildtools\\gcc-arm-none-eabi-10.3-2021.10-win32\\a
 1829              		.file 4 "Drivers/CMSIS/Device/ST/STM32F0xx/Include/stm32f031x6.h"
 1830              		.file 5 "Drivers/CMSIS/Device/ST/STM32F0xx/Include/stm32f0xx.h"
 1831              		.file 6 "Drivers/STM32F0xx_HAL_Driver/Inc/stm32f0xx_hal_def.h"
 1832              		.file 7 "Drivers/STM32F0xx_HAL_Driver/Inc/stm32f0xx_hal_dma.h"
ARM GAS  C:\Users\mason\AppData\Local\Temp\ccKXoFR7.s 			page 49

