ARM GAS  C:\Users\mason\AppData\Local\Temp\ccjQlUU9.s 			page 1


   1              		.cpu cortex-m0
   2              		.arch armv6s-m
   3              		.fpu softvfp
   4              		.eabi_attribute 20, 1
   5              		.eabi_attribute 21, 1
   6              		.eabi_attribute 23, 3
   7              		.eabi_attribute 24, 1
   8              		.eabi_attribute 25, 1
   9              		.eabi_attribute 26, 1
  10              		.eabi_attribute 30, 6
  11              		.eabi_attribute 34, 0
  12              		.eabi_attribute 18, 4
  13              		.file	"stm32f0xx_hal_adc_ex.c"
  14              		.text
  15              	.Ltext0:
  16              		.cfi_sections	.debug_frame
  17              		.section	.text.HAL_ADCEx_Calibration_Start,"ax",%progbits
  18              		.align	1
  19              		.global	HAL_ADCEx_Calibration_Start
  20              		.syntax unified
  21              		.code	16
  22              		.thumb_func
  24              	HAL_ADCEx_Calibration_Start:
  25              	.LFB40:
  26              		.file 1 "Drivers/STM32F0xx_HAL_Driver/Src/stm32f0xx_hal_adc_ex.c"
   1:Drivers/STM32F0xx_HAL_Driver/Src/stm32f0xx_hal_adc_ex.c **** /**
   2:Drivers/STM32F0xx_HAL_Driver/Src/stm32f0xx_hal_adc_ex.c ****   ******************************************************************************
   3:Drivers/STM32F0xx_HAL_Driver/Src/stm32f0xx_hal_adc_ex.c ****   * @file    stm32f0xx_hal_adc_ex.c
   4:Drivers/STM32F0xx_HAL_Driver/Src/stm32f0xx_hal_adc_ex.c ****   * @author  MCD Application Team
   5:Drivers/STM32F0xx_HAL_Driver/Src/stm32f0xx_hal_adc_ex.c ****   * @brief   This file provides firmware functions to manage the following 
   6:Drivers/STM32F0xx_HAL_Driver/Src/stm32f0xx_hal_adc_ex.c ****   *          functionalities of the Analog to Digital Convertor (ADC)
   7:Drivers/STM32F0xx_HAL_Driver/Src/stm32f0xx_hal_adc_ex.c ****   *          peripheral:
   8:Drivers/STM32F0xx_HAL_Driver/Src/stm32f0xx_hal_adc_ex.c ****   *           + Peripheral Control functions
   9:Drivers/STM32F0xx_HAL_Driver/Src/stm32f0xx_hal_adc_ex.c ****   *          Other functions (generic functions) are available in file 
  10:Drivers/STM32F0xx_HAL_Driver/Src/stm32f0xx_hal_adc_ex.c ****   *          "stm32f0xx_hal_adc.c".
  11:Drivers/STM32F0xx_HAL_Driver/Src/stm32f0xx_hal_adc_ex.c ****   *
  12:Drivers/STM32F0xx_HAL_Driver/Src/stm32f0xx_hal_adc_ex.c ****   ******************************************************************************
  13:Drivers/STM32F0xx_HAL_Driver/Src/stm32f0xx_hal_adc_ex.c ****   * @attention
  14:Drivers/STM32F0xx_HAL_Driver/Src/stm32f0xx_hal_adc_ex.c ****   *
  15:Drivers/STM32F0xx_HAL_Driver/Src/stm32f0xx_hal_adc_ex.c ****   * Copyright (c) 2016 STMicroelectronics.
  16:Drivers/STM32F0xx_HAL_Driver/Src/stm32f0xx_hal_adc_ex.c ****   * All rights reserved.
  17:Drivers/STM32F0xx_HAL_Driver/Src/stm32f0xx_hal_adc_ex.c ****   *
  18:Drivers/STM32F0xx_HAL_Driver/Src/stm32f0xx_hal_adc_ex.c ****   * This software is licensed under terms that can be found in the LICENSE file
  19:Drivers/STM32F0xx_HAL_Driver/Src/stm32f0xx_hal_adc_ex.c ****   * in the root directory of this software component.
  20:Drivers/STM32F0xx_HAL_Driver/Src/stm32f0xx_hal_adc_ex.c ****   * If no LICENSE file comes with this software, it is provided AS-IS.
  21:Drivers/STM32F0xx_HAL_Driver/Src/stm32f0xx_hal_adc_ex.c ****   *
  22:Drivers/STM32F0xx_HAL_Driver/Src/stm32f0xx_hal_adc_ex.c ****   ******************************************************************************
  23:Drivers/STM32F0xx_HAL_Driver/Src/stm32f0xx_hal_adc_ex.c ****   @verbatim
  24:Drivers/STM32F0xx_HAL_Driver/Src/stm32f0xx_hal_adc_ex.c ****   [..] 
  25:Drivers/STM32F0xx_HAL_Driver/Src/stm32f0xx_hal_adc_ex.c ****   (@) Sections "ADC peripheral features" and "How to use this driver" are
  26:Drivers/STM32F0xx_HAL_Driver/Src/stm32f0xx_hal_adc_ex.c ****       available in file of generic functions "stm32l1xx_hal_adc.c".
  27:Drivers/STM32F0xx_HAL_Driver/Src/stm32f0xx_hal_adc_ex.c ****   [..]
  28:Drivers/STM32F0xx_HAL_Driver/Src/stm32f0xx_hal_adc_ex.c ****   @endverbatim
  29:Drivers/STM32F0xx_HAL_Driver/Src/stm32f0xx_hal_adc_ex.c ****   */
  30:Drivers/STM32F0xx_HAL_Driver/Src/stm32f0xx_hal_adc_ex.c **** 
  31:Drivers/STM32F0xx_HAL_Driver/Src/stm32f0xx_hal_adc_ex.c **** /* Includes ------------------------------------------------------------------*/
  32:Drivers/STM32F0xx_HAL_Driver/Src/stm32f0xx_hal_adc_ex.c **** #include "stm32f0xx_hal.h"
ARM GAS  C:\Users\mason\AppData\Local\Temp\ccjQlUU9.s 			page 2


  33:Drivers/STM32F0xx_HAL_Driver/Src/stm32f0xx_hal_adc_ex.c **** 
  34:Drivers/STM32F0xx_HAL_Driver/Src/stm32f0xx_hal_adc_ex.c **** /** @addtogroup STM32F0xx_HAL_Driver
  35:Drivers/STM32F0xx_HAL_Driver/Src/stm32f0xx_hal_adc_ex.c ****   * @{
  36:Drivers/STM32F0xx_HAL_Driver/Src/stm32f0xx_hal_adc_ex.c ****   */
  37:Drivers/STM32F0xx_HAL_Driver/Src/stm32f0xx_hal_adc_ex.c **** 
  38:Drivers/STM32F0xx_HAL_Driver/Src/stm32f0xx_hal_adc_ex.c **** /** @defgroup ADCEx ADCEx
  39:Drivers/STM32F0xx_HAL_Driver/Src/stm32f0xx_hal_adc_ex.c ****   * @brief ADC HAL module driver
  40:Drivers/STM32F0xx_HAL_Driver/Src/stm32f0xx_hal_adc_ex.c ****   * @{
  41:Drivers/STM32F0xx_HAL_Driver/Src/stm32f0xx_hal_adc_ex.c ****   */
  42:Drivers/STM32F0xx_HAL_Driver/Src/stm32f0xx_hal_adc_ex.c **** 
  43:Drivers/STM32F0xx_HAL_Driver/Src/stm32f0xx_hal_adc_ex.c **** #ifdef HAL_ADC_MODULE_ENABLED
  44:Drivers/STM32F0xx_HAL_Driver/Src/stm32f0xx_hal_adc_ex.c **** 
  45:Drivers/STM32F0xx_HAL_Driver/Src/stm32f0xx_hal_adc_ex.c **** /* Private typedef -----------------------------------------------------------*/
  46:Drivers/STM32F0xx_HAL_Driver/Src/stm32f0xx_hal_adc_ex.c **** /* Private define ------------------------------------------------------------*/
  47:Drivers/STM32F0xx_HAL_Driver/Src/stm32f0xx_hal_adc_ex.c **** /** @defgroup ADCEx_Private_Constants ADCEx Private Constants
  48:Drivers/STM32F0xx_HAL_Driver/Src/stm32f0xx_hal_adc_ex.c ****   * @{
  49:Drivers/STM32F0xx_HAL_Driver/Src/stm32f0xx_hal_adc_ex.c ****   */ 
  50:Drivers/STM32F0xx_HAL_Driver/Src/stm32f0xx_hal_adc_ex.c ****  
  51:Drivers/STM32F0xx_HAL_Driver/Src/stm32f0xx_hal_adc_ex.c **** /* Fixed timeout values for ADC calibration, enable settling time, disable  */
  52:Drivers/STM32F0xx_HAL_Driver/Src/stm32f0xx_hal_adc_ex.c ****   /* settling time.                                                           */
  53:Drivers/STM32F0xx_HAL_Driver/Src/stm32f0xx_hal_adc_ex.c ****   /* Values defined to be higher than worst cases: low clock frequency,       */
  54:Drivers/STM32F0xx_HAL_Driver/Src/stm32f0xx_hal_adc_ex.c ****   /* maximum prescaler.                                                       */
  55:Drivers/STM32F0xx_HAL_Driver/Src/stm32f0xx_hal_adc_ex.c ****   /* Ex of profile low frequency : Clock source at 0.1 MHz, ADC clock         */
  56:Drivers/STM32F0xx_HAL_Driver/Src/stm32f0xx_hal_adc_ex.c ****   /* prescaler 4.                                                             */
  57:Drivers/STM32F0xx_HAL_Driver/Src/stm32f0xx_hal_adc_ex.c ****   /* Unit: ms                                                                 */
  58:Drivers/STM32F0xx_HAL_Driver/Src/stm32f0xx_hal_adc_ex.c ****   #define ADC_DISABLE_TIMEOUT           2
  59:Drivers/STM32F0xx_HAL_Driver/Src/stm32f0xx_hal_adc_ex.c ****   #define ADC_CALIBRATION_TIMEOUT       2U      
  60:Drivers/STM32F0xx_HAL_Driver/Src/stm32f0xx_hal_adc_ex.c **** /**
  61:Drivers/STM32F0xx_HAL_Driver/Src/stm32f0xx_hal_adc_ex.c ****   * @}
  62:Drivers/STM32F0xx_HAL_Driver/Src/stm32f0xx_hal_adc_ex.c ****   */
  63:Drivers/STM32F0xx_HAL_Driver/Src/stm32f0xx_hal_adc_ex.c **** 
  64:Drivers/STM32F0xx_HAL_Driver/Src/stm32f0xx_hal_adc_ex.c **** /* Private macros -------------------------------------------------------------*/
  65:Drivers/STM32F0xx_HAL_Driver/Src/stm32f0xx_hal_adc_ex.c **** /* Private variables ---------------------------------------------------------*/
  66:Drivers/STM32F0xx_HAL_Driver/Src/stm32f0xx_hal_adc_ex.c **** /* Private function prototypes -----------------------------------------------*/
  67:Drivers/STM32F0xx_HAL_Driver/Src/stm32f0xx_hal_adc_ex.c **** /* Private functions ---------------------------------------------------------*/
  68:Drivers/STM32F0xx_HAL_Driver/Src/stm32f0xx_hal_adc_ex.c **** 
  69:Drivers/STM32F0xx_HAL_Driver/Src/stm32f0xx_hal_adc_ex.c **** /** @defgroup ADCEx_Exported_Functions ADCEx Exported Functions
  70:Drivers/STM32F0xx_HAL_Driver/Src/stm32f0xx_hal_adc_ex.c ****   * @{
  71:Drivers/STM32F0xx_HAL_Driver/Src/stm32f0xx_hal_adc_ex.c ****   */
  72:Drivers/STM32F0xx_HAL_Driver/Src/stm32f0xx_hal_adc_ex.c **** 
  73:Drivers/STM32F0xx_HAL_Driver/Src/stm32f0xx_hal_adc_ex.c **** /** @defgroup ADCEx_Exported_Functions_Group1 Extended Initialization/de-initialization functions 
  74:Drivers/STM32F0xx_HAL_Driver/Src/stm32f0xx_hal_adc_ex.c ****  *  @brief    Extended Initialization and Configuration functions
  75:Drivers/STM32F0xx_HAL_Driver/Src/stm32f0xx_hal_adc_ex.c ****  *
  76:Drivers/STM32F0xx_HAL_Driver/Src/stm32f0xx_hal_adc_ex.c **** @verbatim
  77:Drivers/STM32F0xx_HAL_Driver/Src/stm32f0xx_hal_adc_ex.c ****  ===============================================================================
  78:Drivers/STM32F0xx_HAL_Driver/Src/stm32f0xx_hal_adc_ex.c ****                       ##### IO operation functions #####
  79:Drivers/STM32F0xx_HAL_Driver/Src/stm32f0xx_hal_adc_ex.c ****  ===============================================================================
  80:Drivers/STM32F0xx_HAL_Driver/Src/stm32f0xx_hal_adc_ex.c ****     [..]  This section provides functions allowing to:
  81:Drivers/STM32F0xx_HAL_Driver/Src/stm32f0xx_hal_adc_ex.c ****       (+) Perform the ADC calibration. 
  82:Drivers/STM32F0xx_HAL_Driver/Src/stm32f0xx_hal_adc_ex.c **** @endverbatim
  83:Drivers/STM32F0xx_HAL_Driver/Src/stm32f0xx_hal_adc_ex.c ****   * @{
  84:Drivers/STM32F0xx_HAL_Driver/Src/stm32f0xx_hal_adc_ex.c ****   */
  85:Drivers/STM32F0xx_HAL_Driver/Src/stm32f0xx_hal_adc_ex.c **** 
  86:Drivers/STM32F0xx_HAL_Driver/Src/stm32f0xx_hal_adc_ex.c **** /**
  87:Drivers/STM32F0xx_HAL_Driver/Src/stm32f0xx_hal_adc_ex.c ****   * @brief  Perform an ADC automatic self-calibration
  88:Drivers/STM32F0xx_HAL_Driver/Src/stm32f0xx_hal_adc_ex.c ****   *         Calibration prerequisite: ADC must be disabled (execute this
  89:Drivers/STM32F0xx_HAL_Driver/Src/stm32f0xx_hal_adc_ex.c ****   *         function before HAL_ADC_Start() or after HAL_ADC_Stop() ).
ARM GAS  C:\Users\mason\AppData\Local\Temp\ccjQlUU9.s 			page 3


  90:Drivers/STM32F0xx_HAL_Driver/Src/stm32f0xx_hal_adc_ex.c ****   * @note   Calibration factor can be read after calibration, using function
  91:Drivers/STM32F0xx_HAL_Driver/Src/stm32f0xx_hal_adc_ex.c ****   *         HAL_ADC_GetValue() (value on 7 bits: from DR[6;0]).
  92:Drivers/STM32F0xx_HAL_Driver/Src/stm32f0xx_hal_adc_ex.c ****   * @param  hadc ADC handle
  93:Drivers/STM32F0xx_HAL_Driver/Src/stm32f0xx_hal_adc_ex.c ****   * @retval HAL status
  94:Drivers/STM32F0xx_HAL_Driver/Src/stm32f0xx_hal_adc_ex.c ****   */
  95:Drivers/STM32F0xx_HAL_Driver/Src/stm32f0xx_hal_adc_ex.c **** HAL_StatusTypeDef HAL_ADCEx_Calibration_Start(ADC_HandleTypeDef* hadc)
  96:Drivers/STM32F0xx_HAL_Driver/Src/stm32f0xx_hal_adc_ex.c **** {
  27              		.loc 1 96 1
  28              		.cfi_startproc
  29              		@ args = 0, pretend = 0, frame = 24
  30              		@ frame_needed = 1, uses_anonymous_args = 0
  31 0000 80B5     		push	{r7, lr}
  32              	.LCFI0:
  33              		.cfi_def_cfa_offset 8
  34              		.cfi_offset 7, -8
  35              		.cfi_offset 14, -4
  36 0002 86B0     		sub	sp, sp, #24
  37              	.LCFI1:
  38              		.cfi_def_cfa_offset 32
  39 0004 00AF     		add	r7, sp, #0
  40              	.LCFI2:
  41              		.cfi_def_cfa_register 7
  42 0006 7860     		str	r0, [r7, #4]
  97:Drivers/STM32F0xx_HAL_Driver/Src/stm32f0xx_hal_adc_ex.c ****   HAL_StatusTypeDef tmp_hal_status = HAL_OK;
  43              		.loc 1 97 21
  44 0008 1723     		movs	r3, #23
  45 000a FB18     		adds	r3, r7, r3
  46 000c 0022     		movs	r2, #0
  47 000e 1A70     		strb	r2, [r3]
  98:Drivers/STM32F0xx_HAL_Driver/Src/stm32f0xx_hal_adc_ex.c ****   uint32_t tickstart = 0U;
  48              		.loc 1 98 12
  49 0010 0023     		movs	r3, #0
  50 0012 3B61     		str	r3, [r7, #16]
  99:Drivers/STM32F0xx_HAL_Driver/Src/stm32f0xx_hal_adc_ex.c ****   uint32_t backup_setting_adc_dma_transfer = 0; /* Note: Variable not declared as volatile because 
  51              		.loc 1 99 12
  52 0014 0023     		movs	r3, #0
  53 0016 FB60     		str	r3, [r7, #12]
 100:Drivers/STM32F0xx_HAL_Driver/Src/stm32f0xx_hal_adc_ex.c ****   
 101:Drivers/STM32F0xx_HAL_Driver/Src/stm32f0xx_hal_adc_ex.c ****   /* Check the parameters */
 102:Drivers/STM32F0xx_HAL_Driver/Src/stm32f0xx_hal_adc_ex.c ****   assert_param(IS_ADC_ALL_INSTANCE(hadc->Instance));
 103:Drivers/STM32F0xx_HAL_Driver/Src/stm32f0xx_hal_adc_ex.c **** 
 104:Drivers/STM32F0xx_HAL_Driver/Src/stm32f0xx_hal_adc_ex.c ****   /* Process locked */
 105:Drivers/STM32F0xx_HAL_Driver/Src/stm32f0xx_hal_adc_ex.c ****   __HAL_LOCK(hadc);
  54              		.loc 1 105 3
  55 0018 7B68     		ldr	r3, [r7, #4]
  56 001a 3422     		movs	r2, #52
  57 001c 9B5C     		ldrb	r3, [r3, r2]
  58 001e 012B     		cmp	r3, #1
  59 0020 01D1     		bne	.L2
  60              		.loc 1 105 3 is_stmt 0 discriminator 1
  61 0022 0223     		movs	r3, #2
  62 0024 8DE0     		b	.L3
  63              	.L2:
  64              		.loc 1 105 3 discriminator 2
  65 0026 7B68     		ldr	r3, [r7, #4]
  66 0028 3422     		movs	r2, #52
  67 002a 0121     		movs	r1, #1
ARM GAS  C:\Users\mason\AppData\Local\Temp\ccjQlUU9.s 			page 4


  68 002c 9954     		strb	r1, [r3, r2]
 106:Drivers/STM32F0xx_HAL_Driver/Src/stm32f0xx_hal_adc_ex.c ****   
 107:Drivers/STM32F0xx_HAL_Driver/Src/stm32f0xx_hal_adc_ex.c ****   /* Calibration prerequisite: ADC must be disabled. */
 108:Drivers/STM32F0xx_HAL_Driver/Src/stm32f0xx_hal_adc_ex.c ****   if (ADC_IS_ENABLE(hadc) == RESET)
  69              		.loc 1 108 7 is_stmt 1 discriminator 2
  70 002e 7B68     		ldr	r3, [r7, #4]
  71 0030 1B68     		ldr	r3, [r3]
  72 0032 9B68     		ldr	r3, [r3, #8]
  73 0034 0322     		movs	r2, #3
  74 0036 1340     		ands	r3, r2
  75 0038 012B     		cmp	r3, #1
  76 003a 12D1     		bne	.L4
  77              		.loc 1 108 7 is_stmt 0 discriminator 1
  78 003c 7B68     		ldr	r3, [r7, #4]
  79 003e 1B68     		ldr	r3, [r3]
  80 0040 1B68     		ldr	r3, [r3]
  81 0042 0122     		movs	r2, #1
  82 0044 1340     		ands	r3, r2
  83 0046 012B     		cmp	r3, #1
  84 0048 09D0     		beq	.L5
  85              		.loc 1 108 7 discriminator 4
  86 004a 7B68     		ldr	r3, [r7, #4]
  87 004c 1B68     		ldr	r3, [r3]
  88 004e DA68     		ldr	r2, [r3, #12]
  89 0050 8023     		movs	r3, #128
  90 0052 1B02     		lsls	r3, r3, #8
  91 0054 1A40     		ands	r2, r3
  92 0056 8023     		movs	r3, #128
  93 0058 1B02     		lsls	r3, r3, #8
  94 005a 9A42     		cmp	r2, r3
  95 005c 01D1     		bne	.L4
  96              	.L5:
  97              		.loc 1 108 7 discriminator 5
  98 005e 0123     		movs	r3, #1
  99 0060 00E0     		b	.L6
 100              	.L4:
 101              		.loc 1 108 7 discriminator 6
 102 0062 0023     		movs	r3, #0
 103              	.L6:
 104              		.loc 1 108 6 is_stmt 1 discriminator 8
 105 0064 002B     		cmp	r3, #0
 106 0066 5BD1     		bne	.L7
 109:Drivers/STM32F0xx_HAL_Driver/Src/stm32f0xx_hal_adc_ex.c ****   {
 110:Drivers/STM32F0xx_HAL_Driver/Src/stm32f0xx_hal_adc_ex.c ****     /* Set ADC state */
 111:Drivers/STM32F0xx_HAL_Driver/Src/stm32f0xx_hal_adc_ex.c ****     ADC_STATE_CLR_SET(hadc->State, 
 107              		.loc 1 111 5
 108 0068 7B68     		ldr	r3, [r7, #4]
 109 006a 9B6B     		ldr	r3, [r3, #56]
 110 006c 374A     		ldr	r2, .L11
 111 006e 1340     		ands	r3, r2
 112 0070 0222     		movs	r2, #2
 113 0072 1A43     		orrs	r2, r3
 114 0074 7B68     		ldr	r3, [r7, #4]
 115 0076 9A63     		str	r2, [r3, #56]
 112:Drivers/STM32F0xx_HAL_Driver/Src/stm32f0xx_hal_adc_ex.c ****                       HAL_ADC_STATE_REG_BUSY,
 113:Drivers/STM32F0xx_HAL_Driver/Src/stm32f0xx_hal_adc_ex.c ****                       HAL_ADC_STATE_BUSY_INTERNAL);
 114:Drivers/STM32F0xx_HAL_Driver/Src/stm32f0xx_hal_adc_ex.c ****     
ARM GAS  C:\Users\mason\AppData\Local\Temp\ccjQlUU9.s 			page 5


 115:Drivers/STM32F0xx_HAL_Driver/Src/stm32f0xx_hal_adc_ex.c ****     /* Disable ADC DMA transfer request during calibration */
 116:Drivers/STM32F0xx_HAL_Driver/Src/stm32f0xx_hal_adc_ex.c ****     /* Note: Specificity of this STM32 series: Calibration factor is           */
 117:Drivers/STM32F0xx_HAL_Driver/Src/stm32f0xx_hal_adc_ex.c ****     /*       available in data register and also transferred by DMA.           */
 118:Drivers/STM32F0xx_HAL_Driver/Src/stm32f0xx_hal_adc_ex.c ****     /*       To not insert ADC calibration factor among ADC conversion data   */
 119:Drivers/STM32F0xx_HAL_Driver/Src/stm32f0xx_hal_adc_ex.c ****     /*       in array variable, DMA transfer must be disabled during          */
 120:Drivers/STM32F0xx_HAL_Driver/Src/stm32f0xx_hal_adc_ex.c ****     /*       calibration.                                                     */
 121:Drivers/STM32F0xx_HAL_Driver/Src/stm32f0xx_hal_adc_ex.c ****     backup_setting_adc_dma_transfer = READ_BIT(hadc->Instance->CFGR1, ADC_CFGR1_DMAEN | ADC_CFGR1_D
 116              		.loc 1 121 39
 117 0078 7B68     		ldr	r3, [r7, #4]
 118 007a 1B68     		ldr	r3, [r3]
 119 007c DB68     		ldr	r3, [r3, #12]
 120              		.loc 1 121 37
 121 007e 0322     		movs	r2, #3
 122 0080 1340     		ands	r3, r2
 123 0082 FB60     		str	r3, [r7, #12]
 122:Drivers/STM32F0xx_HAL_Driver/Src/stm32f0xx_hal_adc_ex.c ****     CLEAR_BIT(hadc->Instance->CFGR1, ADC_CFGR1_DMAEN | ADC_CFGR1_DMACFG);
 124              		.loc 1 122 5
 125 0084 7B68     		ldr	r3, [r7, #4]
 126 0086 1B68     		ldr	r3, [r3]
 127 0088 DA68     		ldr	r2, [r3, #12]
 128 008a 7B68     		ldr	r3, [r7, #4]
 129 008c 1B68     		ldr	r3, [r3]
 130 008e 0321     		movs	r1, #3
 131 0090 8A43     		bics	r2, r1
 132 0092 DA60     		str	r2, [r3, #12]
 123:Drivers/STM32F0xx_HAL_Driver/Src/stm32f0xx_hal_adc_ex.c **** 
 124:Drivers/STM32F0xx_HAL_Driver/Src/stm32f0xx_hal_adc_ex.c ****     /* Start ADC calibration */
 125:Drivers/STM32F0xx_HAL_Driver/Src/stm32f0xx_hal_adc_ex.c ****     hadc->Instance->CR |= ADC_CR_ADCAL;
 133              		.loc 1 125 9
 134 0094 7B68     		ldr	r3, [r7, #4]
 135 0096 1B68     		ldr	r3, [r3]
 136              		.loc 1 125 24
 137 0098 9A68     		ldr	r2, [r3, #8]
 138              		.loc 1 125 9
 139 009a 7B68     		ldr	r3, [r7, #4]
 140 009c 1B68     		ldr	r3, [r3]
 141              		.loc 1 125 24
 142 009e 8021     		movs	r1, #128
 143 00a0 0906     		lsls	r1, r1, #24
 144 00a2 0A43     		orrs	r2, r1
 145 00a4 9A60     		str	r2, [r3, #8]
 126:Drivers/STM32F0xx_HAL_Driver/Src/stm32f0xx_hal_adc_ex.c **** 
 127:Drivers/STM32F0xx_HAL_Driver/Src/stm32f0xx_hal_adc_ex.c ****     tickstart = HAL_GetTick();  
 146              		.loc 1 127 17
 147 00a6 FFF7FEFF 		bl	HAL_GetTick
 148 00aa 0300     		movs	r3, r0
 149 00ac 3B61     		str	r3, [r7, #16]
 128:Drivers/STM32F0xx_HAL_Driver/Src/stm32f0xx_hal_adc_ex.c **** 
 129:Drivers/STM32F0xx_HAL_Driver/Src/stm32f0xx_hal_adc_ex.c ****     /* Wait for calibration completion */
 130:Drivers/STM32F0xx_HAL_Driver/Src/stm32f0xx_hal_adc_ex.c ****     while(HAL_IS_BIT_SET(hadc->Instance->CR, ADC_CR_ADCAL))
 150              		.loc 1 130 10
 151 00ae 1DE0     		b	.L8
 152              	.L9:
 131:Drivers/STM32F0xx_HAL_Driver/Src/stm32f0xx_hal_adc_ex.c ****     {
 132:Drivers/STM32F0xx_HAL_Driver/Src/stm32f0xx_hal_adc_ex.c ****       if((HAL_GetTick() - tickstart) > ADC_CALIBRATION_TIMEOUT)
 153              		.loc 1 132 11
 154 00b0 FFF7FEFF 		bl	HAL_GetTick
ARM GAS  C:\Users\mason\AppData\Local\Temp\ccjQlUU9.s 			page 6


 155 00b4 0200     		movs	r2, r0
 156              		.loc 1 132 25
 157 00b6 3B69     		ldr	r3, [r7, #16]
 158 00b8 D31A     		subs	r3, r2, r3
 159              		.loc 1 132 9
 160 00ba 022B     		cmp	r3, #2
 161 00bc 16D9     		bls	.L8
 133:Drivers/STM32F0xx_HAL_Driver/Src/stm32f0xx_hal_adc_ex.c ****       {
 134:Drivers/STM32F0xx_HAL_Driver/Src/stm32f0xx_hal_adc_ex.c ****         /* New check to avoid false timeout detection in case of preemption */
 135:Drivers/STM32F0xx_HAL_Driver/Src/stm32f0xx_hal_adc_ex.c ****         if(HAL_IS_BIT_SET(hadc->Instance->CR, ADC_CR_ADCAL))
 162              		.loc 1 135 12
 163 00be 7B68     		ldr	r3, [r7, #4]
 164 00c0 1B68     		ldr	r3, [r3]
 165 00c2 9B68     		ldr	r3, [r3, #8]
 166 00c4 DB0F     		lsrs	r3, r3, #31
 167 00c6 DA07     		lsls	r2, r3, #31
 168              		.loc 1 135 11
 169 00c8 8023     		movs	r3, #128
 170 00ca 1B06     		lsls	r3, r3, #24
 171 00cc 9A42     		cmp	r2, r3
 172 00ce 0DD1     		bne	.L8
 136:Drivers/STM32F0xx_HAL_Driver/Src/stm32f0xx_hal_adc_ex.c ****         {
 137:Drivers/STM32F0xx_HAL_Driver/Src/stm32f0xx_hal_adc_ex.c ****           /* Update ADC state machine to error */
 138:Drivers/STM32F0xx_HAL_Driver/Src/stm32f0xx_hal_adc_ex.c ****           ADC_STATE_CLR_SET(hadc->State,
 173              		.loc 1 138 11
 174 00d0 7B68     		ldr	r3, [r7, #4]
 175 00d2 9B6B     		ldr	r3, [r3, #56]
 176 00d4 1222     		movs	r2, #18
 177 00d6 9343     		bics	r3, r2
 178 00d8 1022     		movs	r2, #16
 179 00da 1A43     		orrs	r2, r3
 180 00dc 7B68     		ldr	r3, [r7, #4]
 181 00de 9A63     		str	r2, [r3, #56]
 139:Drivers/STM32F0xx_HAL_Driver/Src/stm32f0xx_hal_adc_ex.c ****                             HAL_ADC_STATE_BUSY_INTERNAL,
 140:Drivers/STM32F0xx_HAL_Driver/Src/stm32f0xx_hal_adc_ex.c ****                             HAL_ADC_STATE_ERROR_INTERNAL);
 141:Drivers/STM32F0xx_HAL_Driver/Src/stm32f0xx_hal_adc_ex.c **** 
 142:Drivers/STM32F0xx_HAL_Driver/Src/stm32f0xx_hal_adc_ex.c ****           /* Process unlocked */
 143:Drivers/STM32F0xx_HAL_Driver/Src/stm32f0xx_hal_adc_ex.c ****           __HAL_UNLOCK(hadc);
 182              		.loc 1 143 11
 183 00e0 7B68     		ldr	r3, [r7, #4]
 184 00e2 3422     		movs	r2, #52
 185 00e4 0021     		movs	r1, #0
 186 00e6 9954     		strb	r1, [r3, r2]
 144:Drivers/STM32F0xx_HAL_Driver/Src/stm32f0xx_hal_adc_ex.c **** 
 145:Drivers/STM32F0xx_HAL_Driver/Src/stm32f0xx_hal_adc_ex.c ****           return HAL_ERROR;
 187              		.loc 1 145 18
 188 00e8 0123     		movs	r3, #1
 189 00ea 2AE0     		b	.L3
 190              	.L8:
 130:Drivers/STM32F0xx_HAL_Driver/Src/stm32f0xx_hal_adc_ex.c ****     {
 191              		.loc 1 130 11
 192 00ec 7B68     		ldr	r3, [r7, #4]
 193 00ee 1B68     		ldr	r3, [r3]
 194 00f0 9B68     		ldr	r3, [r3, #8]
 195 00f2 DB0F     		lsrs	r3, r3, #31
 196 00f4 DA07     		lsls	r2, r3, #31
 130:Drivers/STM32F0xx_HAL_Driver/Src/stm32f0xx_hal_adc_ex.c ****     {
ARM GAS  C:\Users\mason\AppData\Local\Temp\ccjQlUU9.s 			page 7


 197              		.loc 1 130 10
 198 00f6 8023     		movs	r3, #128
 199 00f8 1B06     		lsls	r3, r3, #24
 200 00fa 9A42     		cmp	r2, r3
 201 00fc D8D0     		beq	.L9
 146:Drivers/STM32F0xx_HAL_Driver/Src/stm32f0xx_hal_adc_ex.c ****         }
 147:Drivers/STM32F0xx_HAL_Driver/Src/stm32f0xx_hal_adc_ex.c ****       }
 148:Drivers/STM32F0xx_HAL_Driver/Src/stm32f0xx_hal_adc_ex.c ****     }
 149:Drivers/STM32F0xx_HAL_Driver/Src/stm32f0xx_hal_adc_ex.c ****     
 150:Drivers/STM32F0xx_HAL_Driver/Src/stm32f0xx_hal_adc_ex.c ****     /* Restore ADC DMA transfer request after calibration */
 151:Drivers/STM32F0xx_HAL_Driver/Src/stm32f0xx_hal_adc_ex.c ****     SET_BIT(hadc->Instance->CFGR1, backup_setting_adc_dma_transfer);
 202              		.loc 1 151 5
 203 00fe 7B68     		ldr	r3, [r7, #4]
 204 0100 1B68     		ldr	r3, [r3]
 205 0102 D968     		ldr	r1, [r3, #12]
 206 0104 7B68     		ldr	r3, [r7, #4]
 207 0106 1B68     		ldr	r3, [r3]
 208 0108 FA68     		ldr	r2, [r7, #12]
 209 010a 0A43     		orrs	r2, r1
 210 010c DA60     		str	r2, [r3, #12]
 152:Drivers/STM32F0xx_HAL_Driver/Src/stm32f0xx_hal_adc_ex.c **** 
 153:Drivers/STM32F0xx_HAL_Driver/Src/stm32f0xx_hal_adc_ex.c ****     /* Set ADC state */
 154:Drivers/STM32F0xx_HAL_Driver/Src/stm32f0xx_hal_adc_ex.c ****     ADC_STATE_CLR_SET(hadc->State,
 211              		.loc 1 154 5
 212 010e 7B68     		ldr	r3, [r7, #4]
 213 0110 9B6B     		ldr	r3, [r3, #56]
 214 0112 0322     		movs	r2, #3
 215 0114 9343     		bics	r3, r2
 216 0116 0122     		movs	r2, #1
 217 0118 1A43     		orrs	r2, r3
 218 011a 7B68     		ldr	r3, [r7, #4]
 219 011c 9A63     		str	r2, [r3, #56]
 220 011e 09E0     		b	.L10
 221              	.L7:
 155:Drivers/STM32F0xx_HAL_Driver/Src/stm32f0xx_hal_adc_ex.c ****                       HAL_ADC_STATE_BUSY_INTERNAL,
 156:Drivers/STM32F0xx_HAL_Driver/Src/stm32f0xx_hal_adc_ex.c ****                       HAL_ADC_STATE_READY);
 157:Drivers/STM32F0xx_HAL_Driver/Src/stm32f0xx_hal_adc_ex.c ****   }
 158:Drivers/STM32F0xx_HAL_Driver/Src/stm32f0xx_hal_adc_ex.c ****   else
 159:Drivers/STM32F0xx_HAL_Driver/Src/stm32f0xx_hal_adc_ex.c ****   {
 160:Drivers/STM32F0xx_HAL_Driver/Src/stm32f0xx_hal_adc_ex.c ****     /* Update ADC state machine to error */
 161:Drivers/STM32F0xx_HAL_Driver/Src/stm32f0xx_hal_adc_ex.c ****     SET_BIT(hadc->State, HAL_ADC_STATE_ERROR_CONFIG);
 222              		.loc 1 161 5
 223 0120 7B68     		ldr	r3, [r7, #4]
 224 0122 9B6B     		ldr	r3, [r3, #56]
 225 0124 2022     		movs	r2, #32
 226 0126 1A43     		orrs	r2, r3
 227 0128 7B68     		ldr	r3, [r7, #4]
 228 012a 9A63     		str	r2, [r3, #56]
 162:Drivers/STM32F0xx_HAL_Driver/Src/stm32f0xx_hal_adc_ex.c ****     
 163:Drivers/STM32F0xx_HAL_Driver/Src/stm32f0xx_hal_adc_ex.c ****     tmp_hal_status = HAL_ERROR;
 229              		.loc 1 163 20
 230 012c 1723     		movs	r3, #23
 231 012e FB18     		adds	r3, r7, r3
 232 0130 0122     		movs	r2, #1
 233 0132 1A70     		strb	r2, [r3]
 234              	.L10:
 164:Drivers/STM32F0xx_HAL_Driver/Src/stm32f0xx_hal_adc_ex.c ****   }
ARM GAS  C:\Users\mason\AppData\Local\Temp\ccjQlUU9.s 			page 8


 165:Drivers/STM32F0xx_HAL_Driver/Src/stm32f0xx_hal_adc_ex.c ****   
 166:Drivers/STM32F0xx_HAL_Driver/Src/stm32f0xx_hal_adc_ex.c ****   /* Process unlocked */
 167:Drivers/STM32F0xx_HAL_Driver/Src/stm32f0xx_hal_adc_ex.c ****   __HAL_UNLOCK(hadc);
 235              		.loc 1 167 3
 236 0134 7B68     		ldr	r3, [r7, #4]
 237 0136 3422     		movs	r2, #52
 238 0138 0021     		movs	r1, #0
 239 013a 9954     		strb	r1, [r3, r2]
 168:Drivers/STM32F0xx_HAL_Driver/Src/stm32f0xx_hal_adc_ex.c ****   
 169:Drivers/STM32F0xx_HAL_Driver/Src/stm32f0xx_hal_adc_ex.c ****   /* Return function status */
 170:Drivers/STM32F0xx_HAL_Driver/Src/stm32f0xx_hal_adc_ex.c ****   return tmp_hal_status;
 240              		.loc 1 170 10
 241 013c 1723     		movs	r3, #23
 242 013e FB18     		adds	r3, r7, r3
 243 0140 1B78     		ldrb	r3, [r3]
 244              	.L3:
 171:Drivers/STM32F0xx_HAL_Driver/Src/stm32f0xx_hal_adc_ex.c **** }
 245              		.loc 1 171 1
 246 0142 1800     		movs	r0, r3
 247 0144 BD46     		mov	sp, r7
 248 0146 06B0     		add	sp, sp, #24
 249              		@ sp needed
 250 0148 80BD     		pop	{r7, pc}
 251              	.L12:
 252 014a C046     		.align	2
 253              	.L11:
 254 014c FDFEFFFF 		.word	-259
 255              		.cfi_endproc
 256              	.LFE40:
 258              		.text
 259              	.Letext0:
 260              		.file 2 "c:\\program files (x86)\\openocdarmgccbuildtools\\gcc-arm-none-eabi-10.3-2021.10-win32\\a
 261              		.file 3 "c:\\program files (x86)\\openocdarmgccbuildtools\\gcc-arm-none-eabi-10.3-2021.10-win32\\a
 262              		.file 4 "Drivers/CMSIS/Device/ST/STM32F0xx/Include/stm32f031x6.h"
 263              		.file 5 "Drivers/CMSIS/Device/ST/STM32F0xx/Include/stm32f0xx.h"
 264              		.file 6 "Drivers/STM32F0xx_HAL_Driver/Inc/stm32f0xx_hal_def.h"
 265              		.file 7 "Drivers/STM32F0xx_HAL_Driver/Inc/stm32f0xx_hal_dma.h"
 266              		.file 8 "Drivers/STM32F0xx_HAL_Driver/Inc/stm32f0xx_hal_adc.h"
ARM GAS  C:\Users\mason\AppData\Local\Temp\ccjQlUU9.s 			page 9

